; Listing generated by Microsoft (R) Optimizing Compiler Version 19.42.34435.0 

	TTL	W:\home\blachex\mingw-woarm64-build\tests\valist\valist-dll-msvc.obj
	;ARM64

	AREA	|.drectve|, DRECTVE

	EXPORT	|use_va_args|

	AREA	|.pdata|, PDATA
|$pdata$use_va_args| DCD |$LN3|
	DCD	|$unwind$use_va_args|

	AREA	|.xdata|, DATA
|$unwind$use_va_args| DCD 0x1120005c
	DCD	0xe402e303
	DCD	0xe3e40203
	;Code Words[2], Epilog Start Index[4], E[1], X[0], Function Length[92]=368 bytes
	;alloc_s
	;nop
	;alloc_s
	;end
	;alloc_s
	;alloc_s
	;end
	;nop
; Function compile flags: /Odtp
; File W:\home\blachex\mingw-woarm64-build\tests\valist\valist-dll.c

	AREA	|.text$mn|, CODE, ARM64

  00000		 |use_va_args| PROC

; 5    : {

  00000		 |$LN3|
  00000	a9be17e4	 stp         x4,x5,[sp,#-0x20]!
  00004	a9011fe6	 stp         x6,x7,[sp,#0x10]
  00008	d100c3ff	 sub         sp,sp,#0x30
  0000c	b9000be0	 str         w0,[sp,#8]
  00010	b9000fe1	 str         w1,[sp,#0xC]
  00014	b90013e2	 str         w2,[sp,#0x10]
  00018	b90017e3	 str         w3,[sp,#0x14]

; 6    :   va_list argv;
; 7    :   va_start (argv, d);

  0001c	9100c3e8	 add         x8,sp,#0x30
  00020	f90003e8	 str         x8,[sp]

; 8    :   int e = va_arg (argv, int);

  00024	d2800008	 mov         x8,#0
  00028	f94003e9	 ldr         x9,[sp]
  0002c	cb090108	 sub         x8,x8,x9
  00030	92400508	 and         x8,x8,#3
  00034	91002109	 add         x9,x8,#8
  00038	f94003e8	 ldr         x8,[sp]
  0003c	8b090108	 add         x8,x8,x9
  00040	f90003e8	 str         x8,[sp]
  00044	f94003e8	 ldr         x8,[sp]
  00048	d1002108	 sub         x8,x8,#8
  0004c	b9400108	 ldr         w8,[x8]
  00050	b9001be8	 str         w8,[sp,#0x18]

; 9    :   int f = va_arg (argv, int);

  00054	d2800008	 mov         x8,#0
  00058	f94003e9	 ldr         x9,[sp]
  0005c	cb090108	 sub         x8,x8,x9
  00060	92400508	 and         x8,x8,#3
  00064	91002109	 add         x9,x8,#8
  00068	f94003e8	 ldr         x8,[sp]
  0006c	8b090108	 add         x8,x8,x9
  00070	f90003e8	 str         x8,[sp]
  00074	f94003e8	 ldr         x8,[sp]
  00078	d1002108	 sub         x8,x8,#8
  0007c	b9400108	 ldr         w8,[x8]
  00080	b9001fe8	 str         w8,[sp,#0x1C]

; 10   :   int g = va_arg (argv, int);

  00084	d2800008	 mov         x8,#0
  00088	f94003e9	 ldr         x9,[sp]
  0008c	cb090108	 sub         x8,x8,x9
  00090	92400508	 and         x8,x8,#3
  00094	91002109	 add         x9,x8,#8
  00098	f94003e8	 ldr         x8,[sp]
  0009c	8b090108	 add         x8,x8,x9
  000a0	f90003e8	 str         x8,[sp]
  000a4	f94003e8	 ldr         x8,[sp]
  000a8	d1002108	 sub         x8,x8,#8
  000ac	b9400108	 ldr         w8,[x8]
  000b0	b90023e8	 str         w8,[sp,#0x20]

; 11   :   int h = va_arg (argv, int);

  000b4	d2800008	 mov         x8,#0
  000b8	f94003e9	 ldr         x9,[sp]
  000bc	cb090108	 sub         x8,x8,x9
  000c0	92400508	 and         x8,x8,#3
  000c4	91002109	 add         x9,x8,#8
  000c8	f94003e8	 ldr         x8,[sp]
  000cc	8b090108	 add         x8,x8,x9
  000d0	f90003e8	 str         x8,[sp]
  000d4	f94003e8	 ldr         x8,[sp]
  000d8	d1002108	 sub         x8,x8,#8
  000dc	b9400108	 ldr         w8,[x8]
  000e0	b90027e8	 str         w8,[sp,#0x24]

; 12   :   int i = va_arg (argv, int);

  000e4	d2800008	 mov         x8,#0
  000e8	f94003e9	 ldr         x9,[sp]
  000ec	cb090108	 sub         x8,x8,x9
  000f0	92400508	 and         x8,x8,#3
  000f4	91002109	 add         x9,x8,#8
  000f8	f94003e8	 ldr         x8,[sp]
  000fc	8b090108	 add         x8,x8,x9
  00100	f90003e8	 str         x8,[sp]
  00104	f94003e8	 ldr         x8,[sp]
  00108	d1002108	 sub         x8,x8,#8
  0010c	b9400108	 ldr         w8,[x8]
  00110	b9002be8	 str         w8,[sp,#0x28]

; 13   :   va_end (argv);

  00114	d2800008	 mov         x8,#0
  00118	f90003e8	 str         x8,[sp]

; 14   :   return a + b + c + d + e + f + g + h + i;

  0011c	b9400be8	 ldr         w8,[sp,#8]
  00120	b9400fe9	 ldr         w9,[sp,#0xC]
  00124	0b090108	 add         w8,w8,w9
  00128	b94013e9	 ldr         w9,[sp,#0x10]
  0012c	0b090108	 add         w8,w8,w9
  00130	b94017e9	 ldr         w9,[sp,#0x14]
  00134	0b090108	 add         w8,w8,w9
  00138	b9401be9	 ldr         w9,[sp,#0x18]
  0013c	0b090108	 add         w8,w8,w9
  00140	b9401fe9	 ldr         w9,[sp,#0x1C]
  00144	0b090108	 add         w8,w8,w9
  00148	b94023e9	 ldr         w9,[sp,#0x20]
  0014c	0b090108	 add         w8,w8,w9
  00150	b94027e9	 ldr         w9,[sp,#0x24]
  00154	0b090108	 add         w8,w8,w9
  00158	b9402be9	 ldr         w9,[sp,#0x28]
  0015c	0b090100	 add         w0,w8,w9
  00160	2a0003e0	 mov         w0,w0
  00164	9100c3ff	 add         sp,sp,#0x30
  00168	910083ff	 add         sp,sp,#0x20
  0016c	d65f03c0	 ret

			 ENDP  ; |use_va_args|

	END
