; Listing generated by Microsoft (R) Optimizing Compiler Version 19.42.34435.0 

	TTL	W:\home\blachex\mingw-woarm64-build\tests\valist\nul.obj
	;ARM64

	AREA	|.drectve|, DRECTVE

	EXPORT	|use_va_args|
	EXPORT	|use_va_list|

	AREA	|.pdata|, PDATA
|$pdata$use_va_args| DCD |$LN3|
	DCD	|$unwind$use_va_args|
|$pdata$use_va_list| DCD |$LN3|
	DCD	0x2000225
	;Flags[SingleProEpi] functionLength[548] RegF[0] RegI[0] H[0] frameChainReturn[UnChained] frameSize[64]

	AREA	|.xdata|, DATA
|$unwind$use_va_args| DCD 0x19e00092
	DCD	0xe3e3e304
	DCD	0x4e404e3
	DCD	0xe3e3e404
	;Code Words[3], Epilog Start Index[7], E[1], X[0], Function Length[146]=584 bytes
	;alloc_s
	;nop
	;nop
	;nop
	;nop
	;alloc_s
	;end
	;alloc_s
	;alloc_s
	;end
	;nop
	;nop
; Function compile flags: /Odsp
; File W:\home\blachex\mingw-woarm64-build\tests\valist\valist-dll.c

	AREA	|.text$mn|, CODE, ARM64

  00000		 |use_va_list| PROC

; 38   : {

  00000		 |$LN3|
  00000	d10103ff	 sub         sp,sp,#0x40
  00004	f9001be0	 str         x0,[sp,#0x30]
  00008	f90003e1	 str         x1,[sp]

; 39   :   int a = va_arg (argv, struct not_short_vector_12_bytes).a;

  0000c	d2800008	 mov         x8,#0
  00010	f94003e9	 ldr         x9,[sp]
  00014	cb090108	 sub         x8,x8,x9
  00018	92400508	 and         x8,x8,#3
  0001c	91004109	 add         x9,x8,#0x10
  00020	f94003e8	 ldr         x8,[sp]
  00024	8b090108	 add         x8,x8,x9
  00028	f90003e8	 str         x8,[sp]
  0002c	f94003e8	 ldr         x8,[sp]
  00030	d1004108	 sub         x8,x8,#0x10
  00034	b9400108	 ldr         w8,[x8]
  00038	b9000be8	 str         w8,[sp,#8]

; 40   :   int b = va_arg (argv, struct not_short_vector_12_bytes).b;

  0003c	d2800008	 mov         x8,#0
  00040	f94003e9	 ldr         x9,[sp]
  00044	cb090108	 sub         x8,x8,x9
  00048	92400508	 and         x8,x8,#3
  0004c	91004109	 add         x9,x8,#0x10
  00050	f94003e8	 ldr         x8,[sp]
  00054	8b090108	 add         x8,x8,x9
  00058	f90003e8	 str         x8,[sp]
  0005c	f94003e8	 ldr         x8,[sp]
  00060	d1004108	 sub         x8,x8,#0x10
  00064	91001108	 add         x8,x8,#4
  00068	b9400108	 ldr         w8,[x8]
  0006c	b9000fe8	 str         w8,[sp,#0xC]

; 41   :   int c = va_arg (argv, struct not_short_vector_12_bytes).c;

  00070	d2800008	 mov         x8,#0
  00074	f94003e9	 ldr         x9,[sp]
  00078	cb090108	 sub         x8,x8,x9
  0007c	92400508	 and         x8,x8,#3
  00080	91004109	 add         x9,x8,#0x10
  00084	f94003e8	 ldr         x8,[sp]
  00088	8b090108	 add         x8,x8,x9
  0008c	f90003e8	 str         x8,[sp]
  00090	f94003e8	 ldr         x8,[sp]
  00094	d1004108	 sub         x8,x8,#0x10
  00098	91002108	 add         x8,x8,#8
  0009c	b9400108	 ldr         w8,[x8]
  000a0	b90013e8	 str         w8,[sp,#0x10]

; 42   :   int d = va_arg (argv, struct not_short_vector_12_bytes).a;

  000a4	d2800008	 mov         x8,#0
  000a8	f94003e9	 ldr         x9,[sp]
  000ac	cb090108	 sub         x8,x8,x9
  000b0	92400508	 and         x8,x8,#3
  000b4	91004109	 add         x9,x8,#0x10
  000b8	f94003e8	 ldr         x8,[sp]
  000bc	8b090108	 add         x8,x8,x9
  000c0	f90003e8	 str         x8,[sp]
  000c4	f94003e8	 ldr         x8,[sp]
  000c8	d1004108	 sub         x8,x8,#0x10
  000cc	b9400108	 ldr         w8,[x8]
  000d0	b90017e8	 str         w8,[sp,#0x14]

; 43   :   int e = va_arg (argv, struct not_short_vector_12_bytes).b;

  000d4	d2800008	 mov         x8,#0
  000d8	f94003e9	 ldr         x9,[sp]
  000dc	cb090108	 sub         x8,x8,x9
  000e0	92400508	 and         x8,x8,#3
  000e4	91004109	 add         x9,x8,#0x10
  000e8	f94003e8	 ldr         x8,[sp]
  000ec	8b090108	 add         x8,x8,x9
  000f0	f90003e8	 str         x8,[sp]
  000f4	f94003e8	 ldr         x8,[sp]
  000f8	d1004108	 sub         x8,x8,#0x10
  000fc	91001108	 add         x8,x8,#4
  00100	b9400108	 ldr         w8,[x8]
  00104	b9001be8	 str         w8,[sp,#0x18]

; 44   :   int f = va_arg (argv, struct not_short_vector_12_bytes).c;

  00108	d2800008	 mov         x8,#0
  0010c	f94003e9	 ldr         x9,[sp]
  00110	cb090108	 sub         x8,x8,x9
  00114	92400508	 and         x8,x8,#3
  00118	91004109	 add         x9,x8,#0x10
  0011c	f94003e8	 ldr         x8,[sp]
  00120	8b090108	 add         x8,x8,x9
  00124	f90003e8	 str         x8,[sp]
  00128	f94003e8	 ldr         x8,[sp]
  0012c	d1004108	 sub         x8,x8,#0x10
  00130	91002108	 add         x8,x8,#8
  00134	b9400108	 ldr         w8,[x8]
  00138	b9001fe8	 str         w8,[sp,#0x1C]

; 45   :   int g = va_arg (argv, struct not_short_vector_12_bytes).a;

  0013c	d2800008	 mov         x8,#0
  00140	f94003e9	 ldr         x9,[sp]
  00144	cb090108	 sub         x8,x8,x9
  00148	92400508	 and         x8,x8,#3
  0014c	91004109	 add         x9,x8,#0x10
  00150	f94003e8	 ldr         x8,[sp]
  00154	8b090108	 add         x8,x8,x9
  00158	f90003e8	 str         x8,[sp]
  0015c	f94003e8	 ldr         x8,[sp]
  00160	d1004108	 sub         x8,x8,#0x10
  00164	b9400108	 ldr         w8,[x8]
  00168	b90023e8	 str         w8,[sp,#0x20]

; 46   :   int h = va_arg (argv, struct not_short_vector_12_bytes).b;

  0016c	d2800008	 mov         x8,#0
  00170	f94003e9	 ldr         x9,[sp]
  00174	cb090108	 sub         x8,x8,x9
  00178	92400508	 and         x8,x8,#3
  0017c	91004109	 add         x9,x8,#0x10
  00180	f94003e8	 ldr         x8,[sp]
  00184	8b090108	 add         x8,x8,x9
  00188	f90003e8	 str         x8,[sp]
  0018c	f94003e8	 ldr         x8,[sp]
  00190	d1004108	 sub         x8,x8,#0x10
  00194	91001108	 add         x8,x8,#4
  00198	b9400108	 ldr         w8,[x8]
  0019c	b90027e8	 str         w8,[sp,#0x24]

; 47   :   int i = va_arg (argv, struct not_short_vector_12_bytes).c;

  001a0	d2800008	 mov         x8,#0
  001a4	f94003e9	 ldr         x9,[sp]
  001a8	cb090108	 sub         x8,x8,x9
  001ac	92400508	 and         x8,x8,#3
  001b0	91004109	 add         x9,x8,#0x10
  001b4	f94003e8	 ldr         x8,[sp]
  001b8	8b090108	 add         x8,x8,x9
  001bc	f90003e8	 str         x8,[sp]
  001c0	f94003e8	 ldr         x8,[sp]
  001c4	d1004108	 sub         x8,x8,#0x10
  001c8	91002108	 add         x8,x8,#8
  001cc	b9400108	 ldr         w8,[x8]
  001d0	b9002be8	 str         w8,[sp,#0x28]

; 48   :   return a + b + c + d + e + f + g + h + i;

  001d4	b9400be8	 ldr         w8,[sp,#8]
  001d8	b9400fe9	 ldr         w9,[sp,#0xC]
  001dc	0b090108	 add         w8,w8,w9
  001e0	b94013e9	 ldr         w9,[sp,#0x10]
  001e4	0b090108	 add         w8,w8,w9
  001e8	b94017e9	 ldr         w9,[sp,#0x14]
  001ec	0b090108	 add         w8,w8,w9
  001f0	b9401be9	 ldr         w9,[sp,#0x18]
  001f4	0b090108	 add         w8,w8,w9
  001f8	b9401fe9	 ldr         w9,[sp,#0x1C]
  001fc	0b090108	 add         w8,w8,w9
  00200	b94023e9	 ldr         w9,[sp,#0x20]
  00204	0b090108	 add         w8,w8,w9
  00208	b94027e9	 ldr         w9,[sp,#0x24]
  0020c	0b090108	 add         w8,w8,w9
  00210	b9402be9	 ldr         w9,[sp,#0x28]
  00214	0b090100	 add         w0,w8,w9
  00218	2a0003e0	 mov         w0,w0
  0021c	910103ff	 add         sp,sp,#0x40
  00220	d65f03c0	 ret

			 ENDP  ; |use_va_list|

; Function compile flags: /Odsp
; File W:\home\blachex\mingw-woarm64-build\tests\valist\valist-dll.c

	AREA	|.text$mn|, CODE, ARM64

  00000		 |use_va_args| PROC

; 20   : {

  00000		 |$LN3|
  00000	d10103ff	 sub         sp,sp,#0x40
  00004	a9008be1	 stp         x1,x2,[sp,#8]
  00008	a90193e3	 stp         x3,x4,[sp,#0x18]
  0000c	a9029be5	 stp         x5,x6,[sp,#0x28]
  00010	f9001fe7	 str         x7,[sp,#0x38]
  00014	d10103ff	 sub         sp,sp,#0x40
  00018	f9001be0	 str         x0,[sp,#0x30]

; 21   :   va_list argv;
; 22   :   va_start (argv, format);

  0001c	910123e8	 add         x8,sp,#0x48
  00020	f90003e8	 str         x8,[sp]

; 23   :   int a = va_arg (argv, struct not_short_vector_12_bytes).a;

  00024	d2800008	 mov         x8,#0
  00028	f94003e9	 ldr         x9,[sp]
  0002c	cb090108	 sub         x8,x8,x9
  00030	92400508	 and         x8,x8,#3
  00034	91004109	 add         x9,x8,#0x10
  00038	f94003e8	 ldr         x8,[sp]
  0003c	8b090108	 add         x8,x8,x9
  00040	f90003e8	 str         x8,[sp]
  00044	f94003e8	 ldr         x8,[sp]
  00048	d1004108	 sub         x8,x8,#0x10
  0004c	b9400108	 ldr         w8,[x8]
  00050	b9000be8	 str         w8,[sp,#8]

; 24   :   int b = va_arg (argv, struct not_short_vector_12_bytes).b;

  00054	d2800008	 mov         x8,#0
  00058	f94003e9	 ldr         x9,[sp]
  0005c	cb090108	 sub         x8,x8,x9
  00060	92400508	 and         x8,x8,#3
  00064	91004109	 add         x9,x8,#0x10
  00068	f94003e8	 ldr         x8,[sp]
  0006c	8b090108	 add         x8,x8,x9
  00070	f90003e8	 str         x8,[sp]
  00074	f94003e8	 ldr         x8,[sp]
  00078	d1004108	 sub         x8,x8,#0x10
  0007c	91001108	 add         x8,x8,#4
  00080	b9400108	 ldr         w8,[x8]
  00084	b9000fe8	 str         w8,[sp,#0xC]

; 25   :   int c = va_arg (argv, struct not_short_vector_12_bytes).c;

  00088	d2800008	 mov         x8,#0
  0008c	f94003e9	 ldr         x9,[sp]
  00090	cb090108	 sub         x8,x8,x9
  00094	92400508	 and         x8,x8,#3
  00098	91004109	 add         x9,x8,#0x10
  0009c	f94003e8	 ldr         x8,[sp]
  000a0	8b090108	 add         x8,x8,x9
  000a4	f90003e8	 str         x8,[sp]
  000a8	f94003e8	 ldr         x8,[sp]
  000ac	d1004108	 sub         x8,x8,#0x10
  000b0	91002108	 add         x8,x8,#8
  000b4	b9400108	 ldr         w8,[x8]
  000b8	b90013e8	 str         w8,[sp,#0x10]

; 26   :   int d = va_arg (argv, struct not_short_vector_12_bytes).a;

  000bc	d2800008	 mov         x8,#0
  000c0	f94003e9	 ldr         x9,[sp]
  000c4	cb090108	 sub         x8,x8,x9
  000c8	92400508	 and         x8,x8,#3
  000cc	91004109	 add         x9,x8,#0x10
  000d0	f94003e8	 ldr         x8,[sp]
  000d4	8b090108	 add         x8,x8,x9
  000d8	f90003e8	 str         x8,[sp]
  000dc	f94003e8	 ldr         x8,[sp]
  000e0	d1004108	 sub         x8,x8,#0x10
  000e4	b9400108	 ldr         w8,[x8]
  000e8	b90017e8	 str         w8,[sp,#0x14]

; 27   :   int e = va_arg (argv, struct not_short_vector_12_bytes).b;

  000ec	d2800008	 mov         x8,#0
  000f0	f94003e9	 ldr         x9,[sp]
  000f4	cb090108	 sub         x8,x8,x9
  000f8	92400508	 and         x8,x8,#3
  000fc	91004109	 add         x9,x8,#0x10
  00100	f94003e8	 ldr         x8,[sp]
  00104	8b090108	 add         x8,x8,x9
  00108	f90003e8	 str         x8,[sp]
  0010c	f94003e8	 ldr         x8,[sp]
  00110	d1004108	 sub         x8,x8,#0x10
  00114	91001108	 add         x8,x8,#4
  00118	b9400108	 ldr         w8,[x8]
  0011c	b9001be8	 str         w8,[sp,#0x18]

; 28   :   int f = va_arg (argv, struct not_short_vector_12_bytes).c;

  00120	d2800008	 mov         x8,#0
  00124	f94003e9	 ldr         x9,[sp]
  00128	cb090108	 sub         x8,x8,x9
  0012c	92400508	 and         x8,x8,#3
  00130	91004109	 add         x9,x8,#0x10
  00134	f94003e8	 ldr         x8,[sp]
  00138	8b090108	 add         x8,x8,x9
  0013c	f90003e8	 str         x8,[sp]
  00140	f94003e8	 ldr         x8,[sp]
  00144	d1004108	 sub         x8,x8,#0x10
  00148	91002108	 add         x8,x8,#8
  0014c	b9400108	 ldr         w8,[x8]
  00150	b9001fe8	 str         w8,[sp,#0x1C]

; 29   :   int g = va_arg (argv, struct not_short_vector_12_bytes).a;

  00154	d2800008	 mov         x8,#0
  00158	f94003e9	 ldr         x9,[sp]
  0015c	cb090108	 sub         x8,x8,x9
  00160	92400508	 and         x8,x8,#3
  00164	91004109	 add         x9,x8,#0x10
  00168	f94003e8	 ldr         x8,[sp]
  0016c	8b090108	 add         x8,x8,x9
  00170	f90003e8	 str         x8,[sp]
  00174	f94003e8	 ldr         x8,[sp]
  00178	d1004108	 sub         x8,x8,#0x10
  0017c	b9400108	 ldr         w8,[x8]
  00180	b90023e8	 str         w8,[sp,#0x20]

; 30   :   int h = va_arg (argv, struct not_short_vector_12_bytes).b;

  00184	d2800008	 mov         x8,#0
  00188	f94003e9	 ldr         x9,[sp]
  0018c	cb090108	 sub         x8,x8,x9
  00190	92400508	 and         x8,x8,#3
  00194	91004109	 add         x9,x8,#0x10
  00198	f94003e8	 ldr         x8,[sp]
  0019c	8b090108	 add         x8,x8,x9
  001a0	f90003e8	 str         x8,[sp]
  001a4	f94003e8	 ldr         x8,[sp]
  001a8	d1004108	 sub         x8,x8,#0x10
  001ac	91001108	 add         x8,x8,#4
  001b0	b9400108	 ldr         w8,[x8]
  001b4	b90027e8	 str         w8,[sp,#0x24]

; 31   :   int i = va_arg (argv, struct not_short_vector_12_bytes).c;

  001b8	d2800008	 mov         x8,#0
  001bc	f94003e9	 ldr         x9,[sp]
  001c0	cb090108	 sub         x8,x8,x9
  001c4	92400508	 and         x8,x8,#3
  001c8	91004109	 add         x9,x8,#0x10
  001cc	f94003e8	 ldr         x8,[sp]
  001d0	8b090108	 add         x8,x8,x9
  001d4	f90003e8	 str         x8,[sp]
  001d8	f94003e8	 ldr         x8,[sp]
  001dc	d1004108	 sub         x8,x8,#0x10
  001e0	91002108	 add         x8,x8,#8
  001e4	b9400108	 ldr         w8,[x8]
  001e8	b9002be8	 str         w8,[sp,#0x28]

; 32   :   va_end (argv);

  001ec	d2800008	 mov         x8,#0
  001f0	f90003e8	 str         x8,[sp]

; 33   :   return a + b + c + d + e + f + g + h + i;

  001f4	b9400be8	 ldr         w8,[sp,#8]
  001f8	b9400fe9	 ldr         w9,[sp,#0xC]
  001fc	0b090108	 add         w8,w8,w9
  00200	b94013e9	 ldr         w9,[sp,#0x10]
  00204	0b090108	 add         w8,w8,w9
  00208	b94017e9	 ldr         w9,[sp,#0x14]
  0020c	0b090108	 add         w8,w8,w9
  00210	b9401be9	 ldr         w9,[sp,#0x18]
  00214	0b090108	 add         w8,w8,w9
  00218	b9401fe9	 ldr         w9,[sp,#0x1C]
  0021c	0b090108	 add         w8,w8,w9
  00220	b94023e9	 ldr         w9,[sp,#0x20]
  00224	0b090108	 add         w8,w8,w9
  00228	b94027e9	 ldr         w9,[sp,#0x24]
  0022c	0b090108	 add         w8,w8,w9
  00230	b9402be9	 ldr         w9,[sp,#0x28]
  00234	0b090100	 add         w0,w8,w9
  00238	2a0003e0	 mov         w0,w0
  0023c	910103ff	 add         sp,sp,#0x40
  00240	910103ff	 add         sp,sp,#0x40
  00244	d65f03c0	 ret

			 ENDP  ; |use_va_args|

	END
