; Listing generated by Microsoft (R) Optimizing Compiler Version 19.41.34120.0 

	TTL	W:\home\blachex\mingw-woarm64-build\vararg\vararg-dll-msvc.obj
	;ARM64

	AREA	|.drectve|, DRECTVE

	EXPORT	|no_arguments|
	EXPORT	|one_int_argument|
	EXPORT	|one_string_argument|
	EXPORT	|sixteen_int_arguments|
	EXPORT	|sixteen_string_arguments|

	AREA	|.pdata|, PDATA
|$pdata$no_arguments| DCD |$LN3|
	DCD	0x800011
	;Flags[SingleProEpi] functionLength[16] RegF[0] RegI[0] H[0] frameChainReturn[UnChained] frameSize[16]
|$pdata$one_int_argument| DCD |$LN3|
	DCD	|$unwind$one_int_argument|
|$pdata$one_string_argument| DCD |$LN3|
	DCD	|$unwind$one_string_argument|
|$pdata$sixteen_int_arguments| DCD |$LN3|
	DCD	|$unwind$sixteen_int_arguments|
|$pdata$sixteen_string_arguments| DCD |$LN3|
	DCD	|$unwind$sixteen_string_arguments|

	AREA	|.xdata|, DATA
|$unwind$one_int_argument| DCD 0x19e0001b
	DCD	0xe3e3e302
	DCD	0x2e404e3
	DCD	0xe3e3e404
	;Code Words[3], Epilog Start Index[7], E[1], X[0], Function Length[27]=108 bytes
	;alloc_s
	;nop
	;nop
	;nop
	;nop
	;alloc_s
	;end
	;alloc_s
	;alloc_s
	;end
	;nop
	;nop
|$unwind$one_string_argument| DCD 0x19e0001b
	DCD	0xe3e3e302
	DCD	0x2e404e3
	DCD	0xe3e3e404
	;Code Words[3], Epilog Start Index[7], E[1], X[0], Function Length[27]=108 bytes
	;alloc_s
	;nop
	;nop
	;nop
	;nop
	;alloc_s
	;end
	;alloc_s
	;alloc_s
	;end
	;nop
	;nop
|$unwind$sixteen_int_arguments| DCD 0x19e000ee
	DCD	0xe3e3e305
	DCD	0x5e404e3
	DCD	0xe3e3e404
	;Code Words[3], Epilog Start Index[7], E[1], X[0], Function Length[238]=952 bytes
	;alloc_s
	;nop
	;nop
	;nop
	;nop
	;alloc_s
	;end
	;alloc_s
	;alloc_s
	;end
	;nop
	;nop
|$unwind$sixteen_string_arguments| DCD 0x19e000cf
	DCD	0xe3e3e309
	DCD	0x9e404e3
	DCD	0xe3e3e404
	;Code Words[3], Epilog Start Index[7], E[1], X[0], Function Length[207]=828 bytes
	;alloc_s
	;nop
	;nop
	;nop
	;nop
	;alloc_s
	;end
	;alloc_s
	;alloc_s
	;end
	;nop
	;nop
; Function compile flags: /Odtp
; File W:\home\blachex\mingw-woarm64-build\vararg\vararg-dll.c

	AREA	|.text$mn|, CODE, ARM64

  00000		 |sixteen_string_arguments| PROC

; 68   : {

  00000		 |$LN3|
  00000	d10103ff	 sub         sp,sp,#0x40
  00004	a9008be1	 stp         x1,x2,[sp,#8]
  00008	a90193e3	 stp         x3,x4,[sp,#0x18]
  0000c	a9029be5	 stp         x5,x6,[sp,#0x28]
  00010	f9001fe7	 str         x7,[sp,#0x38]
  00014	d10243ff	 sub         sp,sp,#0x90
  00018	f9000be0	 str         x0,[sp,#0x10]

; 69   :   va_list argv;
; 70   :   va_start (argv, format);

  0001c	910263e8	 add         x8,sp,#0x98
  00020	f90003e8	 str         x8,[sp]

; 71   :   const char *a = va_arg (argv, const char *);

  00024	d2800008	 mov         x8,#0
  00028	f94003e9	 ldr         x9,[sp]
  0002c	cb090108	 sub         x8,x8,x9
  00030	92400908	 and         x8,x8,#7
  00034	91002109	 add         x9,x8,#8
  00038	f94003e8	 ldr         x8,[sp]
  0003c	8b090108	 add         x8,x8,x9
  00040	f90003e8	 str         x8,[sp]
  00044	f94003e8	 ldr         x8,[sp]
  00048	d1002108	 sub         x8,x8,#8
  0004c	f9400108	 ldr         x8,[x8]
  00050	f9000fe8	 str         x8,[sp,#0x18]

; 72   :   const char *b = va_arg (argv, const char *);

  00054	d2800008	 mov         x8,#0
  00058	f94003e9	 ldr         x9,[sp]
  0005c	cb090108	 sub         x8,x8,x9
  00060	92400908	 and         x8,x8,#7
  00064	91002109	 add         x9,x8,#8
  00068	f94003e8	 ldr         x8,[sp]
  0006c	8b090108	 add         x8,x8,x9
  00070	f90003e8	 str         x8,[sp]
  00074	f94003e8	 ldr         x8,[sp]
  00078	d1002108	 sub         x8,x8,#8
  0007c	f9400108	 ldr         x8,[x8]
  00080	f90013e8	 str         x8,[sp,#0x20]

; 73   :   const char *c = va_arg (argv, const char *);

  00084	d2800008	 mov         x8,#0
  00088	f94003e9	 ldr         x9,[sp]
  0008c	cb090108	 sub         x8,x8,x9
  00090	92400908	 and         x8,x8,#7
  00094	91002109	 add         x9,x8,#8
  00098	f94003e8	 ldr         x8,[sp]
  0009c	8b090108	 add         x8,x8,x9
  000a0	f90003e8	 str         x8,[sp]
  000a4	f94003e8	 ldr         x8,[sp]
  000a8	d1002108	 sub         x8,x8,#8
  000ac	f9400108	 ldr         x8,[x8]
  000b0	f90017e8	 str         x8,[sp,#0x28]

; 74   :   const char *d = va_arg (argv, const char *);

  000b4	d2800008	 mov         x8,#0
  000b8	f94003e9	 ldr         x9,[sp]
  000bc	cb090108	 sub         x8,x8,x9
  000c0	92400908	 and         x8,x8,#7
  000c4	91002109	 add         x9,x8,#8
  000c8	f94003e8	 ldr         x8,[sp]
  000cc	8b090108	 add         x8,x8,x9
  000d0	f90003e8	 str         x8,[sp]
  000d4	f94003e8	 ldr         x8,[sp]
  000d8	d1002108	 sub         x8,x8,#8
  000dc	f9400108	 ldr         x8,[x8]
  000e0	f9001be8	 str         x8,[sp,#0x30]

; 75   :   const char *e = va_arg (argv, const char *);

  000e4	d2800008	 mov         x8,#0
  000e8	f94003e9	 ldr         x9,[sp]
  000ec	cb090108	 sub         x8,x8,x9
  000f0	92400908	 and         x8,x8,#7
  000f4	91002109	 add         x9,x8,#8
  000f8	f94003e8	 ldr         x8,[sp]
  000fc	8b090108	 add         x8,x8,x9
  00100	f90003e8	 str         x8,[sp]
  00104	f94003e8	 ldr         x8,[sp]
  00108	d1002108	 sub         x8,x8,#8
  0010c	f9400108	 ldr         x8,[x8]
  00110	f9001fe8	 str         x8,[sp,#0x38]

; 76   :   const char *f = va_arg (argv, const char *);

  00114	d2800008	 mov         x8,#0
  00118	f94003e9	 ldr         x9,[sp]
  0011c	cb090108	 sub         x8,x8,x9
  00120	92400908	 and         x8,x8,#7
  00124	91002109	 add         x9,x8,#8
  00128	f94003e8	 ldr         x8,[sp]
  0012c	8b090108	 add         x8,x8,x9
  00130	f90003e8	 str         x8,[sp]
  00134	f94003e8	 ldr         x8,[sp]
  00138	d1002108	 sub         x8,x8,#8
  0013c	f9400108	 ldr         x8,[x8]
  00140	f90023e8	 str         x8,[sp,#0x40]

; 77   :   const char *g = va_arg (argv, const char *);

  00144	d2800008	 mov         x8,#0
  00148	f94003e9	 ldr         x9,[sp]
  0014c	cb090108	 sub         x8,x8,x9
  00150	92400908	 and         x8,x8,#7
  00154	91002109	 add         x9,x8,#8
  00158	f94003e8	 ldr         x8,[sp]
  0015c	8b090108	 add         x8,x8,x9
  00160	f90003e8	 str         x8,[sp]
  00164	f94003e8	 ldr         x8,[sp]
  00168	d1002108	 sub         x8,x8,#8
  0016c	f9400108	 ldr         x8,[x8]
  00170	f90027e8	 str         x8,[sp,#0x48]

; 78   :   const char *h = va_arg (argv, const char *);

  00174	d2800008	 mov         x8,#0
  00178	f94003e9	 ldr         x9,[sp]
  0017c	cb090108	 sub         x8,x8,x9
  00180	92400908	 and         x8,x8,#7
  00184	91002109	 add         x9,x8,#8
  00188	f94003e8	 ldr         x8,[sp]
  0018c	8b090108	 add         x8,x8,x9
  00190	f90003e8	 str         x8,[sp]
  00194	f94003e8	 ldr         x8,[sp]
  00198	d1002108	 sub         x8,x8,#8
  0019c	f9400108	 ldr         x8,[x8]
  001a0	f9002be8	 str         x8,[sp,#0x50]

; 79   :   const char *i = va_arg (argv, const char *);

  001a4	d2800008	 mov         x8,#0
  001a8	f94003e9	 ldr         x9,[sp]
  001ac	cb090108	 sub         x8,x8,x9
  001b0	92400908	 and         x8,x8,#7
  001b4	91002109	 add         x9,x8,#8
  001b8	f94003e8	 ldr         x8,[sp]
  001bc	8b090108	 add         x8,x8,x9
  001c0	f90003e8	 str         x8,[sp]
  001c4	f94003e8	 ldr         x8,[sp]
  001c8	d1002108	 sub         x8,x8,#8
  001cc	f9400108	 ldr         x8,[x8]
  001d0	f9002fe8	 str         x8,[sp,#0x58]

; 80   :   const char *j = va_arg (argv, const char *);

  001d4	d2800008	 mov         x8,#0
  001d8	f94003e9	 ldr         x9,[sp]
  001dc	cb090108	 sub         x8,x8,x9
  001e0	92400908	 and         x8,x8,#7
  001e4	91002109	 add         x9,x8,#8
  001e8	f94003e8	 ldr         x8,[sp]
  001ec	8b090108	 add         x8,x8,x9
  001f0	f90003e8	 str         x8,[sp]
  001f4	f94003e8	 ldr         x8,[sp]
  001f8	d1002108	 sub         x8,x8,#8
  001fc	f9400108	 ldr         x8,[x8]
  00200	f90033e8	 str         x8,[sp,#0x60]

; 81   :   const char *k = va_arg (argv, const char *);

  00204	d2800008	 mov         x8,#0
  00208	f94003e9	 ldr         x9,[sp]
  0020c	cb090108	 sub         x8,x8,x9
  00210	92400908	 and         x8,x8,#7
  00214	91002109	 add         x9,x8,#8
  00218	f94003e8	 ldr         x8,[sp]
  0021c	8b090108	 add         x8,x8,x9
  00220	f90003e8	 str         x8,[sp]
  00224	f94003e8	 ldr         x8,[sp]
  00228	d1002108	 sub         x8,x8,#8
  0022c	f9400108	 ldr         x8,[x8]
  00230	f90037e8	 str         x8,[sp,#0x68]

; 82   :   const char *l = va_arg (argv, const char *);

  00234	d2800008	 mov         x8,#0
  00238	f94003e9	 ldr         x9,[sp]
  0023c	cb090108	 sub         x8,x8,x9
  00240	92400908	 and         x8,x8,#7
  00244	91002109	 add         x9,x8,#8
  00248	f94003e8	 ldr         x8,[sp]
  0024c	8b090108	 add         x8,x8,x9
  00250	f90003e8	 str         x8,[sp]
  00254	f94003e8	 ldr         x8,[sp]
  00258	d1002108	 sub         x8,x8,#8
  0025c	f9400108	 ldr         x8,[x8]
  00260	f9003be8	 str         x8,[sp,#0x70]

; 83   :   const char *m = va_arg (argv, const char *);

  00264	d2800008	 mov         x8,#0
  00268	f94003e9	 ldr         x9,[sp]
  0026c	cb090108	 sub         x8,x8,x9
  00270	92400908	 and         x8,x8,#7
  00274	91002109	 add         x9,x8,#8
  00278	f94003e8	 ldr         x8,[sp]
  0027c	8b090108	 add         x8,x8,x9
  00280	f90003e8	 str         x8,[sp]
  00284	f94003e8	 ldr         x8,[sp]
  00288	d1002108	 sub         x8,x8,#8
  0028c	f9400108	 ldr         x8,[x8]
  00290	f9003fe8	 str         x8,[sp,#0x78]

; 84   :   const char *n = va_arg (argv, const char *);

  00294	d2800008	 mov         x8,#0
  00298	f94003e9	 ldr         x9,[sp]
  0029c	cb090108	 sub         x8,x8,x9
  002a0	92400908	 and         x8,x8,#7
  002a4	91002109	 add         x9,x8,#8
  002a8	f94003e8	 ldr         x8,[sp]
  002ac	8b090108	 add         x8,x8,x9
  002b0	f90003e8	 str         x8,[sp]
  002b4	f94003e8	 ldr         x8,[sp]
  002b8	d1002108	 sub         x8,x8,#8
  002bc	f9400108	 ldr         x8,[x8]
  002c0	f90043e8	 str         x8,[sp,#0x80]

; 85   :   const char *o = va_arg (argv, const char *);

  002c4	d2800008	 mov         x8,#0
  002c8	f94003e9	 ldr         x9,[sp]
  002cc	cb090108	 sub         x8,x8,x9
  002d0	92400908	 and         x8,x8,#7
  002d4	91002109	 add         x9,x8,#8
  002d8	f94003e8	 ldr         x8,[sp]
  002dc	8b090108	 add         x8,x8,x9
  002e0	f90003e8	 str         x8,[sp]
  002e4	f94003e8	 ldr         x8,[sp]
  002e8	d1002108	 sub         x8,x8,#8
  002ec	f9400108	 ldr         x8,[x8]
  002f0	f90047e8	 str         x8,[sp,#0x88]

; 86   :   const char *p = va_arg (argv, const char *);

  002f4	d2800008	 mov         x8,#0
  002f8	f94003e9	 ldr         x9,[sp]
  002fc	cb090108	 sub         x8,x8,x9
  00300	92400908	 and         x8,x8,#7
  00304	91002109	 add         x9,x8,#8
  00308	f94003e8	 ldr         x8,[sp]
  0030c	8b090108	 add         x8,x8,x9
  00310	f90003e8	 str         x8,[sp]
  00314	f94003e8	 ldr         x8,[sp]
  00318	d1002108	 sub         x8,x8,#8
  0031c	f9400108	 ldr         x8,[x8]
  00320	f90007e8	 str         x8,[sp,#8]

; 87   :   va_end (argv);

  00324	d2800008	 mov         x8,#0
  00328	f90003e8	 str         x8,[sp]

; 88   :   return p;

  0032c	f94007e0	 ldr         x0,[sp,#8]
  00330	910243ff	 add         sp,sp,#0x90
  00334	910103ff	 add         sp,sp,#0x40
  00338	d65f03c0	 ret

			 ENDP  ; |sixteen_string_arguments|

; Function compile flags: /Odtp
; File W:\home\blachex\mingw-woarm64-build\vararg\vararg-dll.c

	AREA	|.text$mn|, CODE, ARM64

  00000		 |sixteen_int_arguments| PROC

; 43   : {

  00000		 |$LN3|
  00000	d10103ff	 sub         sp,sp,#0x40
  00004	a9008be1	 stp         x1,x2,[sp,#8]
  00008	a90193e3	 stp         x3,x4,[sp,#0x18]
  0000c	a9029be5	 stp         x5,x6,[sp,#0x28]
  00010	f9001fe7	 str         x7,[sp,#0x38]
  00014	d10143ff	 sub         sp,sp,#0x50
  00018	f90027e0	 str         x0,[sp,#0x48]

; 44   :   va_list argv;
; 45   :   va_start (argv, format);

  0001c	910163e8	 add         x8,sp,#0x58
  00020	f90003e8	 str         x8,[sp]

; 46   :   int a = va_arg (argv, int);

  00024	d2800008	 mov         x8,#0
  00028	f94003e9	 ldr         x9,[sp]
  0002c	cb090108	 sub         x8,x8,x9
  00030	92400508	 and         x8,x8,#3
  00034	91002109	 add         x9,x8,#8
  00038	f94003e8	 ldr         x8,[sp]
  0003c	8b090108	 add         x8,x8,x9
  00040	f90003e8	 str         x8,[sp]
  00044	f94003e8	 ldr         x8,[sp]
  00048	d1002108	 sub         x8,x8,#8
  0004c	b9400108	 ldr         w8,[x8]
  00050	b9000be8	 str         w8,[sp,#8]

; 47   :   int b = va_arg (argv, int);

  00054	d2800008	 mov         x8,#0
  00058	f94003e9	 ldr         x9,[sp]
  0005c	cb090108	 sub         x8,x8,x9
  00060	92400508	 and         x8,x8,#3
  00064	91002109	 add         x9,x8,#8
  00068	f94003e8	 ldr         x8,[sp]
  0006c	8b090108	 add         x8,x8,x9
  00070	f90003e8	 str         x8,[sp]
  00074	f94003e8	 ldr         x8,[sp]
  00078	d1002108	 sub         x8,x8,#8
  0007c	b9400108	 ldr         w8,[x8]
  00080	b9000fe8	 str         w8,[sp,#0xC]

; 48   :   int c = va_arg (argv, int);

  00084	d2800008	 mov         x8,#0
  00088	f94003e9	 ldr         x9,[sp]
  0008c	cb090108	 sub         x8,x8,x9
  00090	92400508	 and         x8,x8,#3
  00094	91002109	 add         x9,x8,#8
  00098	f94003e8	 ldr         x8,[sp]
  0009c	8b090108	 add         x8,x8,x9
  000a0	f90003e8	 str         x8,[sp]
  000a4	f94003e8	 ldr         x8,[sp]
  000a8	d1002108	 sub         x8,x8,#8
  000ac	b9400108	 ldr         w8,[x8]
  000b0	b90013e8	 str         w8,[sp,#0x10]

; 49   :   int d = va_arg (argv, int);

  000b4	d2800008	 mov         x8,#0
  000b8	f94003e9	 ldr         x9,[sp]
  000bc	cb090108	 sub         x8,x8,x9
  000c0	92400508	 and         x8,x8,#3
  000c4	91002109	 add         x9,x8,#8
  000c8	f94003e8	 ldr         x8,[sp]
  000cc	8b090108	 add         x8,x8,x9
  000d0	f90003e8	 str         x8,[sp]
  000d4	f94003e8	 ldr         x8,[sp]
  000d8	d1002108	 sub         x8,x8,#8
  000dc	b9400108	 ldr         w8,[x8]
  000e0	b90017e8	 str         w8,[sp,#0x14]

; 50   :   int e = va_arg (argv, int);

  000e4	d2800008	 mov         x8,#0
  000e8	f94003e9	 ldr         x9,[sp]
  000ec	cb090108	 sub         x8,x8,x9
  000f0	92400508	 and         x8,x8,#3
  000f4	91002109	 add         x9,x8,#8
  000f8	f94003e8	 ldr         x8,[sp]
  000fc	8b090108	 add         x8,x8,x9
  00100	f90003e8	 str         x8,[sp]
  00104	f94003e8	 ldr         x8,[sp]
  00108	d1002108	 sub         x8,x8,#8
  0010c	b9400108	 ldr         w8,[x8]
  00110	b9001be8	 str         w8,[sp,#0x18]

; 51   :   int f = va_arg (argv, int);

  00114	d2800008	 mov         x8,#0
  00118	f94003e9	 ldr         x9,[sp]
  0011c	cb090108	 sub         x8,x8,x9
  00120	92400508	 and         x8,x8,#3
  00124	91002109	 add         x9,x8,#8
  00128	f94003e8	 ldr         x8,[sp]
  0012c	8b090108	 add         x8,x8,x9
  00130	f90003e8	 str         x8,[sp]
  00134	f94003e8	 ldr         x8,[sp]
  00138	d1002108	 sub         x8,x8,#8
  0013c	b9400108	 ldr         w8,[x8]
  00140	b9001fe8	 str         w8,[sp,#0x1C]

; 52   :   int g = va_arg (argv, int);

  00144	d2800008	 mov         x8,#0
  00148	f94003e9	 ldr         x9,[sp]
  0014c	cb090108	 sub         x8,x8,x9
  00150	92400508	 and         x8,x8,#3
  00154	91002109	 add         x9,x8,#8
  00158	f94003e8	 ldr         x8,[sp]
  0015c	8b090108	 add         x8,x8,x9
  00160	f90003e8	 str         x8,[sp]
  00164	f94003e8	 ldr         x8,[sp]
  00168	d1002108	 sub         x8,x8,#8
  0016c	b9400108	 ldr         w8,[x8]
  00170	b90023e8	 str         w8,[sp,#0x20]

; 53   :   int h = va_arg (argv, int);

  00174	d2800008	 mov         x8,#0
  00178	f94003e9	 ldr         x9,[sp]
  0017c	cb090108	 sub         x8,x8,x9
  00180	92400508	 and         x8,x8,#3
  00184	91002109	 add         x9,x8,#8
  00188	f94003e8	 ldr         x8,[sp]
  0018c	8b090108	 add         x8,x8,x9
  00190	f90003e8	 str         x8,[sp]
  00194	f94003e8	 ldr         x8,[sp]
  00198	d1002108	 sub         x8,x8,#8
  0019c	b9400108	 ldr         w8,[x8]
  001a0	b90027e8	 str         w8,[sp,#0x24]

; 54   :   int i = va_arg (argv, int);

  001a4	d2800008	 mov         x8,#0
  001a8	f94003e9	 ldr         x9,[sp]
  001ac	cb090108	 sub         x8,x8,x9
  001b0	92400508	 and         x8,x8,#3
  001b4	91002109	 add         x9,x8,#8
  001b8	f94003e8	 ldr         x8,[sp]
  001bc	8b090108	 add         x8,x8,x9
  001c0	f90003e8	 str         x8,[sp]
  001c4	f94003e8	 ldr         x8,[sp]
  001c8	d1002108	 sub         x8,x8,#8
  001cc	b9400108	 ldr         w8,[x8]
  001d0	b9002be8	 str         w8,[sp,#0x28]

; 55   :   int j = va_arg (argv, int);

  001d4	d2800008	 mov         x8,#0
  001d8	f94003e9	 ldr         x9,[sp]
  001dc	cb090108	 sub         x8,x8,x9
  001e0	92400508	 and         x8,x8,#3
  001e4	91002109	 add         x9,x8,#8
  001e8	f94003e8	 ldr         x8,[sp]
  001ec	8b090108	 add         x8,x8,x9
  001f0	f90003e8	 str         x8,[sp]
  001f4	f94003e8	 ldr         x8,[sp]
  001f8	d1002108	 sub         x8,x8,#8
  001fc	b9400108	 ldr         w8,[x8]
  00200	b9002fe8	 str         w8,[sp,#0x2C]

; 56   :   int k = va_arg (argv, int);

  00204	d2800008	 mov         x8,#0
  00208	f94003e9	 ldr         x9,[sp]
  0020c	cb090108	 sub         x8,x8,x9
  00210	92400508	 and         x8,x8,#3
  00214	91002109	 add         x9,x8,#8
  00218	f94003e8	 ldr         x8,[sp]
  0021c	8b090108	 add         x8,x8,x9
  00220	f90003e8	 str         x8,[sp]
  00224	f94003e8	 ldr         x8,[sp]
  00228	d1002108	 sub         x8,x8,#8
  0022c	b9400108	 ldr         w8,[x8]
  00230	b90033e8	 str         w8,[sp,#0x30]

; 57   :   int l = va_arg (argv, int);

  00234	d2800008	 mov         x8,#0
  00238	f94003e9	 ldr         x9,[sp]
  0023c	cb090108	 sub         x8,x8,x9
  00240	92400508	 and         x8,x8,#3
  00244	91002109	 add         x9,x8,#8
  00248	f94003e8	 ldr         x8,[sp]
  0024c	8b090108	 add         x8,x8,x9
  00250	f90003e8	 str         x8,[sp]
  00254	f94003e8	 ldr         x8,[sp]
  00258	d1002108	 sub         x8,x8,#8
  0025c	b9400108	 ldr         w8,[x8]
  00260	b90037e8	 str         w8,[sp,#0x34]

; 58   :   int m = va_arg (argv, int);

  00264	d2800008	 mov         x8,#0
  00268	f94003e9	 ldr         x9,[sp]
  0026c	cb090108	 sub         x8,x8,x9
  00270	92400508	 and         x8,x8,#3
  00274	91002109	 add         x9,x8,#8
  00278	f94003e8	 ldr         x8,[sp]
  0027c	8b090108	 add         x8,x8,x9
  00280	f90003e8	 str         x8,[sp]
  00284	f94003e8	 ldr         x8,[sp]
  00288	d1002108	 sub         x8,x8,#8
  0028c	b9400108	 ldr         w8,[x8]
  00290	b9003be8	 str         w8,[sp,#0x38]

; 59   :   int n = va_arg (argv, int);

  00294	d2800008	 mov         x8,#0
  00298	f94003e9	 ldr         x9,[sp]
  0029c	cb090108	 sub         x8,x8,x9
  002a0	92400508	 and         x8,x8,#3
  002a4	91002109	 add         x9,x8,#8
  002a8	f94003e8	 ldr         x8,[sp]
  002ac	8b090108	 add         x8,x8,x9
  002b0	f90003e8	 str         x8,[sp]
  002b4	f94003e8	 ldr         x8,[sp]
  002b8	d1002108	 sub         x8,x8,#8
  002bc	b9400108	 ldr         w8,[x8]
  002c0	b9003fe8	 str         w8,[sp,#0x3C]

; 60   :   int o = va_arg (argv, int);

  002c4	d2800008	 mov         x8,#0
  002c8	f94003e9	 ldr         x9,[sp]
  002cc	cb090108	 sub         x8,x8,x9
  002d0	92400508	 and         x8,x8,#3
  002d4	91002109	 add         x9,x8,#8
  002d8	f94003e8	 ldr         x8,[sp]
  002dc	8b090108	 add         x8,x8,x9
  002e0	f90003e8	 str         x8,[sp]
  002e4	f94003e8	 ldr         x8,[sp]
  002e8	d1002108	 sub         x8,x8,#8
  002ec	b9400108	 ldr         w8,[x8]
  002f0	b90043e8	 str         w8,[sp,#0x40]

; 61   :   int p = va_arg (argv, int);

  002f4	d2800008	 mov         x8,#0
  002f8	f94003e9	 ldr         x9,[sp]
  002fc	cb090108	 sub         x8,x8,x9
  00300	92400508	 and         x8,x8,#3
  00304	91002109	 add         x9,x8,#8
  00308	f94003e8	 ldr         x8,[sp]
  0030c	8b090108	 add         x8,x8,x9
  00310	f90003e8	 str         x8,[sp]
  00314	f94003e8	 ldr         x8,[sp]
  00318	d1002108	 sub         x8,x8,#8
  0031c	b9400108	 ldr         w8,[x8]
  00320	b90047e8	 str         w8,[sp,#0x44]

; 62   :   va_end (argv);

  00324	d2800008	 mov         x8,#0
  00328	f90003e8	 str         x8,[sp]

; 63   :   return a + b + c + d + e + f + g + h + i + j + k + l + m + n + o + p;

  0032c	b9400be8	 ldr         w8,[sp,#8]
  00330	b9400fe9	 ldr         w9,[sp,#0xC]
  00334	0b090108	 add         w8,w8,w9
  00338	b94013e9	 ldr         w9,[sp,#0x10]
  0033c	0b090108	 add         w8,w8,w9
  00340	b94017e9	 ldr         w9,[sp,#0x14]
  00344	0b090108	 add         w8,w8,w9
  00348	b9401be9	 ldr         w9,[sp,#0x18]
  0034c	0b090108	 add         w8,w8,w9
  00350	b9401fe9	 ldr         w9,[sp,#0x1C]
  00354	0b090108	 add         w8,w8,w9
  00358	b94023e9	 ldr         w9,[sp,#0x20]
  0035c	0b090108	 add         w8,w8,w9
  00360	b94027e9	 ldr         w9,[sp,#0x24]
  00364	0b090108	 add         w8,w8,w9
  00368	b9402be9	 ldr         w9,[sp,#0x28]
  0036c	0b090108	 add         w8,w8,w9
  00370	b9402fe9	 ldr         w9,[sp,#0x2C]
  00374	0b090108	 add         w8,w8,w9
  00378	b94033e9	 ldr         w9,[sp,#0x30]
  0037c	0b090108	 add         w8,w8,w9
  00380	b94037e9	 ldr         w9,[sp,#0x34]
  00384	0b090108	 add         w8,w8,w9
  00388	b9403be9	 ldr         w9,[sp,#0x38]
  0038c	0b090108	 add         w8,w8,w9
  00390	b9403fe9	 ldr         w9,[sp,#0x3C]
  00394	0b090108	 add         w8,w8,w9
  00398	b94043e9	 ldr         w9,[sp,#0x40]
  0039c	0b090108	 add         w8,w8,w9
  003a0	b94047e9	 ldr         w9,[sp,#0x44]
  003a4	0b090100	 add         w0,w8,w9
  003a8	2a0003e0	 mov         w0,w0
  003ac	910143ff	 add         sp,sp,#0x50
  003b0	910103ff	 add         sp,sp,#0x40
  003b4	d65f03c0	 ret

			 ENDP  ; |sixteen_int_arguments|

; Function compile flags: /Odtp
; File W:\home\blachex\mingw-woarm64-build\vararg\vararg-dll.c

	AREA	|.text$mn|, CODE, ARM64

  00000		 |one_string_argument| PROC

; 33   : {

  00000		 |$LN3|
  00000	d10103ff	 sub         sp,sp,#0x40
  00004	a9008be1	 stp         x1,x2,[sp,#8]
  00008	a90193e3	 stp         x3,x4,[sp,#0x18]
  0000c	a9029be5	 stp         x5,x6,[sp,#0x28]
  00010	f9001fe7	 str         x7,[sp,#0x38]
  00014	d10083ff	 sub         sp,sp,#0x20
  00018	f9000be0	 str         x0,[sp,#0x10]

; 34   :   va_list argv;
; 35   :   va_start (argv, format);

  0001c	9100a3e8	 add         x8,sp,#0x28
  00020	f90003e8	 str         x8,[sp]

; 36   :   const char *a = va_arg (argv, const char *);

  00024	d2800008	 mov         x8,#0
  00028	f94003e9	 ldr         x9,[sp]
  0002c	cb090108	 sub         x8,x8,x9
  00030	92400908	 and         x8,x8,#7
  00034	91002109	 add         x9,x8,#8
  00038	f94003e8	 ldr         x8,[sp]
  0003c	8b090108	 add         x8,x8,x9
  00040	f90003e8	 str         x8,[sp]
  00044	f94003e8	 ldr         x8,[sp]
  00048	d1002108	 sub         x8,x8,#8
  0004c	f9400108	 ldr         x8,[x8]
  00050	f90007e8	 str         x8,[sp,#8]

; 37   :   va_end (argv);

  00054	d2800008	 mov         x8,#0
  00058	f90003e8	 str         x8,[sp]

; 38   :   return a;

  0005c	f94007e0	 ldr         x0,[sp,#8]
  00060	910083ff	 add         sp,sp,#0x20
  00064	910103ff	 add         sp,sp,#0x40
  00068	d65f03c0	 ret

			 ENDP  ; |one_string_argument|

; Function compile flags: /Odtp
; File W:\home\blachex\mingw-woarm64-build\vararg\vararg-dll.c

	AREA	|.text$mn|, CODE, ARM64

  00000		 |one_int_argument| PROC

; 23   : {

  00000		 |$LN3|
  00000	d10103ff	 sub         sp,sp,#0x40
  00004	a9008be1	 stp         x1,x2,[sp,#8]
  00008	a90193e3	 stp         x3,x4,[sp,#0x18]
  0000c	a9029be5	 stp         x5,x6,[sp,#0x28]
  00010	f9001fe7	 str         x7,[sp,#0x38]
  00014	d10083ff	 sub         sp,sp,#0x20
  00018	f9000be0	 str         x0,[sp,#0x10]

; 24   :   va_list argv;
; 25   :   va_start (argv, format);

  0001c	9100a3e8	 add         x8,sp,#0x28
  00020	f90003e8	 str         x8,[sp]

; 26   :   const char *a = va_arg (argv, const char *);

  00024	d2800008	 mov         x8,#0
  00028	f94003e9	 ldr         x9,[sp]
  0002c	cb090108	 sub         x8,x8,x9
  00030	92400908	 and         x8,x8,#7
  00034	91002109	 add         x9,x8,#8
  00038	f94003e8	 ldr         x8,[sp]
  0003c	8b090108	 add         x8,x8,x9
  00040	f90003e8	 str         x8,[sp]
  00044	f94003e8	 ldr         x8,[sp]
  00048	d1002108	 sub         x8,x8,#8
  0004c	f9400108	 ldr         x8,[x8]
  00050	f90007e8	 str         x8,[sp,#8]

; 27   :   va_end (argv);

  00054	d2800008	 mov         x8,#0
  00058	f90003e8	 str         x8,[sp]

; 28   :   return a;

  0005c	f94007e0	 ldr         x0,[sp,#8]
  00060	910083ff	 add         sp,sp,#0x20
  00064	910103ff	 add         sp,sp,#0x40
  00068	d65f03c0	 ret

			 ENDP  ; |one_int_argument|

; Function compile flags: /Odtp
; File W:\home\blachex\mingw-woarm64-build\vararg\vararg-dll.c

	AREA	|.text$mn|, CODE, ARM64

  00000		 |no_arguments| PROC

; 18   : {

  00000		 |$LN3|
  00000	d10043ff	 sub         sp,sp,#0x10
  00004	f90003e0	 str         x0,[sp]
  00008	910043ff	 add         sp,sp,#0x10
  0000c	d65f03c0	 ret

			 ENDP  ; |no_arguments|

	END
