; Listing generated by Microsoft (R) Optimizing Compiler Version 19.41.34120.0 

	TTL	W:\home\blachex\mingw-woarm64-build\vararg\vararg-use-dll-msvc.obj
	;ARM64

	AREA	|.drectve|, DRECTVE

	EXPORT	|main|
	IMPORT	|_wassert|
	IMPORT	|__imp_no_arguments|
	IMPORT	|__imp_one_int_argument|
	IMPORT	|__imp_one_string_argument|
	IMPORT	|__imp_sixteen_int_arguments|
	IMPORT	|__imp_sixteen_string_arguments|

	AREA	|.pdata|, PDATA
|$pdata$main| DCD |$LN7|
	DCD	0x1600251
	;Flags[SingleProEpi] functionLength[592] RegF[0] RegI[0] H[0] frameChainReturn[Chained] frameSize[32]

	AREA	|.data|, DATA
|$SG3313| DCB	"test", 0xa, 0x0
	%	2
|$SG3314| DCB	"test: %d", 0xa, 0x0
	%	6
|$SG3315| DCB	"v", 0x0, "a", 0x0, "r", 0x0, "a", 0x0, "r", 0x0, "g", 0x0
	DCB	"-", 0x0, "u", 0x0, "s", 0x0, "e", 0x0, "-", 0x0, "d", 0x0
	DCB	"l", 0x0, "l", 0x0, ".", 0x0, "c", 0x0, 0x0, 0x0
	%	6
|$SG3316| DCB	"o", 0x0, "n", 0x0, "e", 0x0, "_", 0x0, "i", 0x0, "n", 0x0
	DCB	"t", 0x0, "_", 0x0, "a", 0x0, "r", 0x0, "g", 0x0, "u", 0x0
	DCB	"m", 0x0, "e", 0x0, "n", 0x0, "t", 0x0, " ", 0x0, "(", 0x0
	DCB	"""", 0x0, "t", 0x0, "e", 0x0, "s", 0x0, "t", 0x0, ":", 0x0
	DCB	" ", 0x0, "%", 0x0, "d", 0x0, "\\", 0x0, "n", 0x0, """", 0x0
	DCB	",", 0x0, " ", 0x0, "1", 0x0, "0", 0x0, "0", 0x0, ")", 0x0
	DCB	" ", 0x0, "=", 0x0, "=", 0x0, " ", 0x0, "1", 0x0, "0", 0x0
	DCB	"0", 0x0, 0x0, 0x0
|$SG3317| DCB	"test", 0x0
	%	3
|$SG3318| DCB	"test: %s", 0xa, 0x0
	%	2
|$SG3319| DCB	"test", 0x0
	%	7
|$SG3320| DCB	"v", 0x0, "a", 0x0, "r", 0x0, "a", 0x0, "r", 0x0, "g", 0x0
	DCB	"-", 0x0, "u", 0x0, "s", 0x0, "e", 0x0, "-", 0x0, "d", 0x0
	DCB	"l", 0x0, "l", 0x0, ".", 0x0, "c", 0x0, 0x0, 0x0
	%	6
|$SG3321| DCB	"o", 0x0, "n", 0x0, "e", 0x0, "_", 0x0, "s", 0x0, "t", 0x0
	DCB	"r", 0x0, "i", 0x0, "n", 0x0, "g", 0x0, "_", 0x0, "a", 0x0
	DCB	"r", 0x0, "g", 0x0, "u", 0x0, "m", 0x0, "e", 0x0, "n", 0x0
	DCB	"t", 0x0, " ", 0x0, "(", 0x0, """", 0x0, "t", 0x0, "e", 0x0
	DCB	"s", 0x0, "t", 0x0, ":", 0x0, " ", 0x0, "%", 0x0, "s", 0x0
	DCB	"\\", 0x0, "n", 0x0, """", 0x0, ",", 0x0, " ", 0x0, """", 0x0
	DCB	"t", 0x0, "e", 0x0, "s", 0x0, "t", 0x0, """", 0x0, ")", 0x0
	DCB	" ", 0x0, "=", 0x0, "=", 0x0, " ", 0x0, """", 0x0, "t", 0x0
	DCB	"e", 0x0, "s", 0x0, "t", 0x0, """", 0x0, 0x0, 0x0
	%	6
|$SG3322| DCB	"test: %d", 0xa, 0x0
	%	6
|$SG3323| DCB	"v", 0x0, "a", 0x0, "r", 0x0, "a", 0x0, "r", 0x0, "g", 0x0
	DCB	"-", 0x0, "u", 0x0, "s", 0x0, "e", 0x0, "-", 0x0, "d", 0x0
	DCB	"l", 0x0, "l", 0x0, ".", 0x0, "c", 0x0, 0x0, 0x0
	%	14
|$SG3324| DCB	"s", 0x0, "i", 0x0, "x", 0x0, "t", 0x0, "e", 0x0, "e", 0x0
	DCB	"n", 0x0, "_", 0x0, "i", 0x0, "n", 0x0, "t", 0x0, "_", 0x0
	DCB	"a", 0x0, "r", 0x0, "g", 0x0, "u", 0x0, "m", 0x0, "e", 0x0
	DCB	"n", 0x0, "t", 0x0, "s", 0x0, " ", 0x0, "(", 0x0, """", 0x0
	DCB	"t", 0x0, "e", 0x0, "s", 0x0, "t", 0x0, ":", 0x0, " ", 0x0
	DCB	"%", 0x0, "d", 0x0, "\\", 0x0, "n", 0x0, """", 0x0, ",", 0x0
	DCB	" ", 0x0, "1", 0x0, ",", 0x0, " ", 0x0, "2", 0x0, ",", 0x0
	DCB	" ", 0x0, "4", 0x0, ",", 0x0, " ", 0x0, "8", 0x0, ",", 0x0
	DCB	" ", 0x0, "1", 0x0, "6", 0x0, ",", 0x0, " ", 0x0, "3", 0x0
	DCB	"2", 0x0, ",", 0x0, " ", 0x0, "6", 0x0, "4", 0x0, ",", 0x0
	DCB	" ", 0x0, "1", 0x0, "2", 0x0, "8", 0x0, ",", 0x0, " ", 0x0
	DCB	"2", 0x0, "5", 0x0, "6", 0x0, ",", 0x0, " ", 0x0, "5", 0x0
	DCB	"1", 0x0, "2", 0x0, ",", 0x0, " ", 0x0, "1", 0x0, "0", 0x0
	DCB	"2", 0x0, "4", 0x0, ",", 0x0, " ", 0x0, "2", 0x0, "0", 0x0
	DCB	"4", 0x0, "8", 0x0, ",", 0x0, " ", 0x0, "4", 0x0, "0", 0x0
	DCB	"9", 0x0, "6", 0x0, ",", 0x0, " ", 0x0, "8", 0x0, "1", 0x0
	DCB	"9", 0x0, "2", 0x0, ",", 0x0, " ", 0x0, "1", 0x0, "6", 0x0
	DCB	"3", 0x0, "8", 0x0, "4", 0x0, ",", 0x0, " ", 0x0, "3", 0x0
	DCB	"2", 0x0, "7", 0x0, "6", 0x0, "8", 0x0, ")", 0x0, " ", 0x0
	DCB	"=", 0x0, "=", 0x0, " ", 0x0, "6", 0x0, "5", 0x0, "5", 0x0
	DCB	"3", 0x0, "5", 0x0, 0x0, 0x0
	%	2
|$SG3325| DCB	"p", 0x0
	%	2
|$SG3326| DCB	"o", 0x0
	%	2
|$SG3327| DCB	"n", 0x0
	%	2
|$SG3328| DCB	"m", 0x0
	%	2
|$SG3329| DCB	"l", 0x0
	%	2
|$SG3330| DCB	"k", 0x0
	%	2
|$SG3331| DCB	"j", 0x0
	%	2
|$SG3332| DCB	"i", 0x0
	%	2
|$SG3333| DCB	"h", 0x0
	%	2
|$SG3334| DCB	"g", 0x0
	%	2
|$SG3335| DCB	"f", 0x0
	%	2
|$SG3336| DCB	"e", 0x0
	%	2
|$SG3337| DCB	"d", 0x0
	%	2
|$SG3338| DCB	"c", 0x0
	%	2
|$SG3339| DCB	"b", 0x0
	%	2
|$SG3340| DCB	"a", 0x0
	%	2
|$SG3341| DCB	"test: %s", 0xa, 0x0
	%	2
|$SG3342| DCB	"p", 0x0
	%	2
|$SG3343| DCB	"v", 0x0, "a", 0x0, "r", 0x0, "a", 0x0, "r", 0x0, "g", 0x0
	DCB	"-", 0x0, "u", 0x0, "s", 0x0, "e", 0x0, "-", 0x0, "d", 0x0
	DCB	"l", 0x0, "l", 0x0, ".", 0x0, "c", 0x0, 0x0, 0x0
	%	6
|$SG3344| DCB	"s", 0x0, "i", 0x0, "x", 0x0, "t", 0x0, "e", 0x0, "e", 0x0
	DCB	"n", 0x0, "_", 0x0, "s", 0x0, "t", 0x0, "r", 0x0, "i", 0x0
	DCB	"n", 0x0, "g", 0x0, "_", 0x0, "a", 0x0, "r", 0x0, "g", 0x0
	DCB	"u", 0x0, "m", 0x0, "e", 0x0, "n", 0x0, "t", 0x0, "s", 0x0
	DCB	" ", 0x0, "(", 0x0, """", 0x0, "t", 0x0, "e", 0x0, "s", 0x0
	DCB	"t", 0x0, ":", 0x0, " ", 0x0, "%", 0x0, "s", 0x0, "\\", 0x0
	DCB	"n", 0x0, """", 0x0, ",", 0x0, " ", 0x0, """", 0x0, "a", 0x0
	DCB	"""", 0x0, ",", 0x0, " ", 0x0, """", 0x0, "b", 0x0, """", 0x0
	DCB	",", 0x0, " ", 0x0, """", 0x0, "c", 0x0, """", 0x0, ",", 0x0
	DCB	" ", 0x0, """", 0x0, "d", 0x0, """", 0x0, ",", 0x0, " ", 0x0
	DCB	"""", 0x0, "e", 0x0, """", 0x0, ",", 0x0, " ", 0x0, """", 0x0
	DCB	"f", 0x0, """", 0x0, ",", 0x0, " ", 0x0, """", 0x0, "g", 0x0
	DCB	"""", 0x0, ",", 0x0, " ", 0x0, """", 0x0, "h", 0x0, """", 0x0
	DCB	",", 0x0, " ", 0x0, """", 0x0, "i", 0x0, """", 0x0, ",", 0x0
	DCB	" ", 0x0, """", 0x0, "j", 0x0, """", 0x0, ",", 0x0, " ", 0x0
	DCB	"""", 0x0, "k", 0x0, """", 0x0, ",", 0x0, " ", 0x0, """", 0x0
	DCB	"l", 0x0, """", 0x0, ",", 0x0, " ", 0x0, """", 0x0, "m", 0x0
	DCB	"""", 0x0, ",", 0x0, " ", 0x0, """", 0x0, "n", 0x0, """", 0x0
	DCB	",", 0x0, " ", 0x0, """", 0x0, "o", 0x0, """", 0x0, ",", 0x0
	DCB	" ", 0x0, """", 0x0, "p", 0x0, """", 0x0, ")", 0x0, " ", 0x0
	DCB	"=", 0x0, "=", 0x0, " ", 0x0, """", 0x0, "p", 0x0, """", 0x0
	DCB	0x0, 0x0
; Function compile flags: /Odtp
; File W:\home\blachex\mingw-woarm64-build\vararg\vararg-use-dll.c

	AREA	|.text$mn|, CODE, ARM64

  00000		 |main|	 PROC

; 24   : {

  00000		 |$LN7|
  00000	a9be7bfd	 stp         fp,lr,[sp,#-0x20]!
  00004	910003fd	 mov         fp,sp
  00008	d10143ff	 sub         sp,sp,#0x50
  0000c	b90063e0	 str         w0,[sp,#0x60]
  00010	f90037e1	 str         x1,[sp,#0x68]

; 25   :   no_arguments ("test\n");

  00014	90000008	 adrp        x8,|$SG3313|
  00018	91000100	 add         x0,x8,|$SG3313|
  0001c	90000008	 adrp        x8,__imp_no_arguments
  00020	f9400108	 ldr         x8,[x8,__imp_no_arguments]
  00024	d63f0100	 blr         x8

; 26   :   assert (one_int_argument ("test: %d\n", 100) == 100);

  00028	52800c81	 mov         w1,#0x64
  0002c	90000008	 adrp        x8,|$SG3314|
  00030	91000100	 add         x0,x8,|$SG3314|
  00034	90000008	 adrp        x8,__imp_one_int_argument
  00038	f9400108	 ldr         x8,[x8,__imp_one_int_argument]
  0003c	d63f0100	 blr         x8
  00040	2a0003e8	 mov         w8,w0
  00044	7101911f	 cmp         w8,#0x64
  00048	54000000	 beq         |$LN3@main|
  0004c	52800342	 mov         w2,#0x1A
  00050	90000008	 adrp        x8,|$SG3315|
  00054	91000101	 add         x1,x8,|$SG3315|
  00058	90000008	 adrp        x8,|$SG3316|
  0005c	91000100	 add         x0,x8,|$SG3316|
  00060	94000000	 bl          _wassert
  00064	52800008	 mov         w8,#0
  00068		 |$LN3@main|

; 27   :   assert (one_string_argument ("test: %s\n", "test") == "test");

  00068	90000008	 adrp        x8,|$SG3317|
  0006c	91000101	 add         x1,x8,|$SG3317|
  00070	90000008	 adrp        x8,|$SG3318|
  00074	91000100	 add         x0,x8,|$SG3318|
  00078	90000008	 adrp        x8,__imp_one_string_argument
  0007c	f9400108	 ldr         x8,[x8,__imp_one_string_argument]
  00080	d63f0100	 blr         x8
  00084	aa0003e8	 mov         x8,x0
  00088	90000009	 adrp        x9,|$SG3319|
  0008c	91000129	 add         x9,x9,|$SG3319|
  00090	eb09011f	 cmp         x8,x9
  00094	54000000	 beq         |$LN4@main|
  00098	52800362	 mov         w2,#0x1B
  0009c	90000008	 adrp        x8,|$SG3320|
  000a0	91000101	 add         x1,x8,|$SG3320|
  000a4	90000008	 adrp        x8,|$SG3321|
  000a8	91000100	 add         x0,x8,|$SG3321|
  000ac	94000000	 bl          _wassert
  000b0	52800008	 mov         w8,#0
  000b4		 |$LN4@main|

; 28   :   assert (sixteen_int_arguments ("test: %d\n", 1, 2, 4, 8, 16, 32, 64, 128,

  000b4	52900008	 mov         w8,#0x8000
  000b8	b90043e8	 str         w8,[sp,#0x40]
  000bc	52880008	 mov         w8,#0x4000
  000c0	b9003be8	 str         w8,[sp,#0x38]
  000c4	52840008	 mov         w8,#0x2000
  000c8	b90033e8	 str         w8,[sp,#0x30]
  000cc	52820008	 mov         w8,#0x1000
  000d0	b9002be8	 str         w8,[sp,#0x28]
  000d4	52810008	 mov         w8,#0x800
  000d8	b90023e8	 str         w8,[sp,#0x20]
  000dc	52808008	 mov         w8,#0x400
  000e0	b9001be8	 str         w8,[sp,#0x18]
  000e4	52804008	 mov         w8,#0x200
  000e8	b90013e8	 str         w8,[sp,#0x10]
  000ec	52802008	 mov         w8,#0x100
  000f0	b9000be8	 str         w8,[sp,#8]
  000f4	52801008	 mov         w8,#0x80
  000f8	b90003e8	 str         w8,[sp]
  000fc	52800807	 mov         w7,#0x40
  00100	52800406	 mov         w6,#0x20
  00104	52800205	 mov         w5,#0x10
  00108	52800104	 mov         w4,#8
  0010c	52800083	 mov         w3,#4
  00110	52800042	 mov         w2,#2
  00114	52800021	 mov         w1,#1
  00118	90000008	 adrp        x8,|$SG3322|
  0011c	91000100	 add         x0,x8,|$SG3322|
  00120	90000008	 adrp        x8,__imp_sixteen_int_arguments
  00124	f9400108	 ldr         x8,[x8,__imp_sixteen_int_arguments]
  00128	d63f0100	 blr         x8
  0012c	2a0003e8	 mov         w8,w0
  00130	529fffe9	 mov         w9,#0xFFFF
  00134	6b09011f	 cmp         w8,w9
  00138	54000000	 beq         |$LN5@main|
  0013c	528003e2	 mov         w2,#0x1F
  00140	90000008	 adrp        x8,|$SG3323|
  00144	91000101	 add         x1,x8,|$SG3323|
  00148	90000008	 adrp        x8,|$SG3324|
  0014c	91000100	 add         x0,x8,|$SG3324|
  00150	94000000	 bl          _wassert
  00154	52800008	 mov         w8,#0
  00158		 |$LN5@main|

; 29   :                                  256, 512, 1024, 2048, 4096, 8192, 16384,
; 30   :                                  32768)
; 31   :           == 65535);
; 32   :   assert (sixteen_string_arguments ("test: %s\n", "a", "b", "c", "d", "e", "f",

  00158	90000008	 adrp        x8,|$SG3325|
  0015c	91000108	 add         x8,x8,|$SG3325|
  00160	f90023e8	 str         x8,[sp,#0x40]
  00164	90000008	 adrp        x8,|$SG3326|
  00168	91000108	 add         x8,x8,|$SG3326|
  0016c	f9001fe8	 str         x8,[sp,#0x38]
  00170	90000008	 adrp        x8,|$SG3327|
  00174	91000108	 add         x8,x8,|$SG3327|
  00178	f9001be8	 str         x8,[sp,#0x30]
  0017c	90000008	 adrp        x8,|$SG3328|
  00180	91000108	 add         x8,x8,|$SG3328|
  00184	f90017e8	 str         x8,[sp,#0x28]
  00188	90000008	 adrp        x8,|$SG3329|
  0018c	91000108	 add         x8,x8,|$SG3329|
  00190	f90013e8	 str         x8,[sp,#0x20]
  00194	90000008	 adrp        x8,|$SG3330|
  00198	91000108	 add         x8,x8,|$SG3330|
  0019c	f9000fe8	 str         x8,[sp,#0x18]
  001a0	90000008	 adrp        x8,|$SG3331|
  001a4	91000108	 add         x8,x8,|$SG3331|
  001a8	f9000be8	 str         x8,[sp,#0x10]
  001ac	90000008	 adrp        x8,|$SG3332|
  001b0	91000108	 add         x8,x8,|$SG3332|
  001b4	f90007e8	 str         x8,[sp,#8]
  001b8	90000008	 adrp        x8,|$SG3333|
  001bc	91000108	 add         x8,x8,|$SG3333|
  001c0	f90003e8	 str         x8,[sp]
  001c4	90000008	 adrp        x8,|$SG3334|
  001c8	91000107	 add         x7,x8,|$SG3334|
  001cc	90000008	 adrp        x8,|$SG3335|
  001d0	91000106	 add         x6,x8,|$SG3335|
  001d4	90000008	 adrp        x8,|$SG3336|
  001d8	91000105	 add         x5,x8,|$SG3336|
  001dc	90000008	 adrp        x8,|$SG3337|
  001e0	91000104	 add         x4,x8,|$SG3337|
  001e4	90000008	 adrp        x8,|$SG3338|
  001e8	91000103	 add         x3,x8,|$SG3338|
  001ec	90000008	 adrp        x8,|$SG3339|
  001f0	91000102	 add         x2,x8,|$SG3339|
  001f4	90000008	 adrp        x8,|$SG3340|
  001f8	91000101	 add         x1,x8,|$SG3340|
  001fc	90000008	 adrp        x8,|$SG3341|
  00200	91000100	 add         x0,x8,|$SG3341|
  00204	90000008	 adrp        x8,__imp_sixteen_string_arguments
  00208	f9400108	 ldr         x8,[x8,__imp_sixteen_string_arguments]
  0020c	d63f0100	 blr         x8
  00210	aa0003e8	 mov         x8,x0
  00214	90000009	 adrp        x9,|$SG3342|
  00218	91000129	 add         x9,x9,|$SG3342|
  0021c	eb09011f	 cmp         x8,x9
  00220	54000000	 beq         |$LN6@main|
  00224	52800462	 mov         w2,#0x23
  00228	90000008	 adrp        x8,|$SG3343|
  0022c	91000101	 add         x1,x8,|$SG3343|
  00230	90000008	 adrp        x8,|$SG3344|
  00234	91000100	 add         x0,x8,|$SG3344|
  00238	94000000	 bl          _wassert
  0023c	52800008	 mov         w8,#0
  00240		 |$LN6@main|

; 33   :                                   "g", "h", "i", "j", "k", "l", "m", "n", "o",
; 34   :                                   "p")
; 35   :           == "p");
; 36   :   return 0;

  00240	52800000	 mov         w0,#0
  00244	910143ff	 add         sp,sp,#0x50
  00248	a8c27bfd	 ldp         fp,lr,[sp],#0x20
  0024c	d65f03c0	 ret

			 ENDP  ; |main|

	END
