	.arch armv8-a
	.file	"varargs-dll.c"
// GNU C17 (Ubuntu 11.4.0-1ubuntu1~22.04) version 11.4.0 (aarch64-linux-gnu)
//	compiled by GNU C version 11.4.0, GMP version 6.2.1, MPFR version 4.1.0, MPC version 1.2.1, isl version isl-0.24-GMP

// GGC heuristics: --param ggc-min-expand=100 --param ggc-min-heapsize=131072
// options passed: -mlittle-endian -mabi=lp64 -O0 -fasynchronous-unwind-tables -fstack-protector-strong -fstack-clash-protection
	.text
	.align	2
	.global	use_va_args_no_arguments
	.type	use_va_args_no_arguments, %function
use_va_args_no_arguments:
.LFB6:
	.cfi_startproc
	stp	x29, x30, [sp, -272]!	//,,,
	.cfi_def_cfa_offset 272
	.cfi_offset 29, -272
	.cfi_offset 30, -264
	mov	x29, sp	//,
	str	x0, [sp, 24]	// format, format
	str	x1, [sp, 216]	//,
	str	x2, [sp, 224]	//,
	str	x3, [sp, 232]	//,
	str	x4, [sp, 240]	//,
	str	x5, [sp, 248]	//,
	str	x6, [sp, 256]	//,
	str	x7, [sp, 264]	//,
	str	q0, [sp, 80]	//,
	str	q1, [sp, 96]	//,
	str	q2, [sp, 112]	//,
	str	q3, [sp, 128]	//,
	str	q4, [sp, 144]	//,
	str	q5, [sp, 160]	//,
	str	q6, [sp, 176]	//,
	str	q7, [sp, 192]	//,
// varargs-dll.c:16: {
	adrp	x0, :got:__stack_chk_guard	// tmp95,
	ldr	x0, [x0, #:got_lo12:__stack_chk_guard]	// tmp94, tmp95,
	ldr	x1, [x0]	// tmp103,
	str	x1, [sp, 72]	// tmp103, D.7054
	mov	x1, 0	// tmp103
// varargs-dll.c:18:   va_start (argv, format);
	add	x0, sp, 272	// tmp108,,
	str	x0, [sp, 40]	// tmp108, MEM[(struct  *)&argv].__stack
	add	x0, sp, 272	// tmp109,,
	str	x0, [sp, 48]	// tmp109, MEM[(struct  *)&argv].__gr_top
	add	x0, sp, 208	// tmp97,,
	str	x0, [sp, 56]	// tmp97, MEM[(struct  *)&argv].__vr_top
	mov	w0, -56	// tmp98,
	str	w0, [sp, 64]	// tmp98, MEM[(struct  *)&argv].__gr_offs
	mov	w0, -128	// tmp99,
	str	w0, [sp, 68]	// tmp99, MEM[(struct  *)&argv].__vr_offs
// varargs-dll.c:20:   return 165;
	mov	w0, 165	// _4,
	mov	w1, w0	// <retval>, _4
// varargs-dll.c:21: }
	adrp	x0, :got:__stack_chk_guard	// tmp102,
	ldr	x0, [x0, #:got_lo12:__stack_chk_guard]	// tmp101, tmp102,
	ldr	x3, [sp, 72]	// tmp104, D.7054
	ldr	x2, [x0]	// tmp105,
	subs	x3, x3, x2	// tmp104, tmp105
	mov	x2, 0	// tmp105
	beq	.L3		//,
	bl	__stack_chk_fail		//
.L3:
	mov	w0, w1	//, <retval>
	ldp	x29, x30, [sp], 272	//,,,
	.cfi_restore 30
	.cfi_restore 29
	.cfi_def_cfa_offset 0
	ret	
	.cfi_endproc
.LFE6:
	.size	use_va_args_no_arguments, .-use_va_args_no_arguments
	.align	2
	.global	use_va_list_no_arguments
	.type	use_va_list_no_arguments, %function
use_va_list_no_arguments:
.LFB7:
	.cfi_startproc
	sub	sp, sp, #16	//,,
	.cfi_def_cfa_offset 16
	str	x0, [sp, 8]	// format, format
// varargs-dll.c:26:   return 165;
	mov	w0, 165	// _1,
// varargs-dll.c:27: }
	add	sp, sp, 16	//,,
	.cfi_def_cfa_offset 0
	ret	
	.cfi_endproc
.LFE7:
	.size	use_va_list_no_arguments, .-use_va_list_no_arguments
	.align	2
	.global	use_va_args_few_longs
	.type	use_va_args_few_longs, %function
use_va_args_few_longs:
.LFB8:
	.cfi_startproc
	stp	x29, x30, [sp, -288]!	//,,,
	.cfi_def_cfa_offset 288
	.cfi_offset 29, -288
	.cfi_offset 30, -280
	mov	x29, sp	//,
	str	x0, [sp, 24]	// format, format
	str	x1, [sp, 232]	//,
	str	x2, [sp, 240]	//,
	str	x3, [sp, 248]	//,
	str	x4, [sp, 256]	//,
	str	x5, [sp, 264]	//,
	str	x6, [sp, 272]	//,
	str	x7, [sp, 280]	//,
	str	q0, [sp, 96]	//,
	str	q1, [sp, 112]	//,
	str	q2, [sp, 128]	//,
	str	q3, [sp, 144]	//,
	str	q4, [sp, 160]	//,
	str	q5, [sp, 176]	//,
	str	q6, [sp, 192]	//,
	str	q7, [sp, 208]	//,
// varargs-dll.c:31: {
	adrp	x0, :got:__stack_chk_guard	// tmp118,
	ldr	x0, [x0, #:got_lo12:__stack_chk_guard]	// tmp117, tmp118,
	ldr	x1, [x0]	// tmp130,
	str	x1, [sp, 88]	// tmp130, D.7096
	mov	x1, 0	// tmp130
// varargs-dll.c:33:   va_start (argv, format);
	add	x0, sp, 288	// tmp135,,
	str	x0, [sp, 56]	// tmp135, MEM[(struct  *)&argv].__stack
	add	x0, sp, 288	// tmp136,,
	str	x0, [sp, 64]	// tmp136, MEM[(struct  *)&argv].__gr_top
	add	x0, sp, 224	// tmp120,,
	str	x0, [sp, 72]	// tmp120, MEM[(struct  *)&argv].__vr_top
	mov	w0, -56	// tmp121,
	str	w0, [sp, 80]	// tmp121, MEM[(struct  *)&argv].__gr_offs
	mov	w0, -128	// tmp122,
	str	w0, [sp, 84]	// tmp122, MEM[(struct  *)&argv].__vr_offs
// varargs-dll.c:34:   long a = va_arg (argv, long);
	ldr	w1, [sp, 80]	// D.7060, argv.__gr_offs
	ldr	x0, [sp, 56]	// iftmp.23, argv.__stack
	cmp	w1, 0	// D.7060,
	blt	.L7		//,
	add	x1, x0, 15	// D.7065, iftmp.23,
	and	x1, x1, -8	// D.7066, D.7065,
	str	x1, [sp, 56]	// D.7066, argv.__stack
	b	.L8		//
.L7:
	add	w2, w1, 8	// D.7068, D.7060,
	str	w2, [sp, 80]	// D.7068, argv.__gr_offs
	ldr	w2, [sp, 80]	// D.7070, argv.__gr_offs
	cmp	w2, 0	// D.7070,
	ble	.L9		//,
	add	x1, x0, 15	// D.7073, iftmp.23,
	and	x1, x1, -8	// D.7074, D.7073,
	str	x1, [sp, 56]	// D.7074, argv.__stack
	b	.L8		//
.L9:
	ldr	x2, [sp, 64]	// D.7076, argv.__gr_top
	sxtw	x0, w1	// D.7077, D.7060
	add	x0, x2, x0	// iftmp.23, D.7076, D.7077
.L8:
	ldr	x0, [x0]	// tmp123, *iftmp.22_17
	str	x0, [sp, 40]	// tmp123, a
// varargs-dll.c:35:   long b = va_arg (argv, long);
	ldr	w1, [sp, 80]	// D.7078, argv.__gr_offs
	ldr	x0, [sp, 56]	// iftmp.25, argv.__stack
	cmp	w1, 0	// D.7078,
	blt	.L11		//,
	add	x1, x0, 15	// D.7083, iftmp.25,
	and	x1, x1, -8	// D.7084, D.7083,
	str	x1, [sp, 56]	// D.7084, argv.__stack
	b	.L12		//
.L11:
	add	w2, w1, 8	// D.7086, D.7078,
	str	w2, [sp, 80]	// D.7086, argv.__gr_offs
	ldr	w2, [sp, 80]	// D.7088, argv.__gr_offs
	cmp	w2, 0	// D.7088,
	ble	.L13		//,
	add	x1, x0, 15	// D.7091, iftmp.25,
	and	x1, x1, -8	// D.7092, D.7091,
	str	x1, [sp, 56]	// D.7092, argv.__stack
	b	.L12		//
.L13:
	ldr	x2, [sp, 64]	// D.7094, argv.__gr_top
	sxtw	x0, w1	// D.7095, D.7078
	add	x0, x2, x0	// iftmp.25, D.7094, D.7095
.L12:
	ldr	x0, [x0]	// tmp124, *iftmp.24_19
	str	x0, [sp, 48]	// tmp124, b
// varargs-dll.c:37:   return a + b;
	ldr	x0, [sp, 40]	// tmp125, a
	mov	w1, w0	// _1, tmp125
	ldr	x0, [sp, 48]	// tmp126, b
	add	w0, w1, w0	// _3, _1, _2
	mov	w1, w0	// <retval>, _11
// varargs-dll.c:38: }
	adrp	x0, :got:__stack_chk_guard	// tmp129,
	ldr	x0, [x0, #:got_lo12:__stack_chk_guard]	// tmp128, tmp129,
	ldr	x3, [sp, 88]	// tmp131, D.7096
	ldr	x2, [x0]	// tmp132,
	subs	x3, x3, x2	// tmp131, tmp132
	mov	x2, 0	// tmp132
	beq	.L16		//,
	bl	__stack_chk_fail		//
.L16:
	mov	w0, w1	//, <retval>
	ldp	x29, x30, [sp], 288	//,,,
	.cfi_restore 30
	.cfi_restore 29
	.cfi_def_cfa_offset 0
	ret	
	.cfi_endproc
.LFE8:
	.size	use_va_args_few_longs, .-use_va_args_few_longs
	.align	2
	.global	use_va_list_few_longs
	.type	use_va_list_few_longs, %function
use_va_list_few_longs:
.LFB9:
	.cfi_startproc
	str	x19, [sp, -48]!	//,
	.cfi_def_cfa_offset 48
	.cfi_offset 19, -48
	str	x0, [sp, 24]	// format, format
	mov	x19, x1	// tmp117,
// varargs-dll.c:43:   long a = va_arg (argv, long);
	ldr	w1, [x19, 24]	// D.7100, argv.__gr_offs
	ldr	x0, [x19]	// iftmp.27, argv.__stack
	cmp	w1, 0	// D.7100,
	blt	.L18		//,
	add	x1, x0, 15	// D.7105, iftmp.27,
	and	x1, x1, -8	// D.7106, D.7105,
	str	x1, [x19]	// D.7106, argv.__stack
	b	.L19		//
.L18:
	add	w2, w1, 8	// D.7108, D.7100,
	str	w2, [x19, 24]	// D.7108, argv.__gr_offs
	ldr	w2, [x19, 24]	// D.7110, argv.__gr_offs
	cmp	w2, 0	// D.7110,
	ble	.L20		//,
	add	x1, x0, 15	// D.7113, iftmp.27,
	and	x1, x1, -8	// D.7114, D.7113,
	str	x1, [x19]	// D.7114, argv.__stack
	b	.L19		//
.L20:
	ldr	x2, [x19, 8]	// D.7116, argv.__gr_top
	sxtw	x0, w1	// D.7117, D.7100
	add	x0, x2, x0	// iftmp.27, D.7116, D.7117
.L19:
	ldr	x0, [x0]	// tmp118, *iftmp.26_14
	str	x0, [sp, 32]	// tmp118, a
// varargs-dll.c:44:   long b = va_arg (argv, long);
	ldr	w1, [x19, 24]	// D.7118, argv.__gr_offs
	ldr	x0, [x19]	// iftmp.29, argv.__stack
	cmp	w1, 0	// D.7118,
	blt	.L22		//,
	add	x1, x0, 15	// D.7123, iftmp.29,
	and	x1, x1, -8	// D.7124, D.7123,
	str	x1, [x19]	// D.7124, argv.__stack
	b	.L23		//
.L22:
	add	w2, w1, 8	// D.7126, D.7118,
	str	w2, [x19, 24]	// D.7126, argv.__gr_offs
	ldr	w2, [x19, 24]	// D.7128, argv.__gr_offs
	cmp	w2, 0	// D.7128,
	ble	.L24		//,
	add	x1, x0, 15	// D.7131, iftmp.29,
	and	x1, x1, -8	// D.7132, D.7131,
	str	x1, [x19]	// D.7132, argv.__stack
	b	.L23		//
.L24:
	ldr	x2, [x19, 8]	// D.7134, argv.__gr_top
	sxtw	x0, w1	// D.7135, D.7118
	add	x0, x2, x0	// iftmp.29, D.7134, D.7135
.L23:
	ldr	x0, [x0]	// tmp119, *iftmp.28_16
	str	x0, [sp, 40]	// tmp119, b
// varargs-dll.c:45:   return a + b;
	ldr	x0, [sp, 32]	// tmp120, a
	mov	w1, w0	// _1, tmp120
	ldr	x0, [sp, 40]	// tmp121, b
	add	w0, w1, w0	// _3, _1, _2
// varargs-dll.c:46: }
	ldr	x19, [sp], 48	//,
	.cfi_restore 19
	.cfi_def_cfa_offset 0
	ret	
	.cfi_endproc
.LFE9:
	.size	use_va_list_few_longs, .-use_va_list_few_longs
	.align	2
	.global	use_va_args_several_longs
	.type	use_va_args_several_longs, %function
use_va_args_several_longs:
.LFB10:
	.cfi_startproc
	stp	x29, x30, [sp, -336]!	//,,,
	.cfi_def_cfa_offset 336
	.cfi_offset 29, -336
	.cfi_offset 30, -328
	mov	x29, sp	//,
	str	x0, [sp, 24]	// format, format
	str	x1, [sp, 280]	//,
	str	x2, [sp, 288]	//,
	str	x3, [sp, 296]	//,
	str	x4, [sp, 304]	//,
	str	x5, [sp, 312]	//,
	str	x6, [sp, 320]	//,
	str	x7, [sp, 328]	//,
	str	q0, [sp, 144]	//,
	str	q1, [sp, 160]	//,
	str	q2, [sp, 176]	//,
	str	q3, [sp, 192]	//,
	str	q4, [sp, 208]	//,
	str	q5, [sp, 224]	//,
	str	q6, [sp, 240]	//,
	str	q7, [sp, 256]	//,
// varargs-dll.c:50: {
	adrp	x0, :got:__stack_chk_guard	// tmp202,
	ldr	x0, [x0, #:got_lo12:__stack_chk_guard]	// tmp201, tmp202,
	ldr	x1, [x0]	// tmp228,
	str	x1, [sp, 136]	// tmp228, D.7298
	mov	x1, 0	// tmp228
// varargs-dll.c:52:   va_start (argv, format);
	add	x0, sp, 336	// tmp233,,
	str	x0, [sp, 104]	// tmp233, MEM[(struct  *)&argv].__stack
	add	x0, sp, 336	// tmp234,,
	str	x0, [sp, 112]	// tmp234, MEM[(struct  *)&argv].__gr_top
	add	x0, sp, 272	// tmp204,,
	str	x0, [sp, 120]	// tmp204, MEM[(struct  *)&argv].__vr_top
	mov	w0, -56	// tmp205,
	str	w0, [sp, 128]	// tmp205, MEM[(struct  *)&argv].__gr_offs
	mov	w0, -128	// tmp206,
	str	w0, [sp, 132]	// tmp206, MEM[(struct  *)&argv].__vr_offs
// varargs-dll.c:53:   long a = va_arg (argv, long);
	ldr	w1, [sp, 128]	// D.7136, argv.__gr_offs
	ldr	x0, [sp, 104]	// iftmp.31, argv.__stack
	cmp	w1, 0	// D.7136,
	blt	.L28		//,
	add	x1, x0, 15	// D.7141, iftmp.31,
	and	x1, x1, -8	// D.7142, D.7141,
	str	x1, [sp, 104]	// D.7142, argv.__stack
	b	.L29		//
.L28:
	add	w2, w1, 8	// D.7144, D.7136,
	str	w2, [sp, 128]	// D.7144, argv.__gr_offs
	ldr	w2, [sp, 128]	// D.7146, argv.__gr_offs
	cmp	w2, 0	// D.7146,
	ble	.L30		//,
	add	x1, x0, 15	// D.7149, iftmp.31,
	and	x1, x1, -8	// D.7150, D.7149,
	str	x1, [sp, 104]	// D.7150, argv.__stack
	b	.L29		//
.L30:
	ldr	x2, [sp, 112]	// D.7152, argv.__gr_top
	sxtw	x0, w1	// D.7153, D.7136
	add	x0, x2, x0	// iftmp.31, D.7152, D.7153
.L29:
	ldr	x0, [x0]	// tmp207, *iftmp.30_59
	str	x0, [sp, 32]	// tmp207, a
// varargs-dll.c:54:   long b = va_arg (argv, long);
	ldr	w1, [sp, 128]	// D.7154, argv.__gr_offs
	ldr	x0, [sp, 104]	// iftmp.33, argv.__stack
	cmp	w1, 0	// D.7154,
	blt	.L32		//,
	add	x1, x0, 15	// D.7159, iftmp.33,
	and	x1, x1, -8	// D.7160, D.7159,
	str	x1, [sp, 104]	// D.7160, argv.__stack
	b	.L33		//
.L32:
	add	w2, w1, 8	// D.7162, D.7154,
	str	w2, [sp, 128]	// D.7162, argv.__gr_offs
	ldr	w2, [sp, 128]	// D.7164, argv.__gr_offs
	cmp	w2, 0	// D.7164,
	ble	.L34		//,
	add	x1, x0, 15	// D.7167, iftmp.33,
	and	x1, x1, -8	// D.7168, D.7167,
	str	x1, [sp, 104]	// D.7168, argv.__stack
	b	.L33		//
.L34:
	ldr	x2, [sp, 112]	// D.7170, argv.__gr_top
	sxtw	x0, w1	// D.7171, D.7154
	add	x0, x2, x0	// iftmp.33, D.7170, D.7171
.L33:
	ldr	x0, [x0]	// tmp208, *iftmp.32_61
	str	x0, [sp, 40]	// tmp208, b
// varargs-dll.c:55:   long c = va_arg (argv, long);
	ldr	w1, [sp, 128]	// D.7172, argv.__gr_offs
	ldr	x0, [sp, 104]	// iftmp.35, argv.__stack
	cmp	w1, 0	// D.7172,
	blt	.L36		//,
	add	x1, x0, 15	// D.7177, iftmp.35,
	and	x1, x1, -8	// D.7178, D.7177,
	str	x1, [sp, 104]	// D.7178, argv.__stack
	b	.L37		//
.L36:
	add	w2, w1, 8	// D.7180, D.7172,
	str	w2, [sp, 128]	// D.7180, argv.__gr_offs
	ldr	w2, [sp, 128]	// D.7182, argv.__gr_offs
	cmp	w2, 0	// D.7182,
	ble	.L38		//,
	add	x1, x0, 15	// D.7185, iftmp.35,
	and	x1, x1, -8	// D.7186, D.7185,
	str	x1, [sp, 104]	// D.7186, argv.__stack
	b	.L37		//
.L38:
	ldr	x2, [sp, 112]	// D.7188, argv.__gr_top
	sxtw	x0, w1	// D.7189, D.7172
	add	x0, x2, x0	// iftmp.35, D.7188, D.7189
.L37:
	ldr	x0, [x0]	// tmp209, *iftmp.34_63
	str	x0, [sp, 48]	// tmp209, c
// varargs-dll.c:56:   long d = va_arg (argv, long);
	ldr	w1, [sp, 128]	// D.7190, argv.__gr_offs
	ldr	x0, [sp, 104]	// iftmp.37, argv.__stack
	cmp	w1, 0	// D.7190,
	blt	.L40		//,
	add	x1, x0, 15	// D.7195, iftmp.37,
	and	x1, x1, -8	// D.7196, D.7195,
	str	x1, [sp, 104]	// D.7196, argv.__stack
	b	.L41		//
.L40:
	add	w2, w1, 8	// D.7198, D.7190,
	str	w2, [sp, 128]	// D.7198, argv.__gr_offs
	ldr	w2, [sp, 128]	// D.7200, argv.__gr_offs
	cmp	w2, 0	// D.7200,
	ble	.L42		//,
	add	x1, x0, 15	// D.7203, iftmp.37,
	and	x1, x1, -8	// D.7204, D.7203,
	str	x1, [sp, 104]	// D.7204, argv.__stack
	b	.L41		//
.L42:
	ldr	x2, [sp, 112]	// D.7206, argv.__gr_top
	sxtw	x0, w1	// D.7207, D.7190
	add	x0, x2, x0	// iftmp.37, D.7206, D.7207
.L41:
	ldr	x0, [x0]	// tmp210, *iftmp.36_65
	str	x0, [sp, 56]	// tmp210, d
// varargs-dll.c:57:   long e = va_arg (argv, long);
	ldr	w1, [sp, 128]	// D.7208, argv.__gr_offs
	ldr	x0, [sp, 104]	// iftmp.39, argv.__stack
	cmp	w1, 0	// D.7208,
	blt	.L44		//,
	add	x1, x0, 15	// D.7213, iftmp.39,
	and	x1, x1, -8	// D.7214, D.7213,
	str	x1, [sp, 104]	// D.7214, argv.__stack
	b	.L45		//
.L44:
	add	w2, w1, 8	// D.7216, D.7208,
	str	w2, [sp, 128]	// D.7216, argv.__gr_offs
	ldr	w2, [sp, 128]	// D.7218, argv.__gr_offs
	cmp	w2, 0	// D.7218,
	ble	.L46		//,
	add	x1, x0, 15	// D.7221, iftmp.39,
	and	x1, x1, -8	// D.7222, D.7221,
	str	x1, [sp, 104]	// D.7222, argv.__stack
	b	.L45		//
.L46:
	ldr	x2, [sp, 112]	// D.7224, argv.__gr_top
	sxtw	x0, w1	// D.7225, D.7208
	add	x0, x2, x0	// iftmp.39, D.7224, D.7225
.L45:
	ldr	x0, [x0]	// tmp211, *iftmp.38_67
	str	x0, [sp, 64]	// tmp211, e
// varargs-dll.c:58:   long f = va_arg (argv, long);
	ldr	w1, [sp, 128]	// D.7226, argv.__gr_offs
	ldr	x0, [sp, 104]	// iftmp.41, argv.__stack
	cmp	w1, 0	// D.7226,
	blt	.L48		//,
	add	x1, x0, 15	// D.7231, iftmp.41,
	and	x1, x1, -8	// D.7232, D.7231,
	str	x1, [sp, 104]	// D.7232, argv.__stack
	b	.L49		//
.L48:
	add	w2, w1, 8	// D.7234, D.7226,
	str	w2, [sp, 128]	// D.7234, argv.__gr_offs
	ldr	w2, [sp, 128]	// D.7236, argv.__gr_offs
	cmp	w2, 0	// D.7236,
	ble	.L50		//,
	add	x1, x0, 15	// D.7239, iftmp.41,
	and	x1, x1, -8	// D.7240, D.7239,
	str	x1, [sp, 104]	// D.7240, argv.__stack
	b	.L49		//
.L50:
	ldr	x2, [sp, 112]	// D.7242, argv.__gr_top
	sxtw	x0, w1	// D.7243, D.7226
	add	x0, x2, x0	// iftmp.41, D.7242, D.7243
.L49:
	ldr	x0, [x0]	// tmp212, *iftmp.40_69
	str	x0, [sp, 72]	// tmp212, f
// varargs-dll.c:59:   long g = va_arg (argv, long);
	ldr	w1, [sp, 128]	// D.7244, argv.__gr_offs
	ldr	x0, [sp, 104]	// iftmp.43, argv.__stack
	cmp	w1, 0	// D.7244,
	blt	.L52		//,
	add	x1, x0, 15	// D.7249, iftmp.43,
	and	x1, x1, -8	// D.7250, D.7249,
	str	x1, [sp, 104]	// D.7250, argv.__stack
	b	.L53		//
.L52:
	add	w2, w1, 8	// D.7252, D.7244,
	str	w2, [sp, 128]	// D.7252, argv.__gr_offs
	ldr	w2, [sp, 128]	// D.7254, argv.__gr_offs
	cmp	w2, 0	// D.7254,
	ble	.L54		//,
	add	x1, x0, 15	// D.7257, iftmp.43,
	and	x1, x1, -8	// D.7258, D.7257,
	str	x1, [sp, 104]	// D.7258, argv.__stack
	b	.L53		//
.L54:
	ldr	x2, [sp, 112]	// D.7260, argv.__gr_top
	sxtw	x0, w1	// D.7261, D.7244
	add	x0, x2, x0	// iftmp.43, D.7260, D.7261
.L53:
	ldr	x0, [x0]	// tmp213, *iftmp.42_71
	str	x0, [sp, 80]	// tmp213, g
// varargs-dll.c:60:   long h = va_arg (argv, long);
	ldr	w1, [sp, 128]	// D.7262, argv.__gr_offs
	ldr	x0, [sp, 104]	// iftmp.45, argv.__stack
	cmp	w1, 0	// D.7262,
	blt	.L56		//,
	add	x1, x0, 15	// D.7267, iftmp.45,
	and	x1, x1, -8	// D.7268, D.7267,
	str	x1, [sp, 104]	// D.7268, argv.__stack
	b	.L57		//
.L56:
	add	w2, w1, 8	// D.7270, D.7262,
	str	w2, [sp, 128]	// D.7270, argv.__gr_offs
	ldr	w2, [sp, 128]	// D.7272, argv.__gr_offs
	cmp	w2, 0	// D.7272,
	ble	.L58		//,
	add	x1, x0, 15	// D.7275, iftmp.45,
	and	x1, x1, -8	// D.7276, D.7275,
	str	x1, [sp, 104]	// D.7276, argv.__stack
	b	.L57		//
.L58:
	ldr	x2, [sp, 112]	// D.7278, argv.__gr_top
	sxtw	x0, w1	// D.7279, D.7262
	add	x0, x2, x0	// iftmp.45, D.7278, D.7279
.L57:
	ldr	x0, [x0]	// tmp214, *iftmp.44_73
	str	x0, [sp, 88]	// tmp214, h
// varargs-dll.c:61:   long i = va_arg (argv, long);
	ldr	w1, [sp, 128]	// D.7280, argv.__gr_offs
	ldr	x0, [sp, 104]	// iftmp.47, argv.__stack
	cmp	w1, 0	// D.7280,
	blt	.L60		//,
	add	x1, x0, 15	// D.7285, iftmp.47,
	and	x1, x1, -8	// D.7286, D.7285,
	str	x1, [sp, 104]	// D.7286, argv.__stack
	b	.L61		//
.L60:
	add	w2, w1, 8	// D.7288, D.7280,
	str	w2, [sp, 128]	// D.7288, argv.__gr_offs
	ldr	w2, [sp, 128]	// D.7290, argv.__gr_offs
	cmp	w2, 0	// D.7290,
	ble	.L62		//,
	add	x1, x0, 15	// D.7293, iftmp.47,
	and	x1, x1, -8	// D.7294, D.7293,
	str	x1, [sp, 104]	// D.7294, argv.__stack
	b	.L61		//
.L62:
	ldr	x2, [sp, 112]	// D.7296, argv.__gr_top
	sxtw	x0, w1	// D.7297, D.7280
	add	x0, x2, x0	// iftmp.47, D.7296, D.7297
.L61:
	ldr	x0, [x0]	// tmp215, *iftmp.46_75
	str	x0, [sp, 96]	// tmp215, i
// varargs-dll.c:63:   return a + b + c + d + e + f + g + h + i;
	ldr	x0, [sp, 32]	// tmp216, a
	mov	w1, w0	// _1, tmp216
	ldr	x0, [sp, 40]	// tmp217, b
	add	w0, w1, w0	// _3, _1, _2
// varargs-dll.c:63:   return a + b + c + d + e + f + g + h + i;
	ldr	x1, [sp, 48]	// tmp218, c
	add	w0, w0, w1	// _5, _3, _4
// varargs-dll.c:63:   return a + b + c + d + e + f + g + h + i;
	ldr	x1, [sp, 56]	// tmp219, d
	add	w0, w0, w1	// _7, _5, _6
// varargs-dll.c:63:   return a + b + c + d + e + f + g + h + i;
	ldr	x1, [sp, 64]	// tmp220, e
	add	w0, w0, w1	// _9, _7, _8
// varargs-dll.c:63:   return a + b + c + d + e + f + g + h + i;
	ldr	x1, [sp, 72]	// tmp221, f
	add	w0, w0, w1	// _11, _9, _10
// varargs-dll.c:63:   return a + b + c + d + e + f + g + h + i;
	ldr	x1, [sp, 80]	// tmp222, g
	add	w0, w0, w1	// _13, _11, _12
// varargs-dll.c:63:   return a + b + c + d + e + f + g + h + i;
	ldr	x1, [sp, 88]	// tmp223, h
	add	w0, w0, w1	// _15, _13, _14
// varargs-dll.c:63:   return a + b + c + d + e + f + g + h + i;
	ldr	x1, [sp, 96]	// tmp224, i
	add	w0, w0, w1	// _17, _15, _16
	mov	w1, w0	// <retval>, _39
// varargs-dll.c:64: }
	adrp	x0, :got:__stack_chk_guard	// tmp227,
	ldr	x0, [x0, #:got_lo12:__stack_chk_guard]	// tmp226, tmp227,
	ldr	x3, [sp, 136]	// tmp229, D.7298
	ldr	x2, [x0]	// tmp230,
	subs	x3, x3, x2	// tmp229, tmp230
	mov	x2, 0	// tmp230
	beq	.L65		//,
	bl	__stack_chk_fail		//
.L65:
	mov	w0, w1	//, <retval>
	ldp	x29, x30, [sp], 336	//,,,
	.cfi_restore 30
	.cfi_restore 29
	.cfi_def_cfa_offset 0
	ret	
	.cfi_endproc
.LFE10:
	.size	use_va_args_several_longs, .-use_va_args_several_longs
	.align	2
	.global	use_va_list_several_longs
	.type	use_va_list_several_longs, %function
use_va_list_several_longs:
.LFB11:
	.cfi_startproc
	str	x19, [sp, -112]!	//,
	.cfi_def_cfa_offset 112
	.cfi_offset 19, -112
	str	x0, [sp, 24]	// format, format
	mov	x19, x1	// tmp201,
// varargs-dll.c:69:   long a = va_arg (argv, long);
	ldr	w1, [x19, 24]	// D.7302, argv.__gr_offs
	ldr	x0, [x19]	// iftmp.49, argv.__stack
	cmp	w1, 0	// D.7302,
	blt	.L67		//,
	add	x1, x0, 15	// D.7307, iftmp.49,
	and	x1, x1, -8	// D.7308, D.7307,
	str	x1, [x19]	// D.7308, argv.__stack
	b	.L68		//
.L67:
	add	w2, w1, 8	// D.7310, D.7302,
	str	w2, [x19, 24]	// D.7310, argv.__gr_offs
	ldr	w2, [x19, 24]	// D.7312, argv.__gr_offs
	cmp	w2, 0	// D.7312,
	ble	.L69		//,
	add	x1, x0, 15	// D.7315, iftmp.49,
	and	x1, x1, -8	// D.7316, D.7315,
	str	x1, [x19]	// D.7316, argv.__stack
	b	.L68		//
.L69:
	ldr	x2, [x19, 8]	// D.7318, argv.__gr_top
	sxtw	x0, w1	// D.7319, D.7302
	add	x0, x2, x0	// iftmp.49, D.7318, D.7319
.L68:
	ldr	x0, [x0]	// tmp202, *iftmp.48_56
	str	x0, [sp, 40]	// tmp202, a
// varargs-dll.c:70:   long b = va_arg (argv, long);
	ldr	w1, [x19, 24]	// D.7320, argv.__gr_offs
	ldr	x0, [x19]	// iftmp.51, argv.__stack
	cmp	w1, 0	// D.7320,
	blt	.L71		//,
	add	x1, x0, 15	// D.7325, iftmp.51,
	and	x1, x1, -8	// D.7326, D.7325,
	str	x1, [x19]	// D.7326, argv.__stack
	b	.L72		//
.L71:
	add	w2, w1, 8	// D.7328, D.7320,
	str	w2, [x19, 24]	// D.7328, argv.__gr_offs
	ldr	w2, [x19, 24]	// D.7330, argv.__gr_offs
	cmp	w2, 0	// D.7330,
	ble	.L73		//,
	add	x1, x0, 15	// D.7333, iftmp.51,
	and	x1, x1, -8	// D.7334, D.7333,
	str	x1, [x19]	// D.7334, argv.__stack
	b	.L72		//
.L73:
	ldr	x2, [x19, 8]	// D.7336, argv.__gr_top
	sxtw	x0, w1	// D.7337, D.7320
	add	x0, x2, x0	// iftmp.51, D.7336, D.7337
.L72:
	ldr	x0, [x0]	// tmp203, *iftmp.50_58
	str	x0, [sp, 48]	// tmp203, b
// varargs-dll.c:71:   long c = va_arg (argv, long);
	ldr	w1, [x19, 24]	// D.7338, argv.__gr_offs
	ldr	x0, [x19]	// iftmp.53, argv.__stack
	cmp	w1, 0	// D.7338,
	blt	.L75		//,
	add	x1, x0, 15	// D.7343, iftmp.53,
	and	x1, x1, -8	// D.7344, D.7343,
	str	x1, [x19]	// D.7344, argv.__stack
	b	.L76		//
.L75:
	add	w2, w1, 8	// D.7346, D.7338,
	str	w2, [x19, 24]	// D.7346, argv.__gr_offs
	ldr	w2, [x19, 24]	// D.7348, argv.__gr_offs
	cmp	w2, 0	// D.7348,
	ble	.L77		//,
	add	x1, x0, 15	// D.7351, iftmp.53,
	and	x1, x1, -8	// D.7352, D.7351,
	str	x1, [x19]	// D.7352, argv.__stack
	b	.L76		//
.L77:
	ldr	x2, [x19, 8]	// D.7354, argv.__gr_top
	sxtw	x0, w1	// D.7355, D.7338
	add	x0, x2, x0	// iftmp.53, D.7354, D.7355
.L76:
	ldr	x0, [x0]	// tmp204, *iftmp.52_60
	str	x0, [sp, 56]	// tmp204, c
// varargs-dll.c:72:   long d = va_arg (argv, long);
	ldr	w1, [x19, 24]	// D.7356, argv.__gr_offs
	ldr	x0, [x19]	// iftmp.55, argv.__stack
	cmp	w1, 0	// D.7356,
	blt	.L79		//,
	add	x1, x0, 15	// D.7361, iftmp.55,
	and	x1, x1, -8	// D.7362, D.7361,
	str	x1, [x19]	// D.7362, argv.__stack
	b	.L80		//
.L79:
	add	w2, w1, 8	// D.7364, D.7356,
	str	w2, [x19, 24]	// D.7364, argv.__gr_offs
	ldr	w2, [x19, 24]	// D.7366, argv.__gr_offs
	cmp	w2, 0	// D.7366,
	ble	.L81		//,
	add	x1, x0, 15	// D.7369, iftmp.55,
	and	x1, x1, -8	// D.7370, D.7369,
	str	x1, [x19]	// D.7370, argv.__stack
	b	.L80		//
.L81:
	ldr	x2, [x19, 8]	// D.7372, argv.__gr_top
	sxtw	x0, w1	// D.7373, D.7356
	add	x0, x2, x0	// iftmp.55, D.7372, D.7373
.L80:
	ldr	x0, [x0]	// tmp205, *iftmp.54_62
	str	x0, [sp, 64]	// tmp205, d
// varargs-dll.c:73:   long e = va_arg (argv, long);
	ldr	w1, [x19, 24]	// D.7374, argv.__gr_offs
	ldr	x0, [x19]	// iftmp.57, argv.__stack
	cmp	w1, 0	// D.7374,
	blt	.L83		//,
	add	x1, x0, 15	// D.7379, iftmp.57,
	and	x1, x1, -8	// D.7380, D.7379,
	str	x1, [x19]	// D.7380, argv.__stack
	b	.L84		//
.L83:
	add	w2, w1, 8	// D.7382, D.7374,
	str	w2, [x19, 24]	// D.7382, argv.__gr_offs
	ldr	w2, [x19, 24]	// D.7384, argv.__gr_offs
	cmp	w2, 0	// D.7384,
	ble	.L85		//,
	add	x1, x0, 15	// D.7387, iftmp.57,
	and	x1, x1, -8	// D.7388, D.7387,
	str	x1, [x19]	// D.7388, argv.__stack
	b	.L84		//
.L85:
	ldr	x2, [x19, 8]	// D.7390, argv.__gr_top
	sxtw	x0, w1	// D.7391, D.7374
	add	x0, x2, x0	// iftmp.57, D.7390, D.7391
.L84:
	ldr	x0, [x0]	// tmp206, *iftmp.56_64
	str	x0, [sp, 72]	// tmp206, e
// varargs-dll.c:74:   long f = va_arg (argv, long);
	ldr	w1, [x19, 24]	// D.7392, argv.__gr_offs
	ldr	x0, [x19]	// iftmp.59, argv.__stack
	cmp	w1, 0	// D.7392,
	blt	.L87		//,
	add	x1, x0, 15	// D.7397, iftmp.59,
	and	x1, x1, -8	// D.7398, D.7397,
	str	x1, [x19]	// D.7398, argv.__stack
	b	.L88		//
.L87:
	add	w2, w1, 8	// D.7400, D.7392,
	str	w2, [x19, 24]	// D.7400, argv.__gr_offs
	ldr	w2, [x19, 24]	// D.7402, argv.__gr_offs
	cmp	w2, 0	// D.7402,
	ble	.L89		//,
	add	x1, x0, 15	// D.7405, iftmp.59,
	and	x1, x1, -8	// D.7406, D.7405,
	str	x1, [x19]	// D.7406, argv.__stack
	b	.L88		//
.L89:
	ldr	x2, [x19, 8]	// D.7408, argv.__gr_top
	sxtw	x0, w1	// D.7409, D.7392
	add	x0, x2, x0	// iftmp.59, D.7408, D.7409
.L88:
	ldr	x0, [x0]	// tmp207, *iftmp.58_66
	str	x0, [sp, 80]	// tmp207, f
// varargs-dll.c:75:   long g = va_arg (argv, long);
	ldr	w1, [x19, 24]	// D.7410, argv.__gr_offs
	ldr	x0, [x19]	// iftmp.61, argv.__stack
	cmp	w1, 0	// D.7410,
	blt	.L91		//,
	add	x1, x0, 15	// D.7415, iftmp.61,
	and	x1, x1, -8	// D.7416, D.7415,
	str	x1, [x19]	// D.7416, argv.__stack
	b	.L92		//
.L91:
	add	w2, w1, 8	// D.7418, D.7410,
	str	w2, [x19, 24]	// D.7418, argv.__gr_offs
	ldr	w2, [x19, 24]	// D.7420, argv.__gr_offs
	cmp	w2, 0	// D.7420,
	ble	.L93		//,
	add	x1, x0, 15	// D.7423, iftmp.61,
	and	x1, x1, -8	// D.7424, D.7423,
	str	x1, [x19]	// D.7424, argv.__stack
	b	.L92		//
.L93:
	ldr	x2, [x19, 8]	// D.7426, argv.__gr_top
	sxtw	x0, w1	// D.7427, D.7410
	add	x0, x2, x0	// iftmp.61, D.7426, D.7427
.L92:
	ldr	x0, [x0]	// tmp208, *iftmp.60_68
	str	x0, [sp, 88]	// tmp208, g
// varargs-dll.c:76:   long h = va_arg (argv, long);
	ldr	w1, [x19, 24]	// D.7428, argv.__gr_offs
	ldr	x0, [x19]	// iftmp.63, argv.__stack
	cmp	w1, 0	// D.7428,
	blt	.L95		//,
	add	x1, x0, 15	// D.7433, iftmp.63,
	and	x1, x1, -8	// D.7434, D.7433,
	str	x1, [x19]	// D.7434, argv.__stack
	b	.L96		//
.L95:
	add	w2, w1, 8	// D.7436, D.7428,
	str	w2, [x19, 24]	// D.7436, argv.__gr_offs
	ldr	w2, [x19, 24]	// D.7438, argv.__gr_offs
	cmp	w2, 0	// D.7438,
	ble	.L97		//,
	add	x1, x0, 15	// D.7441, iftmp.63,
	and	x1, x1, -8	// D.7442, D.7441,
	str	x1, [x19]	// D.7442, argv.__stack
	b	.L96		//
.L97:
	ldr	x2, [x19, 8]	// D.7444, argv.__gr_top
	sxtw	x0, w1	// D.7445, D.7428
	add	x0, x2, x0	// iftmp.63, D.7444, D.7445
.L96:
	ldr	x0, [x0]	// tmp209, *iftmp.62_70
	str	x0, [sp, 96]	// tmp209, h
// varargs-dll.c:77:   long i = va_arg (argv, long);
	ldr	w1, [x19, 24]	// D.7446, argv.__gr_offs
	ldr	x0, [x19]	// iftmp.65, argv.__stack
	cmp	w1, 0	// D.7446,
	blt	.L99		//,
	add	x1, x0, 15	// D.7451, iftmp.65,
	and	x1, x1, -8	// D.7452, D.7451,
	str	x1, [x19]	// D.7452, argv.__stack
	b	.L100		//
.L99:
	add	w2, w1, 8	// D.7454, D.7446,
	str	w2, [x19, 24]	// D.7454, argv.__gr_offs
	ldr	w2, [x19, 24]	// D.7456, argv.__gr_offs
	cmp	w2, 0	// D.7456,
	ble	.L101		//,
	add	x1, x0, 15	// D.7459, iftmp.65,
	and	x1, x1, -8	// D.7460, D.7459,
	str	x1, [x19]	// D.7460, argv.__stack
	b	.L100		//
.L101:
	ldr	x2, [x19, 8]	// D.7462, argv.__gr_top
	sxtw	x0, w1	// D.7463, D.7446
	add	x0, x2, x0	// iftmp.65, D.7462, D.7463
.L100:
	ldr	x0, [x0]	// tmp210, *iftmp.64_72
	str	x0, [sp, 104]	// tmp210, i
// varargs-dll.c:78:   return a + b + c + d + e + f + g + h + i;
	ldr	x0, [sp, 40]	// tmp211, a
	mov	w1, w0	// _1, tmp211
	ldr	x0, [sp, 48]	// tmp212, b
	add	w0, w1, w0	// _3, _1, _2
// varargs-dll.c:78:   return a + b + c + d + e + f + g + h + i;
	ldr	x1, [sp, 56]	// tmp213, c
	add	w0, w0, w1	// _5, _3, _4
// varargs-dll.c:78:   return a + b + c + d + e + f + g + h + i;
	ldr	x1, [sp, 64]	// tmp214, d
	add	w0, w0, w1	// _7, _5, _6
// varargs-dll.c:78:   return a + b + c + d + e + f + g + h + i;
	ldr	x1, [sp, 72]	// tmp215, e
	add	w0, w0, w1	// _9, _7, _8
// varargs-dll.c:78:   return a + b + c + d + e + f + g + h + i;
	ldr	x1, [sp, 80]	// tmp216, f
	add	w0, w0, w1	// _11, _9, _10
// varargs-dll.c:78:   return a + b + c + d + e + f + g + h + i;
	ldr	x1, [sp, 88]	// tmp217, g
	add	w0, w0, w1	// _13, _11, _12
// varargs-dll.c:78:   return a + b + c + d + e + f + g + h + i;
	ldr	x1, [sp, 96]	// tmp218, h
	add	w0, w0, w1	// _15, _13, _14
// varargs-dll.c:78:   return a + b + c + d + e + f + g + h + i;
	ldr	x1, [sp, 104]	// tmp219, i
	add	w0, w0, w1	// _17, _15, _16
// varargs-dll.c:79: }
	ldr	x19, [sp], 112	//,
	.cfi_restore 19
	.cfi_def_cfa_offset 0
	ret	
	.cfi_endproc
.LFE11:
	.size	use_va_list_several_longs, .-use_va_list_several_longs
	.align	2
	.global	use_va_args_many_longs
	.type	use_va_args_many_longs, %function
use_va_args_many_longs:
.LFB12:
	.cfi_startproc
	stp	x29, x30, [sp, -400]!	//,,,
	.cfi_def_cfa_offset 400
	.cfi_offset 29, -400
	.cfi_offset 30, -392
	mov	x29, sp	//,
	str	x0, [sp, 24]	// format, format
	str	x1, [sp, 344]	//,
	str	x2, [sp, 352]	//,
	str	x3, [sp, 360]	//,
	str	x4, [sp, 368]	//,
	str	x5, [sp, 376]	//,
	str	x6, [sp, 384]	//,
	str	x7, [sp, 392]	//,
	str	q0, [sp, 208]	//,
	str	q1, [sp, 224]	//,
	str	q2, [sp, 240]	//,
	str	q3, [sp, 256]	//,
	str	q4, [sp, 272]	//,
	str	q5, [sp, 288]	//,
	str	q6, [sp, 304]	//,
	str	q7, [sp, 320]	//,
// varargs-dll.c:83: {
	adrp	x0, :got:__stack_chk_guard	// tmp298,
	ldr	x0, [x0, #:got_lo12:__stack_chk_guard]	// tmp297, tmp298,
	ldr	x1, [x0]	// tmp340,
	str	x1, [sp, 200]	// tmp340, D.7770
	mov	x1, 0	// tmp340
// varargs-dll.c:85:   va_start (argv, format);
	add	x0, sp, 400	// tmp345,,
	str	x0, [sp, 168]	// tmp345, MEM[(struct  *)&argv].__stack
	add	x0, sp, 400	// tmp346,,
	str	x0, [sp, 176]	// tmp346, MEM[(struct  *)&argv].__gr_top
	add	x0, sp, 336	// tmp300,,
	str	x0, [sp, 184]	// tmp300, MEM[(struct  *)&argv].__vr_top
	mov	w0, -56	// tmp301,
	str	w0, [sp, 192]	// tmp301, MEM[(struct  *)&argv].__gr_offs
	mov	w0, -128	// tmp302,
	str	w0, [sp, 196]	// tmp302, MEM[(struct  *)&argv].__vr_offs
// varargs-dll.c:86:   long a = va_arg (argv, long);
	ldr	w1, [sp, 192]	// D.7464, argv.__gr_offs
	ldr	x0, [sp, 168]	// iftmp.67, argv.__stack
	cmp	w1, 0	// D.7464,
	blt	.L105		//,
	add	x1, x0, 15	// D.7469, iftmp.67,
	and	x1, x1, -8	// D.7470, D.7469,
	str	x1, [sp, 168]	// D.7470, argv.__stack
	b	.L106		//
.L105:
	add	w2, w1, 8	// D.7472, D.7464,
	str	w2, [sp, 192]	// D.7472, argv.__gr_offs
	ldr	w2, [sp, 192]	// D.7474, argv.__gr_offs
	cmp	w2, 0	// D.7474,
	ble	.L107		//,
	add	x1, x0, 15	// D.7477, iftmp.67,
	and	x1, x1, -8	// D.7478, D.7477,
	str	x1, [sp, 168]	// D.7478, argv.__stack
	b	.L106		//
.L107:
	ldr	x2, [sp, 176]	// D.7480, argv.__gr_top
	sxtw	x0, w1	// D.7481, D.7464
	add	x0, x2, x0	// iftmp.67, D.7480, D.7481
.L106:
	ldr	x0, [x0]	// tmp303, *iftmp.66_107
	str	x0, [sp, 32]	// tmp303, a
// varargs-dll.c:87:   long b = va_arg (argv, long);
	ldr	w1, [sp, 192]	// D.7482, argv.__gr_offs
	ldr	x0, [sp, 168]	// iftmp.69, argv.__stack
	cmp	w1, 0	// D.7482,
	blt	.L109		//,
	add	x1, x0, 15	// D.7487, iftmp.69,
	and	x1, x1, -8	// D.7488, D.7487,
	str	x1, [sp, 168]	// D.7488, argv.__stack
	b	.L110		//
.L109:
	add	w2, w1, 8	// D.7490, D.7482,
	str	w2, [sp, 192]	// D.7490, argv.__gr_offs
	ldr	w2, [sp, 192]	// D.7492, argv.__gr_offs
	cmp	w2, 0	// D.7492,
	ble	.L111		//,
	add	x1, x0, 15	// D.7495, iftmp.69,
	and	x1, x1, -8	// D.7496, D.7495,
	str	x1, [sp, 168]	// D.7496, argv.__stack
	b	.L110		//
.L111:
	ldr	x2, [sp, 176]	// D.7498, argv.__gr_top
	sxtw	x0, w1	// D.7499, D.7482
	add	x0, x2, x0	// iftmp.69, D.7498, D.7499
.L110:
	ldr	x0, [x0]	// tmp304, *iftmp.68_109
	str	x0, [sp, 40]	// tmp304, b
// varargs-dll.c:88:   long c = va_arg (argv, long);
	ldr	w1, [sp, 192]	// D.7500, argv.__gr_offs
	ldr	x0, [sp, 168]	// iftmp.71, argv.__stack
	cmp	w1, 0	// D.7500,
	blt	.L113		//,
	add	x1, x0, 15	// D.7505, iftmp.71,
	and	x1, x1, -8	// D.7506, D.7505,
	str	x1, [sp, 168]	// D.7506, argv.__stack
	b	.L114		//
.L113:
	add	w2, w1, 8	// D.7508, D.7500,
	str	w2, [sp, 192]	// D.7508, argv.__gr_offs
	ldr	w2, [sp, 192]	// D.7510, argv.__gr_offs
	cmp	w2, 0	// D.7510,
	ble	.L115		//,
	add	x1, x0, 15	// D.7513, iftmp.71,
	and	x1, x1, -8	// D.7514, D.7513,
	str	x1, [sp, 168]	// D.7514, argv.__stack
	b	.L114		//
.L115:
	ldr	x2, [sp, 176]	// D.7516, argv.__gr_top
	sxtw	x0, w1	// D.7517, D.7500
	add	x0, x2, x0	// iftmp.71, D.7516, D.7517
.L114:
	ldr	x0, [x0]	// tmp305, *iftmp.70_111
	str	x0, [sp, 48]	// tmp305, c
// varargs-dll.c:89:   long d = va_arg (argv, long);
	ldr	w1, [sp, 192]	// D.7518, argv.__gr_offs
	ldr	x0, [sp, 168]	// iftmp.73, argv.__stack
	cmp	w1, 0	// D.7518,
	blt	.L117		//,
	add	x1, x0, 15	// D.7523, iftmp.73,
	and	x1, x1, -8	// D.7524, D.7523,
	str	x1, [sp, 168]	// D.7524, argv.__stack
	b	.L118		//
.L117:
	add	w2, w1, 8	// D.7526, D.7518,
	str	w2, [sp, 192]	// D.7526, argv.__gr_offs
	ldr	w2, [sp, 192]	// D.7528, argv.__gr_offs
	cmp	w2, 0	// D.7528,
	ble	.L119		//,
	add	x1, x0, 15	// D.7531, iftmp.73,
	and	x1, x1, -8	// D.7532, D.7531,
	str	x1, [sp, 168]	// D.7532, argv.__stack
	b	.L118		//
.L119:
	ldr	x2, [sp, 176]	// D.7534, argv.__gr_top
	sxtw	x0, w1	// D.7535, D.7518
	add	x0, x2, x0	// iftmp.73, D.7534, D.7535
.L118:
	ldr	x0, [x0]	// tmp306, *iftmp.72_113
	str	x0, [sp, 56]	// tmp306, d
// varargs-dll.c:90:   long e = va_arg (argv, long);
	ldr	w1, [sp, 192]	// D.7536, argv.__gr_offs
	ldr	x0, [sp, 168]	// iftmp.75, argv.__stack
	cmp	w1, 0	// D.7536,
	blt	.L121		//,
	add	x1, x0, 15	// D.7541, iftmp.75,
	and	x1, x1, -8	// D.7542, D.7541,
	str	x1, [sp, 168]	// D.7542, argv.__stack
	b	.L122		//
.L121:
	add	w2, w1, 8	// D.7544, D.7536,
	str	w2, [sp, 192]	// D.7544, argv.__gr_offs
	ldr	w2, [sp, 192]	// D.7546, argv.__gr_offs
	cmp	w2, 0	// D.7546,
	ble	.L123		//,
	add	x1, x0, 15	// D.7549, iftmp.75,
	and	x1, x1, -8	// D.7550, D.7549,
	str	x1, [sp, 168]	// D.7550, argv.__stack
	b	.L122		//
.L123:
	ldr	x2, [sp, 176]	// D.7552, argv.__gr_top
	sxtw	x0, w1	// D.7553, D.7536
	add	x0, x2, x0	// iftmp.75, D.7552, D.7553
.L122:
	ldr	x0, [x0]	// tmp307, *iftmp.74_115
	str	x0, [sp, 64]	// tmp307, e
// varargs-dll.c:91:   long f = va_arg (argv, long);
	ldr	w1, [sp, 192]	// D.7554, argv.__gr_offs
	ldr	x0, [sp, 168]	// iftmp.77, argv.__stack
	cmp	w1, 0	// D.7554,
	blt	.L125		//,
	add	x1, x0, 15	// D.7559, iftmp.77,
	and	x1, x1, -8	// D.7560, D.7559,
	str	x1, [sp, 168]	// D.7560, argv.__stack
	b	.L126		//
.L125:
	add	w2, w1, 8	// D.7562, D.7554,
	str	w2, [sp, 192]	// D.7562, argv.__gr_offs
	ldr	w2, [sp, 192]	// D.7564, argv.__gr_offs
	cmp	w2, 0	// D.7564,
	ble	.L127		//,
	add	x1, x0, 15	// D.7567, iftmp.77,
	and	x1, x1, -8	// D.7568, D.7567,
	str	x1, [sp, 168]	// D.7568, argv.__stack
	b	.L126		//
.L127:
	ldr	x2, [sp, 176]	// D.7570, argv.__gr_top
	sxtw	x0, w1	// D.7571, D.7554
	add	x0, x2, x0	// iftmp.77, D.7570, D.7571
.L126:
	ldr	x0, [x0]	// tmp308, *iftmp.76_117
	str	x0, [sp, 72]	// tmp308, f
// varargs-dll.c:92:   long g = va_arg (argv, long);
	ldr	w1, [sp, 192]	// D.7572, argv.__gr_offs
	ldr	x0, [sp, 168]	// iftmp.79, argv.__stack
	cmp	w1, 0	// D.7572,
	blt	.L129		//,
	add	x1, x0, 15	// D.7577, iftmp.79,
	and	x1, x1, -8	// D.7578, D.7577,
	str	x1, [sp, 168]	// D.7578, argv.__stack
	b	.L130		//
.L129:
	add	w2, w1, 8	// D.7580, D.7572,
	str	w2, [sp, 192]	// D.7580, argv.__gr_offs
	ldr	w2, [sp, 192]	// D.7582, argv.__gr_offs
	cmp	w2, 0	// D.7582,
	ble	.L131		//,
	add	x1, x0, 15	// D.7585, iftmp.79,
	and	x1, x1, -8	// D.7586, D.7585,
	str	x1, [sp, 168]	// D.7586, argv.__stack
	b	.L130		//
.L131:
	ldr	x2, [sp, 176]	// D.7588, argv.__gr_top
	sxtw	x0, w1	// D.7589, D.7572
	add	x0, x2, x0	// iftmp.79, D.7588, D.7589
.L130:
	ldr	x0, [x0]	// tmp309, *iftmp.78_119
	str	x0, [sp, 80]	// tmp309, g
// varargs-dll.c:93:   long h = va_arg (argv, long);
	ldr	w1, [sp, 192]	// D.7590, argv.__gr_offs
	ldr	x0, [sp, 168]	// iftmp.81, argv.__stack
	cmp	w1, 0	// D.7590,
	blt	.L133		//,
	add	x1, x0, 15	// D.7595, iftmp.81,
	and	x1, x1, -8	// D.7596, D.7595,
	str	x1, [sp, 168]	// D.7596, argv.__stack
	b	.L134		//
.L133:
	add	w2, w1, 8	// D.7598, D.7590,
	str	w2, [sp, 192]	// D.7598, argv.__gr_offs
	ldr	w2, [sp, 192]	// D.7600, argv.__gr_offs
	cmp	w2, 0	// D.7600,
	ble	.L135		//,
	add	x1, x0, 15	// D.7603, iftmp.81,
	and	x1, x1, -8	// D.7604, D.7603,
	str	x1, [sp, 168]	// D.7604, argv.__stack
	b	.L134		//
.L135:
	ldr	x2, [sp, 176]	// D.7606, argv.__gr_top
	sxtw	x0, w1	// D.7607, D.7590
	add	x0, x2, x0	// iftmp.81, D.7606, D.7607
.L134:
	ldr	x0, [x0]	// tmp310, *iftmp.80_121
	str	x0, [sp, 88]	// tmp310, h
// varargs-dll.c:94:   long i = va_arg (argv, long);
	ldr	w1, [sp, 192]	// D.7608, argv.__gr_offs
	ldr	x0, [sp, 168]	// iftmp.83, argv.__stack
	cmp	w1, 0	// D.7608,
	blt	.L137		//,
	add	x1, x0, 15	// D.7613, iftmp.83,
	and	x1, x1, -8	// D.7614, D.7613,
	str	x1, [sp, 168]	// D.7614, argv.__stack
	b	.L138		//
.L137:
	add	w2, w1, 8	// D.7616, D.7608,
	str	w2, [sp, 192]	// D.7616, argv.__gr_offs
	ldr	w2, [sp, 192]	// D.7618, argv.__gr_offs
	cmp	w2, 0	// D.7618,
	ble	.L139		//,
	add	x1, x0, 15	// D.7621, iftmp.83,
	and	x1, x1, -8	// D.7622, D.7621,
	str	x1, [sp, 168]	// D.7622, argv.__stack
	b	.L138		//
.L139:
	ldr	x2, [sp, 176]	// D.7624, argv.__gr_top
	sxtw	x0, w1	// D.7625, D.7608
	add	x0, x2, x0	// iftmp.83, D.7624, D.7625
.L138:
	ldr	x0, [x0]	// tmp311, *iftmp.82_123
	str	x0, [sp, 96]	// tmp311, i
// varargs-dll.c:95:   long j = va_arg (argv, long);
	ldr	w1, [sp, 192]	// D.7626, argv.__gr_offs
	ldr	x0, [sp, 168]	// iftmp.85, argv.__stack
	cmp	w1, 0	// D.7626,
	blt	.L141		//,
	add	x1, x0, 15	// D.7631, iftmp.85,
	and	x1, x1, -8	// D.7632, D.7631,
	str	x1, [sp, 168]	// D.7632, argv.__stack
	b	.L142		//
.L141:
	add	w2, w1, 8	// D.7634, D.7626,
	str	w2, [sp, 192]	// D.7634, argv.__gr_offs
	ldr	w2, [sp, 192]	// D.7636, argv.__gr_offs
	cmp	w2, 0	// D.7636,
	ble	.L143		//,
	add	x1, x0, 15	// D.7639, iftmp.85,
	and	x1, x1, -8	// D.7640, D.7639,
	str	x1, [sp, 168]	// D.7640, argv.__stack
	b	.L142		//
.L143:
	ldr	x2, [sp, 176]	// D.7642, argv.__gr_top
	sxtw	x0, w1	// D.7643, D.7626
	add	x0, x2, x0	// iftmp.85, D.7642, D.7643
.L142:
	ldr	x0, [x0]	// tmp312, *iftmp.84_125
	str	x0, [sp, 104]	// tmp312, j
// varargs-dll.c:96:   long k = va_arg (argv, long);
	ldr	w1, [sp, 192]	// D.7644, argv.__gr_offs
	ldr	x0, [sp, 168]	// iftmp.87, argv.__stack
	cmp	w1, 0	// D.7644,
	blt	.L145		//,
	add	x1, x0, 15	// D.7649, iftmp.87,
	and	x1, x1, -8	// D.7650, D.7649,
	str	x1, [sp, 168]	// D.7650, argv.__stack
	b	.L146		//
.L145:
	add	w2, w1, 8	// D.7652, D.7644,
	str	w2, [sp, 192]	// D.7652, argv.__gr_offs
	ldr	w2, [sp, 192]	// D.7654, argv.__gr_offs
	cmp	w2, 0	// D.7654,
	ble	.L147		//,
	add	x1, x0, 15	// D.7657, iftmp.87,
	and	x1, x1, -8	// D.7658, D.7657,
	str	x1, [sp, 168]	// D.7658, argv.__stack
	b	.L146		//
.L147:
	ldr	x2, [sp, 176]	// D.7660, argv.__gr_top
	sxtw	x0, w1	// D.7661, D.7644
	add	x0, x2, x0	// iftmp.87, D.7660, D.7661
.L146:
	ldr	x0, [x0]	// tmp313, *iftmp.86_127
	str	x0, [sp, 112]	// tmp313, k
// varargs-dll.c:97:   long l = va_arg (argv, long);
	ldr	w1, [sp, 192]	// D.7662, argv.__gr_offs
	ldr	x0, [sp, 168]	// iftmp.89, argv.__stack
	cmp	w1, 0	// D.7662,
	blt	.L149		//,
	add	x1, x0, 15	// D.7667, iftmp.89,
	and	x1, x1, -8	// D.7668, D.7667,
	str	x1, [sp, 168]	// D.7668, argv.__stack
	b	.L150		//
.L149:
	add	w2, w1, 8	// D.7670, D.7662,
	str	w2, [sp, 192]	// D.7670, argv.__gr_offs
	ldr	w2, [sp, 192]	// D.7672, argv.__gr_offs
	cmp	w2, 0	// D.7672,
	ble	.L151		//,
	add	x1, x0, 15	// D.7675, iftmp.89,
	and	x1, x1, -8	// D.7676, D.7675,
	str	x1, [sp, 168]	// D.7676, argv.__stack
	b	.L150		//
.L151:
	ldr	x2, [sp, 176]	// D.7678, argv.__gr_top
	sxtw	x0, w1	// D.7679, D.7662
	add	x0, x2, x0	// iftmp.89, D.7678, D.7679
.L150:
	ldr	x0, [x0]	// tmp314, *iftmp.88_129
	str	x0, [sp, 120]	// tmp314, l
// varargs-dll.c:98:   long m = va_arg (argv, long);
	ldr	w1, [sp, 192]	// D.7680, argv.__gr_offs
	ldr	x0, [sp, 168]	// iftmp.91, argv.__stack
	cmp	w1, 0	// D.7680,
	blt	.L153		//,
	add	x1, x0, 15	// D.7685, iftmp.91,
	and	x1, x1, -8	// D.7686, D.7685,
	str	x1, [sp, 168]	// D.7686, argv.__stack
	b	.L154		//
.L153:
	add	w2, w1, 8	// D.7688, D.7680,
	str	w2, [sp, 192]	// D.7688, argv.__gr_offs
	ldr	w2, [sp, 192]	// D.7690, argv.__gr_offs
	cmp	w2, 0	// D.7690,
	ble	.L155		//,
	add	x1, x0, 15	// D.7693, iftmp.91,
	and	x1, x1, -8	// D.7694, D.7693,
	str	x1, [sp, 168]	// D.7694, argv.__stack
	b	.L154		//
.L155:
	ldr	x2, [sp, 176]	// D.7696, argv.__gr_top
	sxtw	x0, w1	// D.7697, D.7680
	add	x0, x2, x0	// iftmp.91, D.7696, D.7697
.L154:
	ldr	x0, [x0]	// tmp315, *iftmp.90_131
	str	x0, [sp, 128]	// tmp315, m
// varargs-dll.c:99:   long n = va_arg (argv, long);
	ldr	w1, [sp, 192]	// D.7698, argv.__gr_offs
	ldr	x0, [sp, 168]	// iftmp.93, argv.__stack
	cmp	w1, 0	// D.7698,
	blt	.L157		//,
	add	x1, x0, 15	// D.7703, iftmp.93,
	and	x1, x1, -8	// D.7704, D.7703,
	str	x1, [sp, 168]	// D.7704, argv.__stack
	b	.L158		//
.L157:
	add	w2, w1, 8	// D.7706, D.7698,
	str	w2, [sp, 192]	// D.7706, argv.__gr_offs
	ldr	w2, [sp, 192]	// D.7708, argv.__gr_offs
	cmp	w2, 0	// D.7708,
	ble	.L159		//,
	add	x1, x0, 15	// D.7711, iftmp.93,
	and	x1, x1, -8	// D.7712, D.7711,
	str	x1, [sp, 168]	// D.7712, argv.__stack
	b	.L158		//
.L159:
	ldr	x2, [sp, 176]	// D.7714, argv.__gr_top
	sxtw	x0, w1	// D.7715, D.7698
	add	x0, x2, x0	// iftmp.93, D.7714, D.7715
.L158:
	ldr	x0, [x0]	// tmp316, *iftmp.92_133
	str	x0, [sp, 136]	// tmp316, n
// varargs-dll.c:100:   long o = va_arg (argv, long);
	ldr	w1, [sp, 192]	// D.7716, argv.__gr_offs
	ldr	x0, [sp, 168]	// iftmp.95, argv.__stack
	cmp	w1, 0	// D.7716,
	blt	.L161		//,
	add	x1, x0, 15	// D.7721, iftmp.95,
	and	x1, x1, -8	// D.7722, D.7721,
	str	x1, [sp, 168]	// D.7722, argv.__stack
	b	.L162		//
.L161:
	add	w2, w1, 8	// D.7724, D.7716,
	str	w2, [sp, 192]	// D.7724, argv.__gr_offs
	ldr	w2, [sp, 192]	// D.7726, argv.__gr_offs
	cmp	w2, 0	// D.7726,
	ble	.L163		//,
	add	x1, x0, 15	// D.7729, iftmp.95,
	and	x1, x1, -8	// D.7730, D.7729,
	str	x1, [sp, 168]	// D.7730, argv.__stack
	b	.L162		//
.L163:
	ldr	x2, [sp, 176]	// D.7732, argv.__gr_top
	sxtw	x0, w1	// D.7733, D.7716
	add	x0, x2, x0	// iftmp.95, D.7732, D.7733
.L162:
	ldr	x0, [x0]	// tmp317, *iftmp.94_135
	str	x0, [sp, 144]	// tmp317, o
// varargs-dll.c:101:   long p = va_arg (argv, long);
	ldr	w1, [sp, 192]	// D.7734, argv.__gr_offs
	ldr	x0, [sp, 168]	// iftmp.97, argv.__stack
	cmp	w1, 0	// D.7734,
	blt	.L165		//,
	add	x1, x0, 15	// D.7739, iftmp.97,
	and	x1, x1, -8	// D.7740, D.7739,
	str	x1, [sp, 168]	// D.7740, argv.__stack
	b	.L166		//
.L165:
	add	w2, w1, 8	// D.7742, D.7734,
	str	w2, [sp, 192]	// D.7742, argv.__gr_offs
	ldr	w2, [sp, 192]	// D.7744, argv.__gr_offs
	cmp	w2, 0	// D.7744,
	ble	.L167		//,
	add	x1, x0, 15	// D.7747, iftmp.97,
	and	x1, x1, -8	// D.7748, D.7747,
	str	x1, [sp, 168]	// D.7748, argv.__stack
	b	.L166		//
.L167:
	ldr	x2, [sp, 176]	// D.7750, argv.__gr_top
	sxtw	x0, w1	// D.7751, D.7734
	add	x0, x2, x0	// iftmp.97, D.7750, D.7751
.L166:
	ldr	x0, [x0]	// tmp318, *iftmp.96_137
	str	x0, [sp, 152]	// tmp318, p
// varargs-dll.c:102:   long q = va_arg (argv, long);
	ldr	w1, [sp, 192]	// D.7752, argv.__gr_offs
	ldr	x0, [sp, 168]	// iftmp.99, argv.__stack
	cmp	w1, 0	// D.7752,
	blt	.L169		//,
	add	x1, x0, 15	// D.7757, iftmp.99,
	and	x1, x1, -8	// D.7758, D.7757,
	str	x1, [sp, 168]	// D.7758, argv.__stack
	b	.L170		//
.L169:
	add	w2, w1, 8	// D.7760, D.7752,
	str	w2, [sp, 192]	// D.7760, argv.__gr_offs
	ldr	w2, [sp, 192]	// D.7762, argv.__gr_offs
	cmp	w2, 0	// D.7762,
	ble	.L171		//,
	add	x1, x0, 15	// D.7765, iftmp.99,
	and	x1, x1, -8	// D.7766, D.7765,
	str	x1, [sp, 168]	// D.7766, argv.__stack
	b	.L170		//
.L171:
	ldr	x2, [sp, 176]	// D.7768, argv.__gr_top
	sxtw	x0, w1	// D.7769, D.7752
	add	x0, x2, x0	// iftmp.99, D.7768, D.7769
.L170:
	ldr	x0, [x0]	// tmp319, *iftmp.98_139
	str	x0, [sp, 160]	// tmp319, q
// varargs-dll.c:104:   return a + b + c + d + e + f + g + h + i + j + k + l + m + n + o + p + q;
	ldr	x0, [sp, 32]	// tmp320, a
	mov	w1, w0	// _1, tmp320
	ldr	x0, [sp, 40]	// tmp321, b
	add	w0, w1, w0	// _3, _1, _2
// varargs-dll.c:104:   return a + b + c + d + e + f + g + h + i + j + k + l + m + n + o + p + q;
	ldr	x1, [sp, 48]	// tmp322, c
	add	w0, w0, w1	// _5, _3, _4
// varargs-dll.c:104:   return a + b + c + d + e + f + g + h + i + j + k + l + m + n + o + p + q;
	ldr	x1, [sp, 56]	// tmp323, d
	add	w0, w0, w1	// _7, _5, _6
// varargs-dll.c:104:   return a + b + c + d + e + f + g + h + i + j + k + l + m + n + o + p + q;
	ldr	x1, [sp, 64]	// tmp324, e
	add	w0, w0, w1	// _9, _7, _8
// varargs-dll.c:104:   return a + b + c + d + e + f + g + h + i + j + k + l + m + n + o + p + q;
	ldr	x1, [sp, 72]	// tmp325, f
	add	w0, w0, w1	// _11, _9, _10
// varargs-dll.c:104:   return a + b + c + d + e + f + g + h + i + j + k + l + m + n + o + p + q;
	ldr	x1, [sp, 80]	// tmp326, g
	add	w0, w0, w1	// _13, _11, _12
// varargs-dll.c:104:   return a + b + c + d + e + f + g + h + i + j + k + l + m + n + o + p + q;
	ldr	x1, [sp, 88]	// tmp327, h
	add	w0, w0, w1	// _15, _13, _14
// varargs-dll.c:104:   return a + b + c + d + e + f + g + h + i + j + k + l + m + n + o + p + q;
	ldr	x1, [sp, 96]	// tmp328, i
	add	w0, w0, w1	// _17, _15, _16
// varargs-dll.c:104:   return a + b + c + d + e + f + g + h + i + j + k + l + m + n + o + p + q;
	ldr	x1, [sp, 104]	// tmp329, j
	add	w0, w0, w1	// _19, _17, _18
// varargs-dll.c:104:   return a + b + c + d + e + f + g + h + i + j + k + l + m + n + o + p + q;
	ldr	x1, [sp, 112]	// tmp330, k
	add	w0, w0, w1	// _21, _19, _20
// varargs-dll.c:104:   return a + b + c + d + e + f + g + h + i + j + k + l + m + n + o + p + q;
	ldr	x1, [sp, 120]	// tmp331, l
	add	w0, w0, w1	// _23, _21, _22
// varargs-dll.c:104:   return a + b + c + d + e + f + g + h + i + j + k + l + m + n + o + p + q;
	ldr	x1, [sp, 128]	// tmp332, m
	add	w0, w0, w1	// _25, _23, _24
// varargs-dll.c:104:   return a + b + c + d + e + f + g + h + i + j + k + l + m + n + o + p + q;
	ldr	x1, [sp, 136]	// tmp333, n
	add	w0, w0, w1	// _27, _25, _26
// varargs-dll.c:104:   return a + b + c + d + e + f + g + h + i + j + k + l + m + n + o + p + q;
	ldr	x1, [sp, 144]	// tmp334, o
	add	w0, w0, w1	// _29, _27, _28
// varargs-dll.c:104:   return a + b + c + d + e + f + g + h + i + j + k + l + m + n + o + p + q;
	ldr	x1, [sp, 152]	// tmp335, p
	add	w0, w0, w1	// _31, _29, _30
// varargs-dll.c:104:   return a + b + c + d + e + f + g + h + i + j + k + l + m + n + o + p + q;
	ldr	x1, [sp, 160]	// tmp336, q
	add	w0, w0, w1	// _33, _31, _32
	mov	w1, w0	// <retval>, _71
// varargs-dll.c:105: }
	adrp	x0, :got:__stack_chk_guard	// tmp339,
	ldr	x0, [x0, #:got_lo12:__stack_chk_guard]	// tmp338, tmp339,
	ldr	x3, [sp, 200]	// tmp341, D.7770
	ldr	x2, [x0]	// tmp342,
	subs	x3, x3, x2	// tmp341, tmp342
	mov	x2, 0	// tmp342
	beq	.L174		//,
	bl	__stack_chk_fail		//
.L174:
	mov	w0, w1	//, <retval>
	ldp	x29, x30, [sp], 400	//,,,
	.cfi_restore 30
	.cfi_restore 29
	.cfi_def_cfa_offset 0
	ret	
	.cfi_endproc
.LFE12:
	.size	use_va_args_many_longs, .-use_va_args_many_longs
	.align	2
	.global	use_va_list_many_longs
	.type	use_va_list_many_longs, %function
use_va_list_many_longs:
.LFB13:
	.cfi_startproc
	str	x19, [sp, -176]!	//,
	.cfi_def_cfa_offset 176
	.cfi_offset 19, -176
	str	x0, [sp, 24]	// format, format
	mov	x19, x1	// tmp297,
// varargs-dll.c:110:   long a = va_arg (argv, long);
	ldr	w1, [x19, 24]	// D.7774, argv.__gr_offs
	ldr	x0, [x19]	// iftmp.101, argv.__stack
	cmp	w1, 0	// D.7774,
	blt	.L176		//,
	add	x1, x0, 15	// D.7779, iftmp.101,
	and	x1, x1, -8	// D.7780, D.7779,
	str	x1, [x19]	// D.7780, argv.__stack
	b	.L177		//
.L176:
	add	w2, w1, 8	// D.7782, D.7774,
	str	w2, [x19, 24]	// D.7782, argv.__gr_offs
	ldr	w2, [x19, 24]	// D.7784, argv.__gr_offs
	cmp	w2, 0	// D.7784,
	ble	.L178		//,
	add	x1, x0, 15	// D.7787, iftmp.101,
	and	x1, x1, -8	// D.7788, D.7787,
	str	x1, [x19]	// D.7788, argv.__stack
	b	.L177		//
.L178:
	ldr	x2, [x19, 8]	// D.7790, argv.__gr_top
	sxtw	x0, w1	// D.7791, D.7774
	add	x0, x2, x0	// iftmp.101, D.7790, D.7791
.L177:
	ldr	x0, [x0]	// tmp298, *iftmp.100_104
	str	x0, [sp, 40]	// tmp298, a
// varargs-dll.c:111:   long b = va_arg (argv, long);
	ldr	w1, [x19, 24]	// D.7792, argv.__gr_offs
	ldr	x0, [x19]	// iftmp.103, argv.__stack
	cmp	w1, 0	// D.7792,
	blt	.L180		//,
	add	x1, x0, 15	// D.7797, iftmp.103,
	and	x1, x1, -8	// D.7798, D.7797,
	str	x1, [x19]	// D.7798, argv.__stack
	b	.L181		//
.L180:
	add	w2, w1, 8	// D.7800, D.7792,
	str	w2, [x19, 24]	// D.7800, argv.__gr_offs
	ldr	w2, [x19, 24]	// D.7802, argv.__gr_offs
	cmp	w2, 0	// D.7802,
	ble	.L182		//,
	add	x1, x0, 15	// D.7805, iftmp.103,
	and	x1, x1, -8	// D.7806, D.7805,
	str	x1, [x19]	// D.7806, argv.__stack
	b	.L181		//
.L182:
	ldr	x2, [x19, 8]	// D.7808, argv.__gr_top
	sxtw	x0, w1	// D.7809, D.7792
	add	x0, x2, x0	// iftmp.103, D.7808, D.7809
.L181:
	ldr	x0, [x0]	// tmp299, *iftmp.102_106
	str	x0, [sp, 48]	// tmp299, b
// varargs-dll.c:112:   long c = va_arg (argv, long);
	ldr	w1, [x19, 24]	// D.7810, argv.__gr_offs
	ldr	x0, [x19]	// iftmp.105, argv.__stack
	cmp	w1, 0	// D.7810,
	blt	.L184		//,
	add	x1, x0, 15	// D.7815, iftmp.105,
	and	x1, x1, -8	// D.7816, D.7815,
	str	x1, [x19]	// D.7816, argv.__stack
	b	.L185		//
.L184:
	add	w2, w1, 8	// D.7818, D.7810,
	str	w2, [x19, 24]	// D.7818, argv.__gr_offs
	ldr	w2, [x19, 24]	// D.7820, argv.__gr_offs
	cmp	w2, 0	// D.7820,
	ble	.L186		//,
	add	x1, x0, 15	// D.7823, iftmp.105,
	and	x1, x1, -8	// D.7824, D.7823,
	str	x1, [x19]	// D.7824, argv.__stack
	b	.L185		//
.L186:
	ldr	x2, [x19, 8]	// D.7826, argv.__gr_top
	sxtw	x0, w1	// D.7827, D.7810
	add	x0, x2, x0	// iftmp.105, D.7826, D.7827
.L185:
	ldr	x0, [x0]	// tmp300, *iftmp.104_108
	str	x0, [sp, 56]	// tmp300, c
// varargs-dll.c:113:   long d = va_arg (argv, long);
	ldr	w1, [x19, 24]	// D.7828, argv.__gr_offs
	ldr	x0, [x19]	// iftmp.107, argv.__stack
	cmp	w1, 0	// D.7828,
	blt	.L188		//,
	add	x1, x0, 15	// D.7833, iftmp.107,
	and	x1, x1, -8	// D.7834, D.7833,
	str	x1, [x19]	// D.7834, argv.__stack
	b	.L189		//
.L188:
	add	w2, w1, 8	// D.7836, D.7828,
	str	w2, [x19, 24]	// D.7836, argv.__gr_offs
	ldr	w2, [x19, 24]	// D.7838, argv.__gr_offs
	cmp	w2, 0	// D.7838,
	ble	.L190		//,
	add	x1, x0, 15	// D.7841, iftmp.107,
	and	x1, x1, -8	// D.7842, D.7841,
	str	x1, [x19]	// D.7842, argv.__stack
	b	.L189		//
.L190:
	ldr	x2, [x19, 8]	// D.7844, argv.__gr_top
	sxtw	x0, w1	// D.7845, D.7828
	add	x0, x2, x0	// iftmp.107, D.7844, D.7845
.L189:
	ldr	x0, [x0]	// tmp301, *iftmp.106_110
	str	x0, [sp, 64]	// tmp301, d
// varargs-dll.c:114:   long e = va_arg (argv, long);
	ldr	w1, [x19, 24]	// D.7846, argv.__gr_offs
	ldr	x0, [x19]	// iftmp.109, argv.__stack
	cmp	w1, 0	// D.7846,
	blt	.L192		//,
	add	x1, x0, 15	// D.7851, iftmp.109,
	and	x1, x1, -8	// D.7852, D.7851,
	str	x1, [x19]	// D.7852, argv.__stack
	b	.L193		//
.L192:
	add	w2, w1, 8	// D.7854, D.7846,
	str	w2, [x19, 24]	// D.7854, argv.__gr_offs
	ldr	w2, [x19, 24]	// D.7856, argv.__gr_offs
	cmp	w2, 0	// D.7856,
	ble	.L194		//,
	add	x1, x0, 15	// D.7859, iftmp.109,
	and	x1, x1, -8	// D.7860, D.7859,
	str	x1, [x19]	// D.7860, argv.__stack
	b	.L193		//
.L194:
	ldr	x2, [x19, 8]	// D.7862, argv.__gr_top
	sxtw	x0, w1	// D.7863, D.7846
	add	x0, x2, x0	// iftmp.109, D.7862, D.7863
.L193:
	ldr	x0, [x0]	// tmp302, *iftmp.108_112
	str	x0, [sp, 72]	// tmp302, e
// varargs-dll.c:115:   long f = va_arg (argv, long);
	ldr	w1, [x19, 24]	// D.7864, argv.__gr_offs
	ldr	x0, [x19]	// iftmp.111, argv.__stack
	cmp	w1, 0	// D.7864,
	blt	.L196		//,
	add	x1, x0, 15	// D.7869, iftmp.111,
	and	x1, x1, -8	// D.7870, D.7869,
	str	x1, [x19]	// D.7870, argv.__stack
	b	.L197		//
.L196:
	add	w2, w1, 8	// D.7872, D.7864,
	str	w2, [x19, 24]	// D.7872, argv.__gr_offs
	ldr	w2, [x19, 24]	// D.7874, argv.__gr_offs
	cmp	w2, 0	// D.7874,
	ble	.L198		//,
	add	x1, x0, 15	// D.7877, iftmp.111,
	and	x1, x1, -8	// D.7878, D.7877,
	str	x1, [x19]	// D.7878, argv.__stack
	b	.L197		//
.L198:
	ldr	x2, [x19, 8]	// D.7880, argv.__gr_top
	sxtw	x0, w1	// D.7881, D.7864
	add	x0, x2, x0	// iftmp.111, D.7880, D.7881
.L197:
	ldr	x0, [x0]	// tmp303, *iftmp.110_114
	str	x0, [sp, 80]	// tmp303, f
// varargs-dll.c:116:   long g = va_arg (argv, long);
	ldr	w1, [x19, 24]	// D.7882, argv.__gr_offs
	ldr	x0, [x19]	// iftmp.113, argv.__stack
	cmp	w1, 0	// D.7882,
	blt	.L200		//,
	add	x1, x0, 15	// D.7887, iftmp.113,
	and	x1, x1, -8	// D.7888, D.7887,
	str	x1, [x19]	// D.7888, argv.__stack
	b	.L201		//
.L200:
	add	w2, w1, 8	// D.7890, D.7882,
	str	w2, [x19, 24]	// D.7890, argv.__gr_offs
	ldr	w2, [x19, 24]	// D.7892, argv.__gr_offs
	cmp	w2, 0	// D.7892,
	ble	.L202		//,
	add	x1, x0, 15	// D.7895, iftmp.113,
	and	x1, x1, -8	// D.7896, D.7895,
	str	x1, [x19]	// D.7896, argv.__stack
	b	.L201		//
.L202:
	ldr	x2, [x19, 8]	// D.7898, argv.__gr_top
	sxtw	x0, w1	// D.7899, D.7882
	add	x0, x2, x0	// iftmp.113, D.7898, D.7899
.L201:
	ldr	x0, [x0]	// tmp304, *iftmp.112_116
	str	x0, [sp, 88]	// tmp304, g
// varargs-dll.c:117:   long h = va_arg (argv, long);
	ldr	w1, [x19, 24]	// D.7900, argv.__gr_offs
	ldr	x0, [x19]	// iftmp.115, argv.__stack
	cmp	w1, 0	// D.7900,
	blt	.L204		//,
	add	x1, x0, 15	// D.7905, iftmp.115,
	and	x1, x1, -8	// D.7906, D.7905,
	str	x1, [x19]	// D.7906, argv.__stack
	b	.L205		//
.L204:
	add	w2, w1, 8	// D.7908, D.7900,
	str	w2, [x19, 24]	// D.7908, argv.__gr_offs
	ldr	w2, [x19, 24]	// D.7910, argv.__gr_offs
	cmp	w2, 0	// D.7910,
	ble	.L206		//,
	add	x1, x0, 15	// D.7913, iftmp.115,
	and	x1, x1, -8	// D.7914, D.7913,
	str	x1, [x19]	// D.7914, argv.__stack
	b	.L205		//
.L206:
	ldr	x2, [x19, 8]	// D.7916, argv.__gr_top
	sxtw	x0, w1	// D.7917, D.7900
	add	x0, x2, x0	// iftmp.115, D.7916, D.7917
.L205:
	ldr	x0, [x0]	// tmp305, *iftmp.114_118
	str	x0, [sp, 96]	// tmp305, h
// varargs-dll.c:118:   long i = va_arg (argv, long);
	ldr	w1, [x19, 24]	// D.7918, argv.__gr_offs
	ldr	x0, [x19]	// iftmp.117, argv.__stack
	cmp	w1, 0	// D.7918,
	blt	.L208		//,
	add	x1, x0, 15	// D.7923, iftmp.117,
	and	x1, x1, -8	// D.7924, D.7923,
	str	x1, [x19]	// D.7924, argv.__stack
	b	.L209		//
.L208:
	add	w2, w1, 8	// D.7926, D.7918,
	str	w2, [x19, 24]	// D.7926, argv.__gr_offs
	ldr	w2, [x19, 24]	// D.7928, argv.__gr_offs
	cmp	w2, 0	// D.7928,
	ble	.L210		//,
	add	x1, x0, 15	// D.7931, iftmp.117,
	and	x1, x1, -8	// D.7932, D.7931,
	str	x1, [x19]	// D.7932, argv.__stack
	b	.L209		//
.L210:
	ldr	x2, [x19, 8]	// D.7934, argv.__gr_top
	sxtw	x0, w1	// D.7935, D.7918
	add	x0, x2, x0	// iftmp.117, D.7934, D.7935
.L209:
	ldr	x0, [x0]	// tmp306, *iftmp.116_120
	str	x0, [sp, 104]	// tmp306, i
// varargs-dll.c:119:   long j = va_arg (argv, long);
	ldr	w1, [x19, 24]	// D.7936, argv.__gr_offs
	ldr	x0, [x19]	// iftmp.119, argv.__stack
	cmp	w1, 0	// D.7936,
	blt	.L212		//,
	add	x1, x0, 15	// D.7941, iftmp.119,
	and	x1, x1, -8	// D.7942, D.7941,
	str	x1, [x19]	// D.7942, argv.__stack
	b	.L213		//
.L212:
	add	w2, w1, 8	// D.7944, D.7936,
	str	w2, [x19, 24]	// D.7944, argv.__gr_offs
	ldr	w2, [x19, 24]	// D.7946, argv.__gr_offs
	cmp	w2, 0	// D.7946,
	ble	.L214		//,
	add	x1, x0, 15	// D.7949, iftmp.119,
	and	x1, x1, -8	// D.7950, D.7949,
	str	x1, [x19]	// D.7950, argv.__stack
	b	.L213		//
.L214:
	ldr	x2, [x19, 8]	// D.7952, argv.__gr_top
	sxtw	x0, w1	// D.7953, D.7936
	add	x0, x2, x0	// iftmp.119, D.7952, D.7953
.L213:
	ldr	x0, [x0]	// tmp307, *iftmp.118_122
	str	x0, [sp, 112]	// tmp307, j
// varargs-dll.c:120:   long k = va_arg (argv, long);
	ldr	w1, [x19, 24]	// D.7954, argv.__gr_offs
	ldr	x0, [x19]	// iftmp.121, argv.__stack
	cmp	w1, 0	// D.7954,
	blt	.L216		//,
	add	x1, x0, 15	// D.7959, iftmp.121,
	and	x1, x1, -8	// D.7960, D.7959,
	str	x1, [x19]	// D.7960, argv.__stack
	b	.L217		//
.L216:
	add	w2, w1, 8	// D.7962, D.7954,
	str	w2, [x19, 24]	// D.7962, argv.__gr_offs
	ldr	w2, [x19, 24]	// D.7964, argv.__gr_offs
	cmp	w2, 0	// D.7964,
	ble	.L218		//,
	add	x1, x0, 15	// D.7967, iftmp.121,
	and	x1, x1, -8	// D.7968, D.7967,
	str	x1, [x19]	// D.7968, argv.__stack
	b	.L217		//
.L218:
	ldr	x2, [x19, 8]	// D.7970, argv.__gr_top
	sxtw	x0, w1	// D.7971, D.7954
	add	x0, x2, x0	// iftmp.121, D.7970, D.7971
.L217:
	ldr	x0, [x0]	// tmp308, *iftmp.120_124
	str	x0, [sp, 120]	// tmp308, k
// varargs-dll.c:121:   long l = va_arg (argv, long);
	ldr	w1, [x19, 24]	// D.7972, argv.__gr_offs
	ldr	x0, [x19]	// iftmp.123, argv.__stack
	cmp	w1, 0	// D.7972,
	blt	.L220		//,
	add	x1, x0, 15	// D.7977, iftmp.123,
	and	x1, x1, -8	// D.7978, D.7977,
	str	x1, [x19]	// D.7978, argv.__stack
	b	.L221		//
.L220:
	add	w2, w1, 8	// D.7980, D.7972,
	str	w2, [x19, 24]	// D.7980, argv.__gr_offs
	ldr	w2, [x19, 24]	// D.7982, argv.__gr_offs
	cmp	w2, 0	// D.7982,
	ble	.L222		//,
	add	x1, x0, 15	// D.7985, iftmp.123,
	and	x1, x1, -8	// D.7986, D.7985,
	str	x1, [x19]	// D.7986, argv.__stack
	b	.L221		//
.L222:
	ldr	x2, [x19, 8]	// D.7988, argv.__gr_top
	sxtw	x0, w1	// D.7989, D.7972
	add	x0, x2, x0	// iftmp.123, D.7988, D.7989
.L221:
	ldr	x0, [x0]	// tmp309, *iftmp.122_126
	str	x0, [sp, 128]	// tmp309, l
// varargs-dll.c:122:   long m = va_arg (argv, long);
	ldr	w1, [x19, 24]	// D.7990, argv.__gr_offs
	ldr	x0, [x19]	// iftmp.125, argv.__stack
	cmp	w1, 0	// D.7990,
	blt	.L224		//,
	add	x1, x0, 15	// D.7995, iftmp.125,
	and	x1, x1, -8	// D.7996, D.7995,
	str	x1, [x19]	// D.7996, argv.__stack
	b	.L225		//
.L224:
	add	w2, w1, 8	// D.7998, D.7990,
	str	w2, [x19, 24]	// D.7998, argv.__gr_offs
	ldr	w2, [x19, 24]	// D.8000, argv.__gr_offs
	cmp	w2, 0	// D.8000,
	ble	.L226		//,
	add	x1, x0, 15	// D.8003, iftmp.125,
	and	x1, x1, -8	// D.8004, D.8003,
	str	x1, [x19]	// D.8004, argv.__stack
	b	.L225		//
.L226:
	ldr	x2, [x19, 8]	// D.8006, argv.__gr_top
	sxtw	x0, w1	// D.8007, D.7990
	add	x0, x2, x0	// iftmp.125, D.8006, D.8007
.L225:
	ldr	x0, [x0]	// tmp310, *iftmp.124_128
	str	x0, [sp, 136]	// tmp310, m
// varargs-dll.c:123:   long n = va_arg (argv, long);
	ldr	w1, [x19, 24]	// D.8008, argv.__gr_offs
	ldr	x0, [x19]	// iftmp.127, argv.__stack
	cmp	w1, 0	// D.8008,
	blt	.L228		//,
	add	x1, x0, 15	// D.8013, iftmp.127,
	and	x1, x1, -8	// D.8014, D.8013,
	str	x1, [x19]	// D.8014, argv.__stack
	b	.L229		//
.L228:
	add	w2, w1, 8	// D.8016, D.8008,
	str	w2, [x19, 24]	// D.8016, argv.__gr_offs
	ldr	w2, [x19, 24]	// D.8018, argv.__gr_offs
	cmp	w2, 0	// D.8018,
	ble	.L230		//,
	add	x1, x0, 15	// D.8021, iftmp.127,
	and	x1, x1, -8	// D.8022, D.8021,
	str	x1, [x19]	// D.8022, argv.__stack
	b	.L229		//
.L230:
	ldr	x2, [x19, 8]	// D.8024, argv.__gr_top
	sxtw	x0, w1	// D.8025, D.8008
	add	x0, x2, x0	// iftmp.127, D.8024, D.8025
.L229:
	ldr	x0, [x0]	// tmp311, *iftmp.126_130
	str	x0, [sp, 144]	// tmp311, n
// varargs-dll.c:124:   long o = va_arg (argv, long);
	ldr	w1, [x19, 24]	// D.8026, argv.__gr_offs
	ldr	x0, [x19]	// iftmp.129, argv.__stack
	cmp	w1, 0	// D.8026,
	blt	.L232		//,
	add	x1, x0, 15	// D.8031, iftmp.129,
	and	x1, x1, -8	// D.8032, D.8031,
	str	x1, [x19]	// D.8032, argv.__stack
	b	.L233		//
.L232:
	add	w2, w1, 8	// D.8034, D.8026,
	str	w2, [x19, 24]	// D.8034, argv.__gr_offs
	ldr	w2, [x19, 24]	// D.8036, argv.__gr_offs
	cmp	w2, 0	// D.8036,
	ble	.L234		//,
	add	x1, x0, 15	// D.8039, iftmp.129,
	and	x1, x1, -8	// D.8040, D.8039,
	str	x1, [x19]	// D.8040, argv.__stack
	b	.L233		//
.L234:
	ldr	x2, [x19, 8]	// D.8042, argv.__gr_top
	sxtw	x0, w1	// D.8043, D.8026
	add	x0, x2, x0	// iftmp.129, D.8042, D.8043
.L233:
	ldr	x0, [x0]	// tmp312, *iftmp.128_132
	str	x0, [sp, 152]	// tmp312, o
// varargs-dll.c:125:   long p = va_arg (argv, long);
	ldr	w1, [x19, 24]	// D.8044, argv.__gr_offs
	ldr	x0, [x19]	// iftmp.131, argv.__stack
	cmp	w1, 0	// D.8044,
	blt	.L236		//,
	add	x1, x0, 15	// D.8049, iftmp.131,
	and	x1, x1, -8	// D.8050, D.8049,
	str	x1, [x19]	// D.8050, argv.__stack
	b	.L237		//
.L236:
	add	w2, w1, 8	// D.8052, D.8044,
	str	w2, [x19, 24]	// D.8052, argv.__gr_offs
	ldr	w2, [x19, 24]	// D.8054, argv.__gr_offs
	cmp	w2, 0	// D.8054,
	ble	.L238		//,
	add	x1, x0, 15	// D.8057, iftmp.131,
	and	x1, x1, -8	// D.8058, D.8057,
	str	x1, [x19]	// D.8058, argv.__stack
	b	.L237		//
.L238:
	ldr	x2, [x19, 8]	// D.8060, argv.__gr_top
	sxtw	x0, w1	// D.8061, D.8044
	add	x0, x2, x0	// iftmp.131, D.8060, D.8061
.L237:
	ldr	x0, [x0]	// tmp313, *iftmp.130_134
	str	x0, [sp, 160]	// tmp313, p
// varargs-dll.c:126:   long q = va_arg (argv, long);
	ldr	w1, [x19, 24]	// D.8062, argv.__gr_offs
	ldr	x0, [x19]	// iftmp.133, argv.__stack
	cmp	w1, 0	// D.8062,
	blt	.L240		//,
	add	x1, x0, 15	// D.8067, iftmp.133,
	and	x1, x1, -8	// D.8068, D.8067,
	str	x1, [x19]	// D.8068, argv.__stack
	b	.L241		//
.L240:
	add	w2, w1, 8	// D.8070, D.8062,
	str	w2, [x19, 24]	// D.8070, argv.__gr_offs
	ldr	w2, [x19, 24]	// D.8072, argv.__gr_offs
	cmp	w2, 0	// D.8072,
	ble	.L242		//,
	add	x1, x0, 15	// D.8075, iftmp.133,
	and	x1, x1, -8	// D.8076, D.8075,
	str	x1, [x19]	// D.8076, argv.__stack
	b	.L241		//
.L242:
	ldr	x2, [x19, 8]	// D.8078, argv.__gr_top
	sxtw	x0, w1	// D.8079, D.8062
	add	x0, x2, x0	// iftmp.133, D.8078, D.8079
.L241:
	ldr	x0, [x0]	// tmp314, *iftmp.132_136
	str	x0, [sp, 168]	// tmp314, q
// varargs-dll.c:127:   return a + b + c + d + e + f + g + h + i + j + k + l + m + n + o + p + q;
	ldr	x0, [sp, 40]	// tmp315, a
	mov	w1, w0	// _1, tmp315
	ldr	x0, [sp, 48]	// tmp316, b
	add	w0, w1, w0	// _3, _1, _2
// varargs-dll.c:127:   return a + b + c + d + e + f + g + h + i + j + k + l + m + n + o + p + q;
	ldr	x1, [sp, 56]	// tmp317, c
	add	w0, w0, w1	// _5, _3, _4
// varargs-dll.c:127:   return a + b + c + d + e + f + g + h + i + j + k + l + m + n + o + p + q;
	ldr	x1, [sp, 64]	// tmp318, d
	add	w0, w0, w1	// _7, _5, _6
// varargs-dll.c:127:   return a + b + c + d + e + f + g + h + i + j + k + l + m + n + o + p + q;
	ldr	x1, [sp, 72]	// tmp319, e
	add	w0, w0, w1	// _9, _7, _8
// varargs-dll.c:127:   return a + b + c + d + e + f + g + h + i + j + k + l + m + n + o + p + q;
	ldr	x1, [sp, 80]	// tmp320, f
	add	w0, w0, w1	// _11, _9, _10
// varargs-dll.c:127:   return a + b + c + d + e + f + g + h + i + j + k + l + m + n + o + p + q;
	ldr	x1, [sp, 88]	// tmp321, g
	add	w0, w0, w1	// _13, _11, _12
// varargs-dll.c:127:   return a + b + c + d + e + f + g + h + i + j + k + l + m + n + o + p + q;
	ldr	x1, [sp, 96]	// tmp322, h
	add	w0, w0, w1	// _15, _13, _14
// varargs-dll.c:127:   return a + b + c + d + e + f + g + h + i + j + k + l + m + n + o + p + q;
	ldr	x1, [sp, 104]	// tmp323, i
	add	w0, w0, w1	// _17, _15, _16
// varargs-dll.c:127:   return a + b + c + d + e + f + g + h + i + j + k + l + m + n + o + p + q;
	ldr	x1, [sp, 112]	// tmp324, j
	add	w0, w0, w1	// _19, _17, _18
// varargs-dll.c:127:   return a + b + c + d + e + f + g + h + i + j + k + l + m + n + o + p + q;
	ldr	x1, [sp, 120]	// tmp325, k
	add	w0, w0, w1	// _21, _19, _20
// varargs-dll.c:127:   return a + b + c + d + e + f + g + h + i + j + k + l + m + n + o + p + q;
	ldr	x1, [sp, 128]	// tmp326, l
	add	w0, w0, w1	// _23, _21, _22
// varargs-dll.c:127:   return a + b + c + d + e + f + g + h + i + j + k + l + m + n + o + p + q;
	ldr	x1, [sp, 136]	// tmp327, m
	add	w0, w0, w1	// _25, _23, _24
// varargs-dll.c:127:   return a + b + c + d + e + f + g + h + i + j + k + l + m + n + o + p + q;
	ldr	x1, [sp, 144]	// tmp328, n
	add	w0, w0, w1	// _27, _25, _26
// varargs-dll.c:127:   return a + b + c + d + e + f + g + h + i + j + k + l + m + n + o + p + q;
	ldr	x1, [sp, 152]	// tmp329, o
	add	w0, w0, w1	// _29, _27, _28
// varargs-dll.c:127:   return a + b + c + d + e + f + g + h + i + j + k + l + m + n + o + p + q;
	ldr	x1, [sp, 160]	// tmp330, p
	add	w0, w0, w1	// _31, _29, _30
// varargs-dll.c:127:   return a + b + c + d + e + f + g + h + i + j + k + l + m + n + o + p + q;
	ldr	x1, [sp, 168]	// tmp331, q
	add	w0, w0, w1	// _33, _31, _32
// varargs-dll.c:128: }
	ldr	x19, [sp], 176	//,
	.cfi_restore 19
	.cfi_def_cfa_offset 0
	ret	
	.cfi_endproc
.LFE13:
	.size	use_va_list_many_longs, .-use_va_list_many_longs
	.align	2
	.global	use_va_args_few_ints
	.type	use_va_args_few_ints, %function
use_va_args_few_ints:
.LFB14:
	.cfi_startproc
	stp	x29, x30, [sp, -272]!	//,,,
	.cfi_def_cfa_offset 272
	.cfi_offset 29, -272
	.cfi_offset 30, -264
	mov	x29, sp	//,
	str	x0, [sp, 24]	// format, format
	str	x1, [sp, 216]	//,
	str	x2, [sp, 224]	//,
	str	x3, [sp, 232]	//,
	str	x4, [sp, 240]	//,
	str	x5, [sp, 248]	//,
	str	x6, [sp, 256]	//,
	str	x7, [sp, 264]	//,
	str	q0, [sp, 80]	//,
	str	q1, [sp, 96]	//,
	str	q2, [sp, 112]	//,
	str	q3, [sp, 128]	//,
	str	q4, [sp, 144]	//,
	str	q5, [sp, 160]	//,
	str	q6, [sp, 176]	//,
	str	q7, [sp, 192]	//,
// varargs-dll.c:132: {
	adrp	x0, :got:__stack_chk_guard	// tmp115,
	ldr	x0, [x0, #:got_lo12:__stack_chk_guard]	// tmp114, tmp115,
	ldr	x1, [x0]	// tmp127,
	str	x1, [sp, 72]	// tmp127, D.8116
	mov	x1, 0	// tmp127
// varargs-dll.c:134:   va_start (argv, format);
	add	x0, sp, 272	// tmp132,,
	str	x0, [sp, 40]	// tmp132, MEM[(struct  *)&argv].__stack
	add	x0, sp, 272	// tmp133,,
	str	x0, [sp, 48]	// tmp133, MEM[(struct  *)&argv].__gr_top
	add	x0, sp, 208	// tmp117,,
	str	x0, [sp, 56]	// tmp117, MEM[(struct  *)&argv].__vr_top
	mov	w0, -56	// tmp118,
	str	w0, [sp, 64]	// tmp118, MEM[(struct  *)&argv].__gr_offs
	mov	w0, -128	// tmp119,
	str	w0, [sp, 68]	// tmp119, MEM[(struct  *)&argv].__vr_offs
// varargs-dll.c:135:   int a = va_arg (argv, int);
	ldr	w1, [sp, 64]	// D.8080, argv.__gr_offs
	ldr	x0, [sp, 40]	// iftmp.135, argv.__stack
	cmp	w1, 0	// D.8080,
	blt	.L246		//,
	add	x1, x0, 11	// D.8085, iftmp.135,
	and	x1, x1, -8	// D.8086, D.8085,
	str	x1, [sp, 40]	// D.8086, argv.__stack
	b	.L247		//
.L246:
	add	w2, w1, 8	// D.8088, D.8080,
	str	w2, [sp, 64]	// D.8088, argv.__gr_offs
	ldr	w2, [sp, 64]	// D.8090, argv.__gr_offs
	cmp	w2, 0	// D.8090,
	ble	.L248		//,
	add	x1, x0, 11	// D.8093, iftmp.135,
	and	x1, x1, -8	// D.8094, D.8093,
	str	x1, [sp, 40]	// D.8094, argv.__stack
	b	.L247		//
.L248:
	ldr	x2, [sp, 48]	// D.8096, argv.__gr_top
	sxtw	x0, w1	// D.8097, D.8080
	add	x0, x2, x0	// iftmp.135, D.8096, D.8097
.L247:
	ldr	w0, [x0]	// tmp120, *iftmp.134_14
	str	w0, [sp, 32]	// tmp120, a
// varargs-dll.c:136:   int b = va_arg (argv, int);
	ldr	w1, [sp, 64]	// D.8098, argv.__gr_offs
	ldr	x0, [sp, 40]	// iftmp.137, argv.__stack
	cmp	w1, 0	// D.8098,
	blt	.L250		//,
	add	x1, x0, 11	// D.8103, iftmp.137,
	and	x1, x1, -8	// D.8104, D.8103,
	str	x1, [sp, 40]	// D.8104, argv.__stack
	b	.L251		//
.L250:
	add	w2, w1, 8	// D.8106, D.8098,
	str	w2, [sp, 64]	// D.8106, argv.__gr_offs
	ldr	w2, [sp, 64]	// D.8108, argv.__gr_offs
	cmp	w2, 0	// D.8108,
	ble	.L252		//,
	add	x1, x0, 11	// D.8111, iftmp.137,
	and	x1, x1, -8	// D.8112, D.8111,
	str	x1, [sp, 40]	// D.8112, argv.__stack
	b	.L251		//
.L252:
	ldr	x2, [sp, 48]	// D.8114, argv.__gr_top
	sxtw	x0, w1	// D.8115, D.8098
	add	x0, x2, x0	// iftmp.137, D.8114, D.8115
.L251:
	ldr	w0, [x0]	// tmp121, *iftmp.136_16
	str	w0, [sp, 36]	// tmp121, b
// varargs-dll.c:138:   return a + b;
	ldr	w1, [sp, 32]	// tmp122, a
	ldr	w0, [sp, 36]	// tmp123, b
	add	w0, w1, w0	// _8, tmp122, tmp123
	mov	w1, w0	// <retval>, _8
// varargs-dll.c:139: }
	adrp	x0, :got:__stack_chk_guard	// tmp126,
	ldr	x0, [x0, #:got_lo12:__stack_chk_guard]	// tmp125, tmp126,
	ldr	x3, [sp, 72]	// tmp128, D.8116
	ldr	x2, [x0]	// tmp129,
	subs	x3, x3, x2	// tmp128, tmp129
	mov	x2, 0	// tmp129
	beq	.L255		//,
	bl	__stack_chk_fail		//
.L255:
	mov	w0, w1	//, <retval>
	ldp	x29, x30, [sp], 272	//,,,
	.cfi_restore 30
	.cfi_restore 29
	.cfi_def_cfa_offset 0
	ret	
	.cfi_endproc
.LFE14:
	.size	use_va_args_few_ints, .-use_va_args_few_ints
	.align	2
	.global	use_va_list_few_ints
	.type	use_va_list_few_ints, %function
use_va_list_few_ints:
.LFB15:
	.cfi_startproc
	str	x19, [sp, -48]!	//,
	.cfi_def_cfa_offset 48
	.cfi_offset 19, -48
	str	x0, [sp, 24]	// format, format
	mov	x19, x1	// tmp114,
// varargs-dll.c:144:   int a = va_arg (argv, int);
	ldr	w1, [x19, 24]	// D.8120, argv.__gr_offs
	ldr	x0, [x19]	// iftmp.139, argv.__stack
	cmp	w1, 0	// D.8120,
	blt	.L257		//,
	add	x1, x0, 11	// D.8125, iftmp.139,
	and	x1, x1, -8	// D.8126, D.8125,
	str	x1, [x19]	// D.8126, argv.__stack
	b	.L258		//
.L257:
	add	w2, w1, 8	// D.8128, D.8120,
	str	w2, [x19, 24]	// D.8128, argv.__gr_offs
	ldr	w2, [x19, 24]	// D.8130, argv.__gr_offs
	cmp	w2, 0	// D.8130,
	ble	.L259		//,
	add	x1, x0, 11	// D.8133, iftmp.139,
	and	x1, x1, -8	// D.8134, D.8133,
	str	x1, [x19]	// D.8134, argv.__stack
	b	.L258		//
.L259:
	ldr	x2, [x19, 8]	// D.8136, argv.__gr_top
	sxtw	x0, w1	// D.8137, D.8120
	add	x0, x2, x0	// iftmp.139, D.8136, D.8137
.L258:
	ldr	w0, [x0]	// tmp115, *iftmp.138_11
	str	w0, [sp, 40]	// tmp115, a
// varargs-dll.c:145:   int b = va_arg (argv, int);
	ldr	w1, [x19, 24]	// D.8138, argv.__gr_offs
	ldr	x0, [x19]	// iftmp.141, argv.__stack
	cmp	w1, 0	// D.8138,
	blt	.L261		//,
	add	x1, x0, 11	// D.8143, iftmp.141,
	and	x1, x1, -8	// D.8144, D.8143,
	str	x1, [x19]	// D.8144, argv.__stack
	b	.L262		//
.L261:
	add	w2, w1, 8	// D.8146, D.8138,
	str	w2, [x19, 24]	// D.8146, argv.__gr_offs
	ldr	w2, [x19, 24]	// D.8148, argv.__gr_offs
	cmp	w2, 0	// D.8148,
	ble	.L263		//,
	add	x1, x0, 11	// D.8151, iftmp.141,
	and	x1, x1, -8	// D.8152, D.8151,
	str	x1, [x19]	// D.8152, argv.__stack
	b	.L262		//
.L263:
	ldr	x2, [x19, 8]	// D.8154, argv.__gr_top
	sxtw	x0, w1	// D.8155, D.8138
	add	x0, x2, x0	// iftmp.141, D.8154, D.8155
.L262:
	ldr	w0, [x0]	// tmp116, *iftmp.140_13
	str	w0, [sp, 44]	// tmp116, b
// varargs-dll.c:146:   return a + b;
	ldr	w1, [sp, 40]	// tmp117, a
	ldr	w0, [sp, 44]	// tmp118, b
	add	w0, w1, w0	// _6, tmp117, tmp118
// varargs-dll.c:147: }
	ldr	x19, [sp], 48	//,
	.cfi_restore 19
	.cfi_def_cfa_offset 0
	ret	
	.cfi_endproc
.LFE15:
	.size	use_va_list_few_ints, .-use_va_list_few_ints
	.align	2
	.global	use_va_args_several_ints
	.type	use_va_args_several_ints, %function
use_va_args_several_ints:
.LFB16:
	.cfi_startproc
	stp	x29, x30, [sp, -304]!	//,,,
	.cfi_def_cfa_offset 304
	.cfi_offset 29, -304
	.cfi_offset 30, -296
	mov	x29, sp	//,
	str	x0, [sp, 24]	// format, format
	str	x1, [sp, 248]	//,
	str	x2, [sp, 256]	//,
	str	x3, [sp, 264]	//,
	str	x4, [sp, 272]	//,
	str	x5, [sp, 280]	//,
	str	x6, [sp, 288]	//,
	str	x7, [sp, 296]	//,
	str	q0, [sp, 112]	//,
	str	q1, [sp, 128]	//,
	str	q2, [sp, 144]	//,
	str	q3, [sp, 160]	//,
	str	q4, [sp, 176]	//,
	str	q5, [sp, 192]	//,
	str	q6, [sp, 208]	//,
	str	q7, [sp, 224]	//,
// varargs-dll.c:151: {
	adrp	x0, :got:__stack_chk_guard	// tmp192,
	ldr	x0, [x0, #:got_lo12:__stack_chk_guard]	// tmp191, tmp192,
	ldr	x1, [x0]	// tmp218,
	str	x1, [sp, 104]	// tmp218, D.8318
	mov	x1, 0	// tmp218
// varargs-dll.c:153:   va_start (argv, format);
	add	x0, sp, 304	// tmp223,,
	str	x0, [sp, 72]	// tmp223, MEM[(struct  *)&argv].__stack
	add	x0, sp, 304	// tmp224,,
	str	x0, [sp, 80]	// tmp224, MEM[(struct  *)&argv].__gr_top
	add	x0, sp, 240	// tmp194,,
	str	x0, [sp, 88]	// tmp194, MEM[(struct  *)&argv].__vr_top
	mov	w0, -56	// tmp195,
	str	w0, [sp, 96]	// tmp195, MEM[(struct  *)&argv].__gr_offs
	mov	w0, -128	// tmp196,
	str	w0, [sp, 100]	// tmp196, MEM[(struct  *)&argv].__vr_offs
// varargs-dll.c:154:   int a = va_arg (argv, int);
	ldr	w1, [sp, 96]	// D.8156, argv.__gr_offs
	ldr	x0, [sp, 72]	// iftmp.143, argv.__stack
	cmp	w1, 0	// D.8156,
	blt	.L267		//,
	add	x1, x0, 11	// D.8161, iftmp.143,
	and	x1, x1, -8	// D.8162, D.8161,
	str	x1, [sp, 72]	// D.8162, argv.__stack
	b	.L268		//
.L267:
	add	w2, w1, 8	// D.8164, D.8156,
	str	w2, [sp, 96]	// D.8164, argv.__gr_offs
	ldr	w2, [sp, 96]	// D.8166, argv.__gr_offs
	cmp	w2, 0	// D.8166,
	ble	.L269		//,
	add	x1, x0, 11	// D.8169, iftmp.143,
	and	x1, x1, -8	// D.8170, D.8169,
	str	x1, [sp, 72]	// D.8170, argv.__stack
	b	.L268		//
.L269:
	ldr	x2, [sp, 80]	// D.8172, argv.__gr_top
	sxtw	x0, w1	// D.8173, D.8156
	add	x0, x2, x0	// iftmp.143, D.8172, D.8173
.L268:
	ldr	w0, [x0]	// tmp197, *iftmp.142_49
	str	w0, [sp, 36]	// tmp197, a
// varargs-dll.c:155:   int b = va_arg (argv, int);
	ldr	w1, [sp, 96]	// D.8174, argv.__gr_offs
	ldr	x0, [sp, 72]	// iftmp.145, argv.__stack
	cmp	w1, 0	// D.8174,
	blt	.L271		//,
	add	x1, x0, 11	// D.8179, iftmp.145,
	and	x1, x1, -8	// D.8180, D.8179,
	str	x1, [sp, 72]	// D.8180, argv.__stack
	b	.L272		//
.L271:
	add	w2, w1, 8	// D.8182, D.8174,
	str	w2, [sp, 96]	// D.8182, argv.__gr_offs
	ldr	w2, [sp, 96]	// D.8184, argv.__gr_offs
	cmp	w2, 0	// D.8184,
	ble	.L273		//,
	add	x1, x0, 11	// D.8187, iftmp.145,
	and	x1, x1, -8	// D.8188, D.8187,
	str	x1, [sp, 72]	// D.8188, argv.__stack
	b	.L272		//
.L273:
	ldr	x2, [sp, 80]	// D.8190, argv.__gr_top
	sxtw	x0, w1	// D.8191, D.8174
	add	x0, x2, x0	// iftmp.145, D.8190, D.8191
.L272:
	ldr	w0, [x0]	// tmp198, *iftmp.144_51
	str	w0, [sp, 40]	// tmp198, b
// varargs-dll.c:156:   int c = va_arg (argv, int);
	ldr	w1, [sp, 96]	// D.8192, argv.__gr_offs
	ldr	x0, [sp, 72]	// iftmp.147, argv.__stack
	cmp	w1, 0	// D.8192,
	blt	.L275		//,
	add	x1, x0, 11	// D.8197, iftmp.147,
	and	x1, x1, -8	// D.8198, D.8197,
	str	x1, [sp, 72]	// D.8198, argv.__stack
	b	.L276		//
.L275:
	add	w2, w1, 8	// D.8200, D.8192,
	str	w2, [sp, 96]	// D.8200, argv.__gr_offs
	ldr	w2, [sp, 96]	// D.8202, argv.__gr_offs
	cmp	w2, 0	// D.8202,
	ble	.L277		//,
	add	x1, x0, 11	// D.8205, iftmp.147,
	and	x1, x1, -8	// D.8206, D.8205,
	str	x1, [sp, 72]	// D.8206, argv.__stack
	b	.L276		//
.L277:
	ldr	x2, [sp, 80]	// D.8208, argv.__gr_top
	sxtw	x0, w1	// D.8209, D.8192
	add	x0, x2, x0	// iftmp.147, D.8208, D.8209
.L276:
	ldr	w0, [x0]	// tmp199, *iftmp.146_53
	str	w0, [sp, 44]	// tmp199, c
// varargs-dll.c:157:   int d = va_arg (argv, int);
	ldr	w1, [sp, 96]	// D.8210, argv.__gr_offs
	ldr	x0, [sp, 72]	// iftmp.149, argv.__stack
	cmp	w1, 0	// D.8210,
	blt	.L279		//,
	add	x1, x0, 11	// D.8215, iftmp.149,
	and	x1, x1, -8	// D.8216, D.8215,
	str	x1, [sp, 72]	// D.8216, argv.__stack
	b	.L280		//
.L279:
	add	w2, w1, 8	// D.8218, D.8210,
	str	w2, [sp, 96]	// D.8218, argv.__gr_offs
	ldr	w2, [sp, 96]	// D.8220, argv.__gr_offs
	cmp	w2, 0	// D.8220,
	ble	.L281		//,
	add	x1, x0, 11	// D.8223, iftmp.149,
	and	x1, x1, -8	// D.8224, D.8223,
	str	x1, [sp, 72]	// D.8224, argv.__stack
	b	.L280		//
.L281:
	ldr	x2, [sp, 80]	// D.8226, argv.__gr_top
	sxtw	x0, w1	// D.8227, D.8210
	add	x0, x2, x0	// iftmp.149, D.8226, D.8227
.L280:
	ldr	w0, [x0]	// tmp200, *iftmp.148_55
	str	w0, [sp, 48]	// tmp200, d
// varargs-dll.c:158:   int e = va_arg (argv, int);
	ldr	w1, [sp, 96]	// D.8228, argv.__gr_offs
	ldr	x0, [sp, 72]	// iftmp.151, argv.__stack
	cmp	w1, 0	// D.8228,
	blt	.L283		//,
	add	x1, x0, 11	// D.8233, iftmp.151,
	and	x1, x1, -8	// D.8234, D.8233,
	str	x1, [sp, 72]	// D.8234, argv.__stack
	b	.L284		//
.L283:
	add	w2, w1, 8	// D.8236, D.8228,
	str	w2, [sp, 96]	// D.8236, argv.__gr_offs
	ldr	w2, [sp, 96]	// D.8238, argv.__gr_offs
	cmp	w2, 0	// D.8238,
	ble	.L285		//,
	add	x1, x0, 11	// D.8241, iftmp.151,
	and	x1, x1, -8	// D.8242, D.8241,
	str	x1, [sp, 72]	// D.8242, argv.__stack
	b	.L284		//
.L285:
	ldr	x2, [sp, 80]	// D.8244, argv.__gr_top
	sxtw	x0, w1	// D.8245, D.8228
	add	x0, x2, x0	// iftmp.151, D.8244, D.8245
.L284:
	ldr	w0, [x0]	// tmp201, *iftmp.150_57
	str	w0, [sp, 52]	// tmp201, e
// varargs-dll.c:159:   int f = va_arg (argv, int);
	ldr	w1, [sp, 96]	// D.8246, argv.__gr_offs
	ldr	x0, [sp, 72]	// iftmp.153, argv.__stack
	cmp	w1, 0	// D.8246,
	blt	.L287		//,
	add	x1, x0, 11	// D.8251, iftmp.153,
	and	x1, x1, -8	// D.8252, D.8251,
	str	x1, [sp, 72]	// D.8252, argv.__stack
	b	.L288		//
.L287:
	add	w2, w1, 8	// D.8254, D.8246,
	str	w2, [sp, 96]	// D.8254, argv.__gr_offs
	ldr	w2, [sp, 96]	// D.8256, argv.__gr_offs
	cmp	w2, 0	// D.8256,
	ble	.L289		//,
	add	x1, x0, 11	// D.8259, iftmp.153,
	and	x1, x1, -8	// D.8260, D.8259,
	str	x1, [sp, 72]	// D.8260, argv.__stack
	b	.L288		//
.L289:
	ldr	x2, [sp, 80]	// D.8262, argv.__gr_top
	sxtw	x0, w1	// D.8263, D.8246
	add	x0, x2, x0	// iftmp.153, D.8262, D.8263
.L288:
	ldr	w0, [x0]	// tmp202, *iftmp.152_59
	str	w0, [sp, 56]	// tmp202, f
// varargs-dll.c:160:   int g = va_arg (argv, int);
	ldr	w1, [sp, 96]	// D.8264, argv.__gr_offs
	ldr	x0, [sp, 72]	// iftmp.155, argv.__stack
	cmp	w1, 0	// D.8264,
	blt	.L291		//,
	add	x1, x0, 11	// D.8269, iftmp.155,
	and	x1, x1, -8	// D.8270, D.8269,
	str	x1, [sp, 72]	// D.8270, argv.__stack
	b	.L292		//
.L291:
	add	w2, w1, 8	// D.8272, D.8264,
	str	w2, [sp, 96]	// D.8272, argv.__gr_offs
	ldr	w2, [sp, 96]	// D.8274, argv.__gr_offs
	cmp	w2, 0	// D.8274,
	ble	.L293		//,
	add	x1, x0, 11	// D.8277, iftmp.155,
	and	x1, x1, -8	// D.8278, D.8277,
	str	x1, [sp, 72]	// D.8278, argv.__stack
	b	.L292		//
.L293:
	ldr	x2, [sp, 80]	// D.8280, argv.__gr_top
	sxtw	x0, w1	// D.8281, D.8264
	add	x0, x2, x0	// iftmp.155, D.8280, D.8281
.L292:
	ldr	w0, [x0]	// tmp203, *iftmp.154_61
	str	w0, [sp, 60]	// tmp203, g
// varargs-dll.c:161:   int h = va_arg (argv, int);
	ldr	w1, [sp, 96]	// D.8282, argv.__gr_offs
	ldr	x0, [sp, 72]	// iftmp.157, argv.__stack
	cmp	w1, 0	// D.8282,
	blt	.L295		//,
	add	x1, x0, 11	// D.8287, iftmp.157,
	and	x1, x1, -8	// D.8288, D.8287,
	str	x1, [sp, 72]	// D.8288, argv.__stack
	b	.L296		//
.L295:
	add	w2, w1, 8	// D.8290, D.8282,
	str	w2, [sp, 96]	// D.8290, argv.__gr_offs
	ldr	w2, [sp, 96]	// D.8292, argv.__gr_offs
	cmp	w2, 0	// D.8292,
	ble	.L297		//,
	add	x1, x0, 11	// D.8295, iftmp.157,
	and	x1, x1, -8	// D.8296, D.8295,
	str	x1, [sp, 72]	// D.8296, argv.__stack
	b	.L296		//
.L297:
	ldr	x2, [sp, 80]	// D.8298, argv.__gr_top
	sxtw	x0, w1	// D.8299, D.8282
	add	x0, x2, x0	// iftmp.157, D.8298, D.8299
.L296:
	ldr	w0, [x0]	// tmp204, *iftmp.156_63
	str	w0, [sp, 64]	// tmp204, h
// varargs-dll.c:162:   int i = va_arg (argv, int);
	ldr	w1, [sp, 96]	// D.8300, argv.__gr_offs
	ldr	x0, [sp, 72]	// iftmp.159, argv.__stack
	cmp	w1, 0	// D.8300,
	blt	.L299		//,
	add	x1, x0, 11	// D.8305, iftmp.159,
	and	x1, x1, -8	// D.8306, D.8305,
	str	x1, [sp, 72]	// D.8306, argv.__stack
	b	.L300		//
.L299:
	add	w2, w1, 8	// D.8308, D.8300,
	str	w2, [sp, 96]	// D.8308, argv.__gr_offs
	ldr	w2, [sp, 96]	// D.8310, argv.__gr_offs
	cmp	w2, 0	// D.8310,
	ble	.L301		//,
	add	x1, x0, 11	// D.8313, iftmp.159,
	and	x1, x1, -8	// D.8314, D.8313,
	str	x1, [sp, 72]	// D.8314, argv.__stack
	b	.L300		//
.L301:
	ldr	x2, [sp, 80]	// D.8316, argv.__gr_top
	sxtw	x0, w1	// D.8317, D.8300
	add	x0, x2, x0	// iftmp.159, D.8316, D.8317
.L300:
	ldr	w0, [x0]	// tmp205, *iftmp.158_65
	str	w0, [sp, 68]	// tmp205, i
// varargs-dll.c:164:   return a + b + c + d + e + f + g + h + i;
	ldr	w1, [sp, 36]	// tmp206, a
	ldr	w0, [sp, 40]	// tmp207, b
	add	w1, w1, w0	// _1, tmp206, tmp207
// varargs-dll.c:164:   return a + b + c + d + e + f + g + h + i;
	ldr	w0, [sp, 44]	// tmp208, c
	add	w1, w1, w0	// _2, _1, tmp208
// varargs-dll.c:164:   return a + b + c + d + e + f + g + h + i;
	ldr	w0, [sp, 48]	// tmp209, d
	add	w1, w1, w0	// _3, _2, tmp209
// varargs-dll.c:164:   return a + b + c + d + e + f + g + h + i;
	ldr	w0, [sp, 52]	// tmp210, e
	add	w1, w1, w0	// _4, _3, tmp210
// varargs-dll.c:164:   return a + b + c + d + e + f + g + h + i;
	ldr	w0, [sp, 56]	// tmp211, f
	add	w1, w1, w0	// _5, _4, tmp211
// varargs-dll.c:164:   return a + b + c + d + e + f + g + h + i;
	ldr	w0, [sp, 60]	// tmp212, g
	add	w1, w1, w0	// _6, _5, tmp212
// varargs-dll.c:164:   return a + b + c + d + e + f + g + h + i;
	ldr	w0, [sp, 64]	// tmp213, h
	add	w1, w1, w0	// _7, _6, tmp213
// varargs-dll.c:164:   return a + b + c + d + e + f + g + h + i;
	ldr	w0, [sp, 68]	// tmp214, i
	add	w0, w1, w0	// _29, _7, tmp214
	mov	w1, w0	// <retval>, _29
// varargs-dll.c:165: }
	adrp	x0, :got:__stack_chk_guard	// tmp217,
	ldr	x0, [x0, #:got_lo12:__stack_chk_guard]	// tmp216, tmp217,
	ldr	x3, [sp, 104]	// tmp219, D.8318
	ldr	x2, [x0]	// tmp220,
	subs	x3, x3, x2	// tmp219, tmp220
	mov	x2, 0	// tmp220
	beq	.L304		//,
	bl	__stack_chk_fail		//
.L304:
	mov	w0, w1	//, <retval>
	ldp	x29, x30, [sp], 304	//,,,
	.cfi_restore 30
	.cfi_restore 29
	.cfi_def_cfa_offset 0
	ret	
	.cfi_endproc
.LFE16:
	.size	use_va_args_several_ints, .-use_va_args_several_ints
	.align	2
	.global	use_va_list_several_ints
	.type	use_va_list_several_ints, %function
use_va_list_several_ints:
.LFB17:
	.cfi_startproc
	str	x19, [sp, -80]!	//,
	.cfi_def_cfa_offset 80
	.cfi_offset 19, -80
	str	x0, [sp, 24]	// format, format
	mov	x19, x1	// tmp191,
// varargs-dll.c:170:   int a = va_arg (argv, int);
	ldr	w1, [x19, 24]	// D.8322, argv.__gr_offs
	ldr	x0, [x19]	// iftmp.161, argv.__stack
	cmp	w1, 0	// D.8322,
	blt	.L306		//,
	add	x1, x0, 11	// D.8327, iftmp.161,
	and	x1, x1, -8	// D.8328, D.8327,
	str	x1, [x19]	// D.8328, argv.__stack
	b	.L307		//
.L306:
	add	w2, w1, 8	// D.8330, D.8322,
	str	w2, [x19, 24]	// D.8330, argv.__gr_offs
	ldr	w2, [x19, 24]	// D.8332, argv.__gr_offs
	cmp	w2, 0	// D.8332,
	ble	.L308		//,
	add	x1, x0, 11	// D.8335, iftmp.161,
	and	x1, x1, -8	// D.8336, D.8335,
	str	x1, [x19]	// D.8336, argv.__stack
	b	.L307		//
.L308:
	ldr	x2, [x19, 8]	// D.8338, argv.__gr_top
	sxtw	x0, w1	// D.8339, D.8322
	add	x0, x2, x0	// iftmp.161, D.8338, D.8339
.L307:
	ldr	w0, [x0]	// tmp192, *iftmp.160_46
	str	w0, [sp, 44]	// tmp192, a
// varargs-dll.c:171:   int b = va_arg (argv, int);
	ldr	w1, [x19, 24]	// D.8340, argv.__gr_offs
	ldr	x0, [x19]	// iftmp.163, argv.__stack
	cmp	w1, 0	// D.8340,
	blt	.L310		//,
	add	x1, x0, 11	// D.8345, iftmp.163,
	and	x1, x1, -8	// D.8346, D.8345,
	str	x1, [x19]	// D.8346, argv.__stack
	b	.L311		//
.L310:
	add	w2, w1, 8	// D.8348, D.8340,
	str	w2, [x19, 24]	// D.8348, argv.__gr_offs
	ldr	w2, [x19, 24]	// D.8350, argv.__gr_offs
	cmp	w2, 0	// D.8350,
	ble	.L312		//,
	add	x1, x0, 11	// D.8353, iftmp.163,
	and	x1, x1, -8	// D.8354, D.8353,
	str	x1, [x19]	// D.8354, argv.__stack
	b	.L311		//
.L312:
	ldr	x2, [x19, 8]	// D.8356, argv.__gr_top
	sxtw	x0, w1	// D.8357, D.8340
	add	x0, x2, x0	// iftmp.163, D.8356, D.8357
.L311:
	ldr	w0, [x0]	// tmp193, *iftmp.162_48
	str	w0, [sp, 48]	// tmp193, b
// varargs-dll.c:172:   int c = va_arg (argv, int);
	ldr	w1, [x19, 24]	// D.8358, argv.__gr_offs
	ldr	x0, [x19]	// iftmp.165, argv.__stack
	cmp	w1, 0	// D.8358,
	blt	.L314		//,
	add	x1, x0, 11	// D.8363, iftmp.165,
	and	x1, x1, -8	// D.8364, D.8363,
	str	x1, [x19]	// D.8364, argv.__stack
	b	.L315		//
.L314:
	add	w2, w1, 8	// D.8366, D.8358,
	str	w2, [x19, 24]	// D.8366, argv.__gr_offs
	ldr	w2, [x19, 24]	// D.8368, argv.__gr_offs
	cmp	w2, 0	// D.8368,
	ble	.L316		//,
	add	x1, x0, 11	// D.8371, iftmp.165,
	and	x1, x1, -8	// D.8372, D.8371,
	str	x1, [x19]	// D.8372, argv.__stack
	b	.L315		//
.L316:
	ldr	x2, [x19, 8]	// D.8374, argv.__gr_top
	sxtw	x0, w1	// D.8375, D.8358
	add	x0, x2, x0	// iftmp.165, D.8374, D.8375
.L315:
	ldr	w0, [x0]	// tmp194, *iftmp.164_50
	str	w0, [sp, 52]	// tmp194, c
// varargs-dll.c:173:   int d = va_arg (argv, int);
	ldr	w1, [x19, 24]	// D.8376, argv.__gr_offs
	ldr	x0, [x19]	// iftmp.167, argv.__stack
	cmp	w1, 0	// D.8376,
	blt	.L318		//,
	add	x1, x0, 11	// D.8381, iftmp.167,
	and	x1, x1, -8	// D.8382, D.8381,
	str	x1, [x19]	// D.8382, argv.__stack
	b	.L319		//
.L318:
	add	w2, w1, 8	// D.8384, D.8376,
	str	w2, [x19, 24]	// D.8384, argv.__gr_offs
	ldr	w2, [x19, 24]	// D.8386, argv.__gr_offs
	cmp	w2, 0	// D.8386,
	ble	.L320		//,
	add	x1, x0, 11	// D.8389, iftmp.167,
	and	x1, x1, -8	// D.8390, D.8389,
	str	x1, [x19]	// D.8390, argv.__stack
	b	.L319		//
.L320:
	ldr	x2, [x19, 8]	// D.8392, argv.__gr_top
	sxtw	x0, w1	// D.8393, D.8376
	add	x0, x2, x0	// iftmp.167, D.8392, D.8393
.L319:
	ldr	w0, [x0]	// tmp195, *iftmp.166_52
	str	w0, [sp, 56]	// tmp195, d
// varargs-dll.c:174:   int e = va_arg (argv, int);
	ldr	w1, [x19, 24]	// D.8394, argv.__gr_offs
	ldr	x0, [x19]	// iftmp.169, argv.__stack
	cmp	w1, 0	// D.8394,
	blt	.L322		//,
	add	x1, x0, 11	// D.8399, iftmp.169,
	and	x1, x1, -8	// D.8400, D.8399,
	str	x1, [x19]	// D.8400, argv.__stack
	b	.L323		//
.L322:
	add	w2, w1, 8	// D.8402, D.8394,
	str	w2, [x19, 24]	// D.8402, argv.__gr_offs
	ldr	w2, [x19, 24]	// D.8404, argv.__gr_offs
	cmp	w2, 0	// D.8404,
	ble	.L324		//,
	add	x1, x0, 11	// D.8407, iftmp.169,
	and	x1, x1, -8	// D.8408, D.8407,
	str	x1, [x19]	// D.8408, argv.__stack
	b	.L323		//
.L324:
	ldr	x2, [x19, 8]	// D.8410, argv.__gr_top
	sxtw	x0, w1	// D.8411, D.8394
	add	x0, x2, x0	// iftmp.169, D.8410, D.8411
.L323:
	ldr	w0, [x0]	// tmp196, *iftmp.168_54
	str	w0, [sp, 60]	// tmp196, e
// varargs-dll.c:175:   int f = va_arg (argv, int);
	ldr	w1, [x19, 24]	// D.8412, argv.__gr_offs
	ldr	x0, [x19]	// iftmp.171, argv.__stack
	cmp	w1, 0	// D.8412,
	blt	.L326		//,
	add	x1, x0, 11	// D.8417, iftmp.171,
	and	x1, x1, -8	// D.8418, D.8417,
	str	x1, [x19]	// D.8418, argv.__stack
	b	.L327		//
.L326:
	add	w2, w1, 8	// D.8420, D.8412,
	str	w2, [x19, 24]	// D.8420, argv.__gr_offs
	ldr	w2, [x19, 24]	// D.8422, argv.__gr_offs
	cmp	w2, 0	// D.8422,
	ble	.L328		//,
	add	x1, x0, 11	// D.8425, iftmp.171,
	and	x1, x1, -8	// D.8426, D.8425,
	str	x1, [x19]	// D.8426, argv.__stack
	b	.L327		//
.L328:
	ldr	x2, [x19, 8]	// D.8428, argv.__gr_top
	sxtw	x0, w1	// D.8429, D.8412
	add	x0, x2, x0	// iftmp.171, D.8428, D.8429
.L327:
	ldr	w0, [x0]	// tmp197, *iftmp.170_56
	str	w0, [sp, 64]	// tmp197, f
// varargs-dll.c:176:   int g = va_arg (argv, int);
	ldr	w1, [x19, 24]	// D.8430, argv.__gr_offs
	ldr	x0, [x19]	// iftmp.173, argv.__stack
	cmp	w1, 0	// D.8430,
	blt	.L330		//,
	add	x1, x0, 11	// D.8435, iftmp.173,
	and	x1, x1, -8	// D.8436, D.8435,
	str	x1, [x19]	// D.8436, argv.__stack
	b	.L331		//
.L330:
	add	w2, w1, 8	// D.8438, D.8430,
	str	w2, [x19, 24]	// D.8438, argv.__gr_offs
	ldr	w2, [x19, 24]	// D.8440, argv.__gr_offs
	cmp	w2, 0	// D.8440,
	ble	.L332		//,
	add	x1, x0, 11	// D.8443, iftmp.173,
	and	x1, x1, -8	// D.8444, D.8443,
	str	x1, [x19]	// D.8444, argv.__stack
	b	.L331		//
.L332:
	ldr	x2, [x19, 8]	// D.8446, argv.__gr_top
	sxtw	x0, w1	// D.8447, D.8430
	add	x0, x2, x0	// iftmp.173, D.8446, D.8447
.L331:
	ldr	w0, [x0]	// tmp198, *iftmp.172_58
	str	w0, [sp, 68]	// tmp198, g
// varargs-dll.c:177:   int h = va_arg (argv, int);
	ldr	w1, [x19, 24]	// D.8448, argv.__gr_offs
	ldr	x0, [x19]	// iftmp.175, argv.__stack
	cmp	w1, 0	// D.8448,
	blt	.L334		//,
	add	x1, x0, 11	// D.8453, iftmp.175,
	and	x1, x1, -8	// D.8454, D.8453,
	str	x1, [x19]	// D.8454, argv.__stack
	b	.L335		//
.L334:
	add	w2, w1, 8	// D.8456, D.8448,
	str	w2, [x19, 24]	// D.8456, argv.__gr_offs
	ldr	w2, [x19, 24]	// D.8458, argv.__gr_offs
	cmp	w2, 0	// D.8458,
	ble	.L336		//,
	add	x1, x0, 11	// D.8461, iftmp.175,
	and	x1, x1, -8	// D.8462, D.8461,
	str	x1, [x19]	// D.8462, argv.__stack
	b	.L335		//
.L336:
	ldr	x2, [x19, 8]	// D.8464, argv.__gr_top
	sxtw	x0, w1	// D.8465, D.8448
	add	x0, x2, x0	// iftmp.175, D.8464, D.8465
.L335:
	ldr	w0, [x0]	// tmp199, *iftmp.174_60
	str	w0, [sp, 72]	// tmp199, h
// varargs-dll.c:178:   int i = va_arg (argv, int);
	ldr	w1, [x19, 24]	// D.8466, argv.__gr_offs
	ldr	x0, [x19]	// iftmp.177, argv.__stack
	cmp	w1, 0	// D.8466,
	blt	.L338		//,
	add	x1, x0, 11	// D.8471, iftmp.177,
	and	x1, x1, -8	// D.8472, D.8471,
	str	x1, [x19]	// D.8472, argv.__stack
	b	.L339		//
.L338:
	add	w2, w1, 8	// D.8474, D.8466,
	str	w2, [x19, 24]	// D.8474, argv.__gr_offs
	ldr	w2, [x19, 24]	// D.8476, argv.__gr_offs
	cmp	w2, 0	// D.8476,
	ble	.L340		//,
	add	x1, x0, 11	// D.8479, iftmp.177,
	and	x1, x1, -8	// D.8480, D.8479,
	str	x1, [x19]	// D.8480, argv.__stack
	b	.L339		//
.L340:
	ldr	x2, [x19, 8]	// D.8482, argv.__gr_top
	sxtw	x0, w1	// D.8483, D.8466
	add	x0, x2, x0	// iftmp.177, D.8482, D.8483
.L339:
	ldr	w0, [x0]	// tmp200, *iftmp.176_62
	str	w0, [sp, 76]	// tmp200, i
// varargs-dll.c:179:   return a + b + c + d + e + f + g + h + i;
	ldr	w1, [sp, 44]	// tmp201, a
	ldr	w0, [sp, 48]	// tmp202, b
	add	w1, w1, w0	// _1, tmp201, tmp202
// varargs-dll.c:179:   return a + b + c + d + e + f + g + h + i;
	ldr	w0, [sp, 52]	// tmp203, c
	add	w1, w1, w0	// _2, _1, tmp203
// varargs-dll.c:179:   return a + b + c + d + e + f + g + h + i;
	ldr	w0, [sp, 56]	// tmp204, d
	add	w1, w1, w0	// _3, _2, tmp204
// varargs-dll.c:179:   return a + b + c + d + e + f + g + h + i;
	ldr	w0, [sp, 60]	// tmp205, e
	add	w1, w1, w0	// _4, _3, tmp205
// varargs-dll.c:179:   return a + b + c + d + e + f + g + h + i;
	ldr	w0, [sp, 64]	// tmp206, f
	add	w1, w1, w0	// _5, _4, tmp206
// varargs-dll.c:179:   return a + b + c + d + e + f + g + h + i;
	ldr	w0, [sp, 68]	// tmp207, g
	add	w1, w1, w0	// _6, _5, tmp207
// varargs-dll.c:179:   return a + b + c + d + e + f + g + h + i;
	ldr	w0, [sp, 72]	// tmp208, h
	add	w1, w1, w0	// _7, _6, tmp208
// varargs-dll.c:179:   return a + b + c + d + e + f + g + h + i;
	ldr	w0, [sp, 76]	// tmp209, i
	add	w0, w1, w0	// _27, _7, tmp209
// varargs-dll.c:180: }
	ldr	x19, [sp], 80	//,
	.cfi_restore 19
	.cfi_def_cfa_offset 0
	ret	
	.cfi_endproc
.LFE17:
	.size	use_va_list_several_ints, .-use_va_list_several_ints
	.align	2
	.global	use_va_args_many_ints
	.type	use_va_args_many_ints, %function
use_va_args_many_ints:
.LFB18:
	.cfi_startproc
	stp	x29, x30, [sp, -336]!	//,,,
	.cfi_def_cfa_offset 336
	.cfi_offset 29, -336
	.cfi_offset 30, -328
	mov	x29, sp	//,
	str	x0, [sp, 24]	// format, format
	str	x1, [sp, 280]	//,
	str	x2, [sp, 288]	//,
	str	x3, [sp, 296]	//,
	str	x4, [sp, 304]	//,
	str	x5, [sp, 312]	//,
	str	x6, [sp, 320]	//,
	str	x7, [sp, 328]	//,
	str	q0, [sp, 144]	//,
	str	q1, [sp, 160]	//,
	str	q2, [sp, 176]	//,
	str	q3, [sp, 192]	//,
	str	q4, [sp, 208]	//,
	str	q5, [sp, 224]	//,
	str	q6, [sp, 240]	//,
	str	q7, [sp, 256]	//,
// varargs-dll.c:184: {
	adrp	x0, :got:__stack_chk_guard	// tmp280,
	ldr	x0, [x0, #:got_lo12:__stack_chk_guard]	// tmp279, tmp280,
	ldr	x1, [x0]	// tmp322,
	str	x1, [sp, 136]	// tmp322, D.8790
	mov	x1, 0	// tmp322
// varargs-dll.c:186:   va_start (argv, format);
	add	x0, sp, 336	// tmp327,,
	str	x0, [sp, 104]	// tmp327, MEM[(struct  *)&argv].__stack
	add	x0, sp, 336	// tmp328,,
	str	x0, [sp, 112]	// tmp328, MEM[(struct  *)&argv].__gr_top
	add	x0, sp, 272	// tmp282,,
	str	x0, [sp, 120]	// tmp282, MEM[(struct  *)&argv].__vr_top
	mov	w0, -56	// tmp283,
	str	w0, [sp, 128]	// tmp283, MEM[(struct  *)&argv].__gr_offs
	mov	w0, -128	// tmp284,
	str	w0, [sp, 132]	// tmp284, MEM[(struct  *)&argv].__vr_offs
// varargs-dll.c:187:   int a = va_arg (argv, int);
	ldr	w1, [sp, 128]	// D.8484, argv.__gr_offs
	ldr	x0, [sp, 104]	// iftmp.179, argv.__stack
	cmp	w1, 0	// D.8484,
	blt	.L344		//,
	add	x1, x0, 11	// D.8489, iftmp.179,
	and	x1, x1, -8	// D.8490, D.8489,
	str	x1, [sp, 104]	// D.8490, argv.__stack
	b	.L345		//
.L344:
	add	w2, w1, 8	// D.8492, D.8484,
	str	w2, [sp, 128]	// D.8492, argv.__gr_offs
	ldr	w2, [sp, 128]	// D.8494, argv.__gr_offs
	cmp	w2, 0	// D.8494,
	ble	.L346		//,
	add	x1, x0, 11	// D.8497, iftmp.179,
	and	x1, x1, -8	// D.8498, D.8497,
	str	x1, [sp, 104]	// D.8498, argv.__stack
	b	.L345		//
.L346:
	ldr	x2, [sp, 112]	// D.8500, argv.__gr_top
	sxtw	x0, w1	// D.8501, D.8484
	add	x0, x2, x0	// iftmp.179, D.8500, D.8501
.L345:
	ldr	w0, [x0]	// tmp285, *iftmp.178_89
	str	w0, [sp, 36]	// tmp285, a
// varargs-dll.c:188:   int b = va_arg (argv, int);
	ldr	w1, [sp, 128]	// D.8502, argv.__gr_offs
	ldr	x0, [sp, 104]	// iftmp.181, argv.__stack
	cmp	w1, 0	// D.8502,
	blt	.L348		//,
	add	x1, x0, 11	// D.8507, iftmp.181,
	and	x1, x1, -8	// D.8508, D.8507,
	str	x1, [sp, 104]	// D.8508, argv.__stack
	b	.L349		//
.L348:
	add	w2, w1, 8	// D.8510, D.8502,
	str	w2, [sp, 128]	// D.8510, argv.__gr_offs
	ldr	w2, [sp, 128]	// D.8512, argv.__gr_offs
	cmp	w2, 0	// D.8512,
	ble	.L350		//,
	add	x1, x0, 11	// D.8515, iftmp.181,
	and	x1, x1, -8	// D.8516, D.8515,
	str	x1, [sp, 104]	// D.8516, argv.__stack
	b	.L349		//
.L350:
	ldr	x2, [sp, 112]	// D.8518, argv.__gr_top
	sxtw	x0, w1	// D.8519, D.8502
	add	x0, x2, x0	// iftmp.181, D.8518, D.8519
.L349:
	ldr	w0, [x0]	// tmp286, *iftmp.180_91
	str	w0, [sp, 40]	// tmp286, b
// varargs-dll.c:189:   int c = va_arg (argv, int);
	ldr	w1, [sp, 128]	// D.8520, argv.__gr_offs
	ldr	x0, [sp, 104]	// iftmp.183, argv.__stack
	cmp	w1, 0	// D.8520,
	blt	.L352		//,
	add	x1, x0, 11	// D.8525, iftmp.183,
	and	x1, x1, -8	// D.8526, D.8525,
	str	x1, [sp, 104]	// D.8526, argv.__stack
	b	.L353		//
.L352:
	add	w2, w1, 8	// D.8528, D.8520,
	str	w2, [sp, 128]	// D.8528, argv.__gr_offs
	ldr	w2, [sp, 128]	// D.8530, argv.__gr_offs
	cmp	w2, 0	// D.8530,
	ble	.L354		//,
	add	x1, x0, 11	// D.8533, iftmp.183,
	and	x1, x1, -8	// D.8534, D.8533,
	str	x1, [sp, 104]	// D.8534, argv.__stack
	b	.L353		//
.L354:
	ldr	x2, [sp, 112]	// D.8536, argv.__gr_top
	sxtw	x0, w1	// D.8537, D.8520
	add	x0, x2, x0	// iftmp.183, D.8536, D.8537
.L353:
	ldr	w0, [x0]	// tmp287, *iftmp.182_93
	str	w0, [sp, 44]	// tmp287, c
// varargs-dll.c:190:   int d = va_arg (argv, int);
	ldr	w1, [sp, 128]	// D.8538, argv.__gr_offs
	ldr	x0, [sp, 104]	// iftmp.185, argv.__stack
	cmp	w1, 0	// D.8538,
	blt	.L356		//,
	add	x1, x0, 11	// D.8543, iftmp.185,
	and	x1, x1, -8	// D.8544, D.8543,
	str	x1, [sp, 104]	// D.8544, argv.__stack
	b	.L357		//
.L356:
	add	w2, w1, 8	// D.8546, D.8538,
	str	w2, [sp, 128]	// D.8546, argv.__gr_offs
	ldr	w2, [sp, 128]	// D.8548, argv.__gr_offs
	cmp	w2, 0	// D.8548,
	ble	.L358		//,
	add	x1, x0, 11	// D.8551, iftmp.185,
	and	x1, x1, -8	// D.8552, D.8551,
	str	x1, [sp, 104]	// D.8552, argv.__stack
	b	.L357		//
.L358:
	ldr	x2, [sp, 112]	// D.8554, argv.__gr_top
	sxtw	x0, w1	// D.8555, D.8538
	add	x0, x2, x0	// iftmp.185, D.8554, D.8555
.L357:
	ldr	w0, [x0]	// tmp288, *iftmp.184_95
	str	w0, [sp, 48]	// tmp288, d
// varargs-dll.c:191:   int e = va_arg (argv, int);
	ldr	w1, [sp, 128]	// D.8556, argv.__gr_offs
	ldr	x0, [sp, 104]	// iftmp.187, argv.__stack
	cmp	w1, 0	// D.8556,
	blt	.L360		//,
	add	x1, x0, 11	// D.8561, iftmp.187,
	and	x1, x1, -8	// D.8562, D.8561,
	str	x1, [sp, 104]	// D.8562, argv.__stack
	b	.L361		//
.L360:
	add	w2, w1, 8	// D.8564, D.8556,
	str	w2, [sp, 128]	// D.8564, argv.__gr_offs
	ldr	w2, [sp, 128]	// D.8566, argv.__gr_offs
	cmp	w2, 0	// D.8566,
	ble	.L362		//,
	add	x1, x0, 11	// D.8569, iftmp.187,
	and	x1, x1, -8	// D.8570, D.8569,
	str	x1, [sp, 104]	// D.8570, argv.__stack
	b	.L361		//
.L362:
	ldr	x2, [sp, 112]	// D.8572, argv.__gr_top
	sxtw	x0, w1	// D.8573, D.8556
	add	x0, x2, x0	// iftmp.187, D.8572, D.8573
.L361:
	ldr	w0, [x0]	// tmp289, *iftmp.186_97
	str	w0, [sp, 52]	// tmp289, e
// varargs-dll.c:192:   int f = va_arg (argv, int);
	ldr	w1, [sp, 128]	// D.8574, argv.__gr_offs
	ldr	x0, [sp, 104]	// iftmp.189, argv.__stack
	cmp	w1, 0	// D.8574,
	blt	.L364		//,
	add	x1, x0, 11	// D.8579, iftmp.189,
	and	x1, x1, -8	// D.8580, D.8579,
	str	x1, [sp, 104]	// D.8580, argv.__stack
	b	.L365		//
.L364:
	add	w2, w1, 8	// D.8582, D.8574,
	str	w2, [sp, 128]	// D.8582, argv.__gr_offs
	ldr	w2, [sp, 128]	// D.8584, argv.__gr_offs
	cmp	w2, 0	// D.8584,
	ble	.L366		//,
	add	x1, x0, 11	// D.8587, iftmp.189,
	and	x1, x1, -8	// D.8588, D.8587,
	str	x1, [sp, 104]	// D.8588, argv.__stack
	b	.L365		//
.L366:
	ldr	x2, [sp, 112]	// D.8590, argv.__gr_top
	sxtw	x0, w1	// D.8591, D.8574
	add	x0, x2, x0	// iftmp.189, D.8590, D.8591
.L365:
	ldr	w0, [x0]	// tmp290, *iftmp.188_99
	str	w0, [sp, 56]	// tmp290, f
// varargs-dll.c:193:   int g = va_arg (argv, int);
	ldr	w1, [sp, 128]	// D.8592, argv.__gr_offs
	ldr	x0, [sp, 104]	// iftmp.191, argv.__stack
	cmp	w1, 0	// D.8592,
	blt	.L368		//,
	add	x1, x0, 11	// D.8597, iftmp.191,
	and	x1, x1, -8	// D.8598, D.8597,
	str	x1, [sp, 104]	// D.8598, argv.__stack
	b	.L369		//
.L368:
	add	w2, w1, 8	// D.8600, D.8592,
	str	w2, [sp, 128]	// D.8600, argv.__gr_offs
	ldr	w2, [sp, 128]	// D.8602, argv.__gr_offs
	cmp	w2, 0	// D.8602,
	ble	.L370		//,
	add	x1, x0, 11	// D.8605, iftmp.191,
	and	x1, x1, -8	// D.8606, D.8605,
	str	x1, [sp, 104]	// D.8606, argv.__stack
	b	.L369		//
.L370:
	ldr	x2, [sp, 112]	// D.8608, argv.__gr_top
	sxtw	x0, w1	// D.8609, D.8592
	add	x0, x2, x0	// iftmp.191, D.8608, D.8609
.L369:
	ldr	w0, [x0]	// tmp291, *iftmp.190_101
	str	w0, [sp, 60]	// tmp291, g
// varargs-dll.c:194:   int h = va_arg (argv, int);
	ldr	w1, [sp, 128]	// D.8610, argv.__gr_offs
	ldr	x0, [sp, 104]	// iftmp.193, argv.__stack
	cmp	w1, 0	// D.8610,
	blt	.L372		//,
	add	x1, x0, 11	// D.8615, iftmp.193,
	and	x1, x1, -8	// D.8616, D.8615,
	str	x1, [sp, 104]	// D.8616, argv.__stack
	b	.L373		//
.L372:
	add	w2, w1, 8	// D.8618, D.8610,
	str	w2, [sp, 128]	// D.8618, argv.__gr_offs
	ldr	w2, [sp, 128]	// D.8620, argv.__gr_offs
	cmp	w2, 0	// D.8620,
	ble	.L374		//,
	add	x1, x0, 11	// D.8623, iftmp.193,
	and	x1, x1, -8	// D.8624, D.8623,
	str	x1, [sp, 104]	// D.8624, argv.__stack
	b	.L373		//
.L374:
	ldr	x2, [sp, 112]	// D.8626, argv.__gr_top
	sxtw	x0, w1	// D.8627, D.8610
	add	x0, x2, x0	// iftmp.193, D.8626, D.8627
.L373:
	ldr	w0, [x0]	// tmp292, *iftmp.192_103
	str	w0, [sp, 64]	// tmp292, h
// varargs-dll.c:195:   int i = va_arg (argv, int);
	ldr	w1, [sp, 128]	// D.8628, argv.__gr_offs
	ldr	x0, [sp, 104]	// iftmp.195, argv.__stack
	cmp	w1, 0	// D.8628,
	blt	.L376		//,
	add	x1, x0, 11	// D.8633, iftmp.195,
	and	x1, x1, -8	// D.8634, D.8633,
	str	x1, [sp, 104]	// D.8634, argv.__stack
	b	.L377		//
.L376:
	add	w2, w1, 8	// D.8636, D.8628,
	str	w2, [sp, 128]	// D.8636, argv.__gr_offs
	ldr	w2, [sp, 128]	// D.8638, argv.__gr_offs
	cmp	w2, 0	// D.8638,
	ble	.L378		//,
	add	x1, x0, 11	// D.8641, iftmp.195,
	and	x1, x1, -8	// D.8642, D.8641,
	str	x1, [sp, 104]	// D.8642, argv.__stack
	b	.L377		//
.L378:
	ldr	x2, [sp, 112]	// D.8644, argv.__gr_top
	sxtw	x0, w1	// D.8645, D.8628
	add	x0, x2, x0	// iftmp.195, D.8644, D.8645
.L377:
	ldr	w0, [x0]	// tmp293, *iftmp.194_105
	str	w0, [sp, 68]	// tmp293, i
// varargs-dll.c:196:   int j = va_arg (argv, int);
	ldr	w1, [sp, 128]	// D.8646, argv.__gr_offs
	ldr	x0, [sp, 104]	// iftmp.197, argv.__stack
	cmp	w1, 0	// D.8646,
	blt	.L380		//,
	add	x1, x0, 11	// D.8651, iftmp.197,
	and	x1, x1, -8	// D.8652, D.8651,
	str	x1, [sp, 104]	// D.8652, argv.__stack
	b	.L381		//
.L380:
	add	w2, w1, 8	// D.8654, D.8646,
	str	w2, [sp, 128]	// D.8654, argv.__gr_offs
	ldr	w2, [sp, 128]	// D.8656, argv.__gr_offs
	cmp	w2, 0	// D.8656,
	ble	.L382		//,
	add	x1, x0, 11	// D.8659, iftmp.197,
	and	x1, x1, -8	// D.8660, D.8659,
	str	x1, [sp, 104]	// D.8660, argv.__stack
	b	.L381		//
.L382:
	ldr	x2, [sp, 112]	// D.8662, argv.__gr_top
	sxtw	x0, w1	// D.8663, D.8646
	add	x0, x2, x0	// iftmp.197, D.8662, D.8663
.L381:
	ldr	w0, [x0]	// tmp294, *iftmp.196_107
	str	w0, [sp, 72]	// tmp294, j
// varargs-dll.c:197:   int k = va_arg (argv, int);
	ldr	w1, [sp, 128]	// D.8664, argv.__gr_offs
	ldr	x0, [sp, 104]	// iftmp.199, argv.__stack
	cmp	w1, 0	// D.8664,
	blt	.L384		//,
	add	x1, x0, 11	// D.8669, iftmp.199,
	and	x1, x1, -8	// D.8670, D.8669,
	str	x1, [sp, 104]	// D.8670, argv.__stack
	b	.L385		//
.L384:
	add	w2, w1, 8	// D.8672, D.8664,
	str	w2, [sp, 128]	// D.8672, argv.__gr_offs
	ldr	w2, [sp, 128]	// D.8674, argv.__gr_offs
	cmp	w2, 0	// D.8674,
	ble	.L386		//,
	add	x1, x0, 11	// D.8677, iftmp.199,
	and	x1, x1, -8	// D.8678, D.8677,
	str	x1, [sp, 104]	// D.8678, argv.__stack
	b	.L385		//
.L386:
	ldr	x2, [sp, 112]	// D.8680, argv.__gr_top
	sxtw	x0, w1	// D.8681, D.8664
	add	x0, x2, x0	// iftmp.199, D.8680, D.8681
.L385:
	ldr	w0, [x0]	// tmp295, *iftmp.198_109
	str	w0, [sp, 76]	// tmp295, k
// varargs-dll.c:198:   int l = va_arg (argv, int);
	ldr	w1, [sp, 128]	// D.8682, argv.__gr_offs
	ldr	x0, [sp, 104]	// iftmp.201, argv.__stack
	cmp	w1, 0	// D.8682,
	blt	.L388		//,
	add	x1, x0, 11	// D.8687, iftmp.201,
	and	x1, x1, -8	// D.8688, D.8687,
	str	x1, [sp, 104]	// D.8688, argv.__stack
	b	.L389		//
.L388:
	add	w2, w1, 8	// D.8690, D.8682,
	str	w2, [sp, 128]	// D.8690, argv.__gr_offs
	ldr	w2, [sp, 128]	// D.8692, argv.__gr_offs
	cmp	w2, 0	// D.8692,
	ble	.L390		//,
	add	x1, x0, 11	// D.8695, iftmp.201,
	and	x1, x1, -8	// D.8696, D.8695,
	str	x1, [sp, 104]	// D.8696, argv.__stack
	b	.L389		//
.L390:
	ldr	x2, [sp, 112]	// D.8698, argv.__gr_top
	sxtw	x0, w1	// D.8699, D.8682
	add	x0, x2, x0	// iftmp.201, D.8698, D.8699
.L389:
	ldr	w0, [x0]	// tmp296, *iftmp.200_111
	str	w0, [sp, 80]	// tmp296, l
// varargs-dll.c:199:   int m = va_arg (argv, int);
	ldr	w1, [sp, 128]	// D.8700, argv.__gr_offs
	ldr	x0, [sp, 104]	// iftmp.203, argv.__stack
	cmp	w1, 0	// D.8700,
	blt	.L392		//,
	add	x1, x0, 11	// D.8705, iftmp.203,
	and	x1, x1, -8	// D.8706, D.8705,
	str	x1, [sp, 104]	// D.8706, argv.__stack
	b	.L393		//
.L392:
	add	w2, w1, 8	// D.8708, D.8700,
	str	w2, [sp, 128]	// D.8708, argv.__gr_offs
	ldr	w2, [sp, 128]	// D.8710, argv.__gr_offs
	cmp	w2, 0	// D.8710,
	ble	.L394		//,
	add	x1, x0, 11	// D.8713, iftmp.203,
	and	x1, x1, -8	// D.8714, D.8713,
	str	x1, [sp, 104]	// D.8714, argv.__stack
	b	.L393		//
.L394:
	ldr	x2, [sp, 112]	// D.8716, argv.__gr_top
	sxtw	x0, w1	// D.8717, D.8700
	add	x0, x2, x0	// iftmp.203, D.8716, D.8717
.L393:
	ldr	w0, [x0]	// tmp297, *iftmp.202_113
	str	w0, [sp, 84]	// tmp297, m
// varargs-dll.c:200:   int n = va_arg (argv, int);
	ldr	w1, [sp, 128]	// D.8718, argv.__gr_offs
	ldr	x0, [sp, 104]	// iftmp.205, argv.__stack
	cmp	w1, 0	// D.8718,
	blt	.L396		//,
	add	x1, x0, 11	// D.8723, iftmp.205,
	and	x1, x1, -8	// D.8724, D.8723,
	str	x1, [sp, 104]	// D.8724, argv.__stack
	b	.L397		//
.L396:
	add	w2, w1, 8	// D.8726, D.8718,
	str	w2, [sp, 128]	// D.8726, argv.__gr_offs
	ldr	w2, [sp, 128]	// D.8728, argv.__gr_offs
	cmp	w2, 0	// D.8728,
	ble	.L398		//,
	add	x1, x0, 11	// D.8731, iftmp.205,
	and	x1, x1, -8	// D.8732, D.8731,
	str	x1, [sp, 104]	// D.8732, argv.__stack
	b	.L397		//
.L398:
	ldr	x2, [sp, 112]	// D.8734, argv.__gr_top
	sxtw	x0, w1	// D.8735, D.8718
	add	x0, x2, x0	// iftmp.205, D.8734, D.8735
.L397:
	ldr	w0, [x0]	// tmp298, *iftmp.204_115
	str	w0, [sp, 88]	// tmp298, n
// varargs-dll.c:201:   int o = va_arg (argv, int);
	ldr	w1, [sp, 128]	// D.8736, argv.__gr_offs
	ldr	x0, [sp, 104]	// iftmp.207, argv.__stack
	cmp	w1, 0	// D.8736,
	blt	.L400		//,
	add	x1, x0, 11	// D.8741, iftmp.207,
	and	x1, x1, -8	// D.8742, D.8741,
	str	x1, [sp, 104]	// D.8742, argv.__stack
	b	.L401		//
.L400:
	add	w2, w1, 8	// D.8744, D.8736,
	str	w2, [sp, 128]	// D.8744, argv.__gr_offs
	ldr	w2, [sp, 128]	// D.8746, argv.__gr_offs
	cmp	w2, 0	// D.8746,
	ble	.L402		//,
	add	x1, x0, 11	// D.8749, iftmp.207,
	and	x1, x1, -8	// D.8750, D.8749,
	str	x1, [sp, 104]	// D.8750, argv.__stack
	b	.L401		//
.L402:
	ldr	x2, [sp, 112]	// D.8752, argv.__gr_top
	sxtw	x0, w1	// D.8753, D.8736
	add	x0, x2, x0	// iftmp.207, D.8752, D.8753
.L401:
	ldr	w0, [x0]	// tmp299, *iftmp.206_117
	str	w0, [sp, 92]	// tmp299, o
// varargs-dll.c:202:   int p = va_arg (argv, int);
	ldr	w1, [sp, 128]	// D.8754, argv.__gr_offs
	ldr	x0, [sp, 104]	// iftmp.209, argv.__stack
	cmp	w1, 0	// D.8754,
	blt	.L404		//,
	add	x1, x0, 11	// D.8759, iftmp.209,
	and	x1, x1, -8	// D.8760, D.8759,
	str	x1, [sp, 104]	// D.8760, argv.__stack
	b	.L405		//
.L404:
	add	w2, w1, 8	// D.8762, D.8754,
	str	w2, [sp, 128]	// D.8762, argv.__gr_offs
	ldr	w2, [sp, 128]	// D.8764, argv.__gr_offs
	cmp	w2, 0	// D.8764,
	ble	.L406		//,
	add	x1, x0, 11	// D.8767, iftmp.209,
	and	x1, x1, -8	// D.8768, D.8767,
	str	x1, [sp, 104]	// D.8768, argv.__stack
	b	.L405		//
.L406:
	ldr	x2, [sp, 112]	// D.8770, argv.__gr_top
	sxtw	x0, w1	// D.8771, D.8754
	add	x0, x2, x0	// iftmp.209, D.8770, D.8771
.L405:
	ldr	w0, [x0]	// tmp300, *iftmp.208_119
	str	w0, [sp, 96]	// tmp300, p
// varargs-dll.c:203:   int q = va_arg (argv, int);
	ldr	w1, [sp, 128]	// D.8772, argv.__gr_offs
	ldr	x0, [sp, 104]	// iftmp.211, argv.__stack
	cmp	w1, 0	// D.8772,
	blt	.L408		//,
	add	x1, x0, 11	// D.8777, iftmp.211,
	and	x1, x1, -8	// D.8778, D.8777,
	str	x1, [sp, 104]	// D.8778, argv.__stack
	b	.L409		//
.L408:
	add	w2, w1, 8	// D.8780, D.8772,
	str	w2, [sp, 128]	// D.8780, argv.__gr_offs
	ldr	w2, [sp, 128]	// D.8782, argv.__gr_offs
	cmp	w2, 0	// D.8782,
	ble	.L410		//,
	add	x1, x0, 11	// D.8785, iftmp.211,
	and	x1, x1, -8	// D.8786, D.8785,
	str	x1, [sp, 104]	// D.8786, argv.__stack
	b	.L409		//
.L410:
	ldr	x2, [sp, 112]	// D.8788, argv.__gr_top
	sxtw	x0, w1	// D.8789, D.8772
	add	x0, x2, x0	// iftmp.211, D.8788, D.8789
.L409:
	ldr	w0, [x0]	// tmp301, *iftmp.210_121
	str	w0, [sp, 100]	// tmp301, q
// varargs-dll.c:205:   return a + b + c + d + e + f + g + h + i + j + k + l + m + n + o + p + q;
	ldr	w1, [sp, 36]	// tmp302, a
	ldr	w0, [sp, 40]	// tmp303, b
	add	w1, w1, w0	// _1, tmp302, tmp303
// varargs-dll.c:205:   return a + b + c + d + e + f + g + h + i + j + k + l + m + n + o + p + q;
	ldr	w0, [sp, 44]	// tmp304, c
	add	w1, w1, w0	// _2, _1, tmp304
// varargs-dll.c:205:   return a + b + c + d + e + f + g + h + i + j + k + l + m + n + o + p + q;
	ldr	w0, [sp, 48]	// tmp305, d
	add	w1, w1, w0	// _3, _2, tmp305
// varargs-dll.c:205:   return a + b + c + d + e + f + g + h + i + j + k + l + m + n + o + p + q;
	ldr	w0, [sp, 52]	// tmp306, e
	add	w1, w1, w0	// _4, _3, tmp306
// varargs-dll.c:205:   return a + b + c + d + e + f + g + h + i + j + k + l + m + n + o + p + q;
	ldr	w0, [sp, 56]	// tmp307, f
	add	w1, w1, w0	// _5, _4, tmp307
// varargs-dll.c:205:   return a + b + c + d + e + f + g + h + i + j + k + l + m + n + o + p + q;
	ldr	w0, [sp, 60]	// tmp308, g
	add	w1, w1, w0	// _6, _5, tmp308
// varargs-dll.c:205:   return a + b + c + d + e + f + g + h + i + j + k + l + m + n + o + p + q;
	ldr	w0, [sp, 64]	// tmp309, h
	add	w1, w1, w0	// _7, _6, tmp309
// varargs-dll.c:205:   return a + b + c + d + e + f + g + h + i + j + k + l + m + n + o + p + q;
	ldr	w0, [sp, 68]	// tmp310, i
	add	w1, w1, w0	// _8, _7, tmp310
// varargs-dll.c:205:   return a + b + c + d + e + f + g + h + i + j + k + l + m + n + o + p + q;
	ldr	w0, [sp, 72]	// tmp311, j
	add	w1, w1, w0	// _9, _8, tmp311
// varargs-dll.c:205:   return a + b + c + d + e + f + g + h + i + j + k + l + m + n + o + p + q;
	ldr	w0, [sp, 76]	// tmp312, k
	add	w1, w1, w0	// _10, _9, tmp312
// varargs-dll.c:205:   return a + b + c + d + e + f + g + h + i + j + k + l + m + n + o + p + q;
	ldr	w0, [sp, 80]	// tmp313, l
	add	w1, w1, w0	// _11, _10, tmp313
// varargs-dll.c:205:   return a + b + c + d + e + f + g + h + i + j + k + l + m + n + o + p + q;
	ldr	w0, [sp, 84]	// tmp314, m
	add	w1, w1, w0	// _12, _11, tmp314
// varargs-dll.c:205:   return a + b + c + d + e + f + g + h + i + j + k + l + m + n + o + p + q;
	ldr	w0, [sp, 88]	// tmp315, n
	add	w1, w1, w0	// _13, _12, tmp315
// varargs-dll.c:205:   return a + b + c + d + e + f + g + h + i + j + k + l + m + n + o + p + q;
	ldr	w0, [sp, 92]	// tmp316, o
	add	w1, w1, w0	// _14, _13, tmp316
// varargs-dll.c:205:   return a + b + c + d + e + f + g + h + i + j + k + l + m + n + o + p + q;
	ldr	w0, [sp, 96]	// tmp317, p
	add	w1, w1, w0	// _15, _14, tmp317
// varargs-dll.c:205:   return a + b + c + d + e + f + g + h + i + j + k + l + m + n + o + p + q;
	ldr	w0, [sp, 100]	// tmp318, q
	add	w0, w1, w0	// _53, _15, tmp318
	mov	w1, w0	// <retval>, _53
// varargs-dll.c:206: }
	adrp	x0, :got:__stack_chk_guard	// tmp321,
	ldr	x0, [x0, #:got_lo12:__stack_chk_guard]	// tmp320, tmp321,
	ldr	x3, [sp, 136]	// tmp323, D.8790
	ldr	x2, [x0]	// tmp324,
	subs	x3, x3, x2	// tmp323, tmp324
	mov	x2, 0	// tmp324
	beq	.L413		//,
	bl	__stack_chk_fail		//
.L413:
	mov	w0, w1	//, <retval>
	ldp	x29, x30, [sp], 336	//,,,
	.cfi_restore 30
	.cfi_restore 29
	.cfi_def_cfa_offset 0
	ret	
	.cfi_endproc
.LFE18:
	.size	use_va_args_many_ints, .-use_va_args_many_ints
	.align	2
	.global	use_va_list_many_ints
	.type	use_va_list_many_ints, %function
use_va_list_many_ints:
.LFB19:
	.cfi_startproc
	str	x19, [sp, -112]!	//,
	.cfi_def_cfa_offset 112
	.cfi_offset 19, -112
	str	x0, [sp, 24]	// format, format
	mov	x19, x1	// tmp279,
// varargs-dll.c:211:   int a = va_arg (argv, int);
	ldr	w1, [x19, 24]	// D.8794, argv.__gr_offs
	ldr	x0, [x19]	// iftmp.213, argv.__stack
	cmp	w1, 0	// D.8794,
	blt	.L415		//,
	add	x1, x0, 11	// D.8799, iftmp.213,
	and	x1, x1, -8	// D.8800, D.8799,
	str	x1, [x19]	// D.8800, argv.__stack
	b	.L416		//
.L415:
	add	w2, w1, 8	// D.8802, D.8794,
	str	w2, [x19, 24]	// D.8802, argv.__gr_offs
	ldr	w2, [x19, 24]	// D.8804, argv.__gr_offs
	cmp	w2, 0	// D.8804,
	ble	.L417		//,
	add	x1, x0, 11	// D.8807, iftmp.213,
	and	x1, x1, -8	// D.8808, D.8807,
	str	x1, [x19]	// D.8808, argv.__stack
	b	.L416		//
.L417:
	ldr	x2, [x19, 8]	// D.8810, argv.__gr_top
	sxtw	x0, w1	// D.8811, D.8794
	add	x0, x2, x0	// iftmp.213, D.8810, D.8811
.L416:
	ldr	w0, [x0]	// tmp280, *iftmp.212_86
	str	w0, [sp, 44]	// tmp280, a
// varargs-dll.c:212:   int b = va_arg (argv, int);
	ldr	w1, [x19, 24]	// D.8812, argv.__gr_offs
	ldr	x0, [x19]	// iftmp.215, argv.__stack
	cmp	w1, 0	// D.8812,
	blt	.L419		//,
	add	x1, x0, 11	// D.8817, iftmp.215,
	and	x1, x1, -8	// D.8818, D.8817,
	str	x1, [x19]	// D.8818, argv.__stack
	b	.L420		//
.L419:
	add	w2, w1, 8	// D.8820, D.8812,
	str	w2, [x19, 24]	// D.8820, argv.__gr_offs
	ldr	w2, [x19, 24]	// D.8822, argv.__gr_offs
	cmp	w2, 0	// D.8822,
	ble	.L421		//,
	add	x1, x0, 11	// D.8825, iftmp.215,
	and	x1, x1, -8	// D.8826, D.8825,
	str	x1, [x19]	// D.8826, argv.__stack
	b	.L420		//
.L421:
	ldr	x2, [x19, 8]	// D.8828, argv.__gr_top
	sxtw	x0, w1	// D.8829, D.8812
	add	x0, x2, x0	// iftmp.215, D.8828, D.8829
.L420:
	ldr	w0, [x0]	// tmp281, *iftmp.214_88
	str	w0, [sp, 48]	// tmp281, b
// varargs-dll.c:213:   int c = va_arg (argv, int);
	ldr	w1, [x19, 24]	// D.8830, argv.__gr_offs
	ldr	x0, [x19]	// iftmp.217, argv.__stack
	cmp	w1, 0	// D.8830,
	blt	.L423		//,
	add	x1, x0, 11	// D.8835, iftmp.217,
	and	x1, x1, -8	// D.8836, D.8835,
	str	x1, [x19]	// D.8836, argv.__stack
	b	.L424		//
.L423:
	add	w2, w1, 8	// D.8838, D.8830,
	str	w2, [x19, 24]	// D.8838, argv.__gr_offs
	ldr	w2, [x19, 24]	// D.8840, argv.__gr_offs
	cmp	w2, 0	// D.8840,
	ble	.L425		//,
	add	x1, x0, 11	// D.8843, iftmp.217,
	and	x1, x1, -8	// D.8844, D.8843,
	str	x1, [x19]	// D.8844, argv.__stack
	b	.L424		//
.L425:
	ldr	x2, [x19, 8]	// D.8846, argv.__gr_top
	sxtw	x0, w1	// D.8847, D.8830
	add	x0, x2, x0	// iftmp.217, D.8846, D.8847
.L424:
	ldr	w0, [x0]	// tmp282, *iftmp.216_90
	str	w0, [sp, 52]	// tmp282, c
// varargs-dll.c:214:   int d = va_arg (argv, int);
	ldr	w1, [x19, 24]	// D.8848, argv.__gr_offs
	ldr	x0, [x19]	// iftmp.219, argv.__stack
	cmp	w1, 0	// D.8848,
	blt	.L427		//,
	add	x1, x0, 11	// D.8853, iftmp.219,
	and	x1, x1, -8	// D.8854, D.8853,
	str	x1, [x19]	// D.8854, argv.__stack
	b	.L428		//
.L427:
	add	w2, w1, 8	// D.8856, D.8848,
	str	w2, [x19, 24]	// D.8856, argv.__gr_offs
	ldr	w2, [x19, 24]	// D.8858, argv.__gr_offs
	cmp	w2, 0	// D.8858,
	ble	.L429		//,
	add	x1, x0, 11	// D.8861, iftmp.219,
	and	x1, x1, -8	// D.8862, D.8861,
	str	x1, [x19]	// D.8862, argv.__stack
	b	.L428		//
.L429:
	ldr	x2, [x19, 8]	// D.8864, argv.__gr_top
	sxtw	x0, w1	// D.8865, D.8848
	add	x0, x2, x0	// iftmp.219, D.8864, D.8865
.L428:
	ldr	w0, [x0]	// tmp283, *iftmp.218_92
	str	w0, [sp, 56]	// tmp283, d
// varargs-dll.c:215:   int e = va_arg (argv, int);
	ldr	w1, [x19, 24]	// D.8866, argv.__gr_offs
	ldr	x0, [x19]	// iftmp.221, argv.__stack
	cmp	w1, 0	// D.8866,
	blt	.L431		//,
	add	x1, x0, 11	// D.8871, iftmp.221,
	and	x1, x1, -8	// D.8872, D.8871,
	str	x1, [x19]	// D.8872, argv.__stack
	b	.L432		//
.L431:
	add	w2, w1, 8	// D.8874, D.8866,
	str	w2, [x19, 24]	// D.8874, argv.__gr_offs
	ldr	w2, [x19, 24]	// D.8876, argv.__gr_offs
	cmp	w2, 0	// D.8876,
	ble	.L433		//,
	add	x1, x0, 11	// D.8879, iftmp.221,
	and	x1, x1, -8	// D.8880, D.8879,
	str	x1, [x19]	// D.8880, argv.__stack
	b	.L432		//
.L433:
	ldr	x2, [x19, 8]	// D.8882, argv.__gr_top
	sxtw	x0, w1	// D.8883, D.8866
	add	x0, x2, x0	// iftmp.221, D.8882, D.8883
.L432:
	ldr	w0, [x0]	// tmp284, *iftmp.220_94
	str	w0, [sp, 60]	// tmp284, e
// varargs-dll.c:216:   int f = va_arg (argv, int);
	ldr	w1, [x19, 24]	// D.8884, argv.__gr_offs
	ldr	x0, [x19]	// iftmp.223, argv.__stack
	cmp	w1, 0	// D.8884,
	blt	.L435		//,
	add	x1, x0, 11	// D.8889, iftmp.223,
	and	x1, x1, -8	// D.8890, D.8889,
	str	x1, [x19]	// D.8890, argv.__stack
	b	.L436		//
.L435:
	add	w2, w1, 8	// D.8892, D.8884,
	str	w2, [x19, 24]	// D.8892, argv.__gr_offs
	ldr	w2, [x19, 24]	// D.8894, argv.__gr_offs
	cmp	w2, 0	// D.8894,
	ble	.L437		//,
	add	x1, x0, 11	// D.8897, iftmp.223,
	and	x1, x1, -8	// D.8898, D.8897,
	str	x1, [x19]	// D.8898, argv.__stack
	b	.L436		//
.L437:
	ldr	x2, [x19, 8]	// D.8900, argv.__gr_top
	sxtw	x0, w1	// D.8901, D.8884
	add	x0, x2, x0	// iftmp.223, D.8900, D.8901
.L436:
	ldr	w0, [x0]	// tmp285, *iftmp.222_96
	str	w0, [sp, 64]	// tmp285, f
// varargs-dll.c:217:   int g = va_arg (argv, int);
	ldr	w1, [x19, 24]	// D.8902, argv.__gr_offs
	ldr	x0, [x19]	// iftmp.225, argv.__stack
	cmp	w1, 0	// D.8902,
	blt	.L439		//,
	add	x1, x0, 11	// D.8907, iftmp.225,
	and	x1, x1, -8	// D.8908, D.8907,
	str	x1, [x19]	// D.8908, argv.__stack
	b	.L440		//
.L439:
	add	w2, w1, 8	// D.8910, D.8902,
	str	w2, [x19, 24]	// D.8910, argv.__gr_offs
	ldr	w2, [x19, 24]	// D.8912, argv.__gr_offs
	cmp	w2, 0	// D.8912,
	ble	.L441		//,
	add	x1, x0, 11	// D.8915, iftmp.225,
	and	x1, x1, -8	// D.8916, D.8915,
	str	x1, [x19]	// D.8916, argv.__stack
	b	.L440		//
.L441:
	ldr	x2, [x19, 8]	// D.8918, argv.__gr_top
	sxtw	x0, w1	// D.8919, D.8902
	add	x0, x2, x0	// iftmp.225, D.8918, D.8919
.L440:
	ldr	w0, [x0]	// tmp286, *iftmp.224_98
	str	w0, [sp, 68]	// tmp286, g
// varargs-dll.c:218:   int h = va_arg (argv, int);
	ldr	w1, [x19, 24]	// D.8920, argv.__gr_offs
	ldr	x0, [x19]	// iftmp.227, argv.__stack
	cmp	w1, 0	// D.8920,
	blt	.L443		//,
	add	x1, x0, 11	// D.8925, iftmp.227,
	and	x1, x1, -8	// D.8926, D.8925,
	str	x1, [x19]	// D.8926, argv.__stack
	b	.L444		//
.L443:
	add	w2, w1, 8	// D.8928, D.8920,
	str	w2, [x19, 24]	// D.8928, argv.__gr_offs
	ldr	w2, [x19, 24]	// D.8930, argv.__gr_offs
	cmp	w2, 0	// D.8930,
	ble	.L445		//,
	add	x1, x0, 11	// D.8933, iftmp.227,
	and	x1, x1, -8	// D.8934, D.8933,
	str	x1, [x19]	// D.8934, argv.__stack
	b	.L444		//
.L445:
	ldr	x2, [x19, 8]	// D.8936, argv.__gr_top
	sxtw	x0, w1	// D.8937, D.8920
	add	x0, x2, x0	// iftmp.227, D.8936, D.8937
.L444:
	ldr	w0, [x0]	// tmp287, *iftmp.226_100
	str	w0, [sp, 72]	// tmp287, h
// varargs-dll.c:219:   int i = va_arg (argv, int);
	ldr	w1, [x19, 24]	// D.8938, argv.__gr_offs
	ldr	x0, [x19]	// iftmp.229, argv.__stack
	cmp	w1, 0	// D.8938,
	blt	.L447		//,
	add	x1, x0, 11	// D.8943, iftmp.229,
	and	x1, x1, -8	// D.8944, D.8943,
	str	x1, [x19]	// D.8944, argv.__stack
	b	.L448		//
.L447:
	add	w2, w1, 8	// D.8946, D.8938,
	str	w2, [x19, 24]	// D.8946, argv.__gr_offs
	ldr	w2, [x19, 24]	// D.8948, argv.__gr_offs
	cmp	w2, 0	// D.8948,
	ble	.L449		//,
	add	x1, x0, 11	// D.8951, iftmp.229,
	and	x1, x1, -8	// D.8952, D.8951,
	str	x1, [x19]	// D.8952, argv.__stack
	b	.L448		//
.L449:
	ldr	x2, [x19, 8]	// D.8954, argv.__gr_top
	sxtw	x0, w1	// D.8955, D.8938
	add	x0, x2, x0	// iftmp.229, D.8954, D.8955
.L448:
	ldr	w0, [x0]	// tmp288, *iftmp.228_102
	str	w0, [sp, 76]	// tmp288, i
// varargs-dll.c:220:   int j = va_arg (argv, int);
	ldr	w1, [x19, 24]	// D.8956, argv.__gr_offs
	ldr	x0, [x19]	// iftmp.231, argv.__stack
	cmp	w1, 0	// D.8956,
	blt	.L451		//,
	add	x1, x0, 11	// D.8961, iftmp.231,
	and	x1, x1, -8	// D.8962, D.8961,
	str	x1, [x19]	// D.8962, argv.__stack
	b	.L452		//
.L451:
	add	w2, w1, 8	// D.8964, D.8956,
	str	w2, [x19, 24]	// D.8964, argv.__gr_offs
	ldr	w2, [x19, 24]	// D.8966, argv.__gr_offs
	cmp	w2, 0	// D.8966,
	ble	.L453		//,
	add	x1, x0, 11	// D.8969, iftmp.231,
	and	x1, x1, -8	// D.8970, D.8969,
	str	x1, [x19]	// D.8970, argv.__stack
	b	.L452		//
.L453:
	ldr	x2, [x19, 8]	// D.8972, argv.__gr_top
	sxtw	x0, w1	// D.8973, D.8956
	add	x0, x2, x0	// iftmp.231, D.8972, D.8973
.L452:
	ldr	w0, [x0]	// tmp289, *iftmp.230_104
	str	w0, [sp, 80]	// tmp289, j
// varargs-dll.c:221:   int k = va_arg (argv, int);
	ldr	w1, [x19, 24]	// D.8974, argv.__gr_offs
	ldr	x0, [x19]	// iftmp.233, argv.__stack
	cmp	w1, 0	// D.8974,
	blt	.L455		//,
	add	x1, x0, 11	// D.8979, iftmp.233,
	and	x1, x1, -8	// D.8980, D.8979,
	str	x1, [x19]	// D.8980, argv.__stack
	b	.L456		//
.L455:
	add	w2, w1, 8	// D.8982, D.8974,
	str	w2, [x19, 24]	// D.8982, argv.__gr_offs
	ldr	w2, [x19, 24]	// D.8984, argv.__gr_offs
	cmp	w2, 0	// D.8984,
	ble	.L457		//,
	add	x1, x0, 11	// D.8987, iftmp.233,
	and	x1, x1, -8	// D.8988, D.8987,
	str	x1, [x19]	// D.8988, argv.__stack
	b	.L456		//
.L457:
	ldr	x2, [x19, 8]	// D.8990, argv.__gr_top
	sxtw	x0, w1	// D.8991, D.8974
	add	x0, x2, x0	// iftmp.233, D.8990, D.8991
.L456:
	ldr	w0, [x0]	// tmp290, *iftmp.232_106
	str	w0, [sp, 84]	// tmp290, k
// varargs-dll.c:222:   int l = va_arg (argv, int);
	ldr	w1, [x19, 24]	// D.8992, argv.__gr_offs
	ldr	x0, [x19]	// iftmp.235, argv.__stack
	cmp	w1, 0	// D.8992,
	blt	.L459		//,
	add	x1, x0, 11	// D.8997, iftmp.235,
	and	x1, x1, -8	// D.8998, D.8997,
	str	x1, [x19]	// D.8998, argv.__stack
	b	.L460		//
.L459:
	add	w2, w1, 8	// D.9000, D.8992,
	str	w2, [x19, 24]	// D.9000, argv.__gr_offs
	ldr	w2, [x19, 24]	// D.9002, argv.__gr_offs
	cmp	w2, 0	// D.9002,
	ble	.L461		//,
	add	x1, x0, 11	// D.9005, iftmp.235,
	and	x1, x1, -8	// D.9006, D.9005,
	str	x1, [x19]	// D.9006, argv.__stack
	b	.L460		//
.L461:
	ldr	x2, [x19, 8]	// D.9008, argv.__gr_top
	sxtw	x0, w1	// D.9009, D.8992
	add	x0, x2, x0	// iftmp.235, D.9008, D.9009
.L460:
	ldr	w0, [x0]	// tmp291, *iftmp.234_108
	str	w0, [sp, 88]	// tmp291, l
// varargs-dll.c:223:   int m = va_arg (argv, int);
	ldr	w1, [x19, 24]	// D.9010, argv.__gr_offs
	ldr	x0, [x19]	// iftmp.237, argv.__stack
	cmp	w1, 0	// D.9010,
	blt	.L463		//,
	add	x1, x0, 11	// D.9015, iftmp.237,
	and	x1, x1, -8	// D.9016, D.9015,
	str	x1, [x19]	// D.9016, argv.__stack
	b	.L464		//
.L463:
	add	w2, w1, 8	// D.9018, D.9010,
	str	w2, [x19, 24]	// D.9018, argv.__gr_offs
	ldr	w2, [x19, 24]	// D.9020, argv.__gr_offs
	cmp	w2, 0	// D.9020,
	ble	.L465		//,
	add	x1, x0, 11	// D.9023, iftmp.237,
	and	x1, x1, -8	// D.9024, D.9023,
	str	x1, [x19]	// D.9024, argv.__stack
	b	.L464		//
.L465:
	ldr	x2, [x19, 8]	// D.9026, argv.__gr_top
	sxtw	x0, w1	// D.9027, D.9010
	add	x0, x2, x0	// iftmp.237, D.9026, D.9027
.L464:
	ldr	w0, [x0]	// tmp292, *iftmp.236_110
	str	w0, [sp, 92]	// tmp292, m
// varargs-dll.c:224:   int n = va_arg (argv, int);
	ldr	w1, [x19, 24]	// D.9028, argv.__gr_offs
	ldr	x0, [x19]	// iftmp.239, argv.__stack
	cmp	w1, 0	// D.9028,
	blt	.L467		//,
	add	x1, x0, 11	// D.9033, iftmp.239,
	and	x1, x1, -8	// D.9034, D.9033,
	str	x1, [x19]	// D.9034, argv.__stack
	b	.L468		//
.L467:
	add	w2, w1, 8	// D.9036, D.9028,
	str	w2, [x19, 24]	// D.9036, argv.__gr_offs
	ldr	w2, [x19, 24]	// D.9038, argv.__gr_offs
	cmp	w2, 0	// D.9038,
	ble	.L469		//,
	add	x1, x0, 11	// D.9041, iftmp.239,
	and	x1, x1, -8	// D.9042, D.9041,
	str	x1, [x19]	// D.9042, argv.__stack
	b	.L468		//
.L469:
	ldr	x2, [x19, 8]	// D.9044, argv.__gr_top
	sxtw	x0, w1	// D.9045, D.9028
	add	x0, x2, x0	// iftmp.239, D.9044, D.9045
.L468:
	ldr	w0, [x0]	// tmp293, *iftmp.238_112
	str	w0, [sp, 96]	// tmp293, n
// varargs-dll.c:225:   int o = va_arg (argv, int);
	ldr	w1, [x19, 24]	// D.9046, argv.__gr_offs
	ldr	x0, [x19]	// iftmp.241, argv.__stack
	cmp	w1, 0	// D.9046,
	blt	.L471		//,
	add	x1, x0, 11	// D.9051, iftmp.241,
	and	x1, x1, -8	// D.9052, D.9051,
	str	x1, [x19]	// D.9052, argv.__stack
	b	.L472		//
.L471:
	add	w2, w1, 8	// D.9054, D.9046,
	str	w2, [x19, 24]	// D.9054, argv.__gr_offs
	ldr	w2, [x19, 24]	// D.9056, argv.__gr_offs
	cmp	w2, 0	// D.9056,
	ble	.L473		//,
	add	x1, x0, 11	// D.9059, iftmp.241,
	and	x1, x1, -8	// D.9060, D.9059,
	str	x1, [x19]	// D.9060, argv.__stack
	b	.L472		//
.L473:
	ldr	x2, [x19, 8]	// D.9062, argv.__gr_top
	sxtw	x0, w1	// D.9063, D.9046
	add	x0, x2, x0	// iftmp.241, D.9062, D.9063
.L472:
	ldr	w0, [x0]	// tmp294, *iftmp.240_114
	str	w0, [sp, 100]	// tmp294, o
// varargs-dll.c:226:   int p = va_arg (argv, int);
	ldr	w1, [x19, 24]	// D.9064, argv.__gr_offs
	ldr	x0, [x19]	// iftmp.243, argv.__stack
	cmp	w1, 0	// D.9064,
	blt	.L475		//,
	add	x1, x0, 11	// D.9069, iftmp.243,
	and	x1, x1, -8	// D.9070, D.9069,
	str	x1, [x19]	// D.9070, argv.__stack
	b	.L476		//
.L475:
	add	w2, w1, 8	// D.9072, D.9064,
	str	w2, [x19, 24]	// D.9072, argv.__gr_offs
	ldr	w2, [x19, 24]	// D.9074, argv.__gr_offs
	cmp	w2, 0	// D.9074,
	ble	.L477		//,
	add	x1, x0, 11	// D.9077, iftmp.243,
	and	x1, x1, -8	// D.9078, D.9077,
	str	x1, [x19]	// D.9078, argv.__stack
	b	.L476		//
.L477:
	ldr	x2, [x19, 8]	// D.9080, argv.__gr_top
	sxtw	x0, w1	// D.9081, D.9064
	add	x0, x2, x0	// iftmp.243, D.9080, D.9081
.L476:
	ldr	w0, [x0]	// tmp295, *iftmp.242_116
	str	w0, [sp, 104]	// tmp295, p
// varargs-dll.c:227:   int q = va_arg (argv, int);
	ldr	w1, [x19, 24]	// D.9082, argv.__gr_offs
	ldr	x0, [x19]	// iftmp.245, argv.__stack
	cmp	w1, 0	// D.9082,
	blt	.L479		//,
	add	x1, x0, 11	// D.9087, iftmp.245,
	and	x1, x1, -8	// D.9088, D.9087,
	str	x1, [x19]	// D.9088, argv.__stack
	b	.L480		//
.L479:
	add	w2, w1, 8	// D.9090, D.9082,
	str	w2, [x19, 24]	// D.9090, argv.__gr_offs
	ldr	w2, [x19, 24]	// D.9092, argv.__gr_offs
	cmp	w2, 0	// D.9092,
	ble	.L481		//,
	add	x1, x0, 11	// D.9095, iftmp.245,
	and	x1, x1, -8	// D.9096, D.9095,
	str	x1, [x19]	// D.9096, argv.__stack
	b	.L480		//
.L481:
	ldr	x2, [x19, 8]	// D.9098, argv.__gr_top
	sxtw	x0, w1	// D.9099, D.9082
	add	x0, x2, x0	// iftmp.245, D.9098, D.9099
.L480:
	ldr	w0, [x0]	// tmp296, *iftmp.244_118
	str	w0, [sp, 108]	// tmp296, q
// varargs-dll.c:228:   return a + b + c + d + e + f + g + h + i + j + k + l + m + n + o + p + q;
	ldr	w1, [sp, 44]	// tmp297, a
	ldr	w0, [sp, 48]	// tmp298, b
	add	w1, w1, w0	// _1, tmp297, tmp298
// varargs-dll.c:228:   return a + b + c + d + e + f + g + h + i + j + k + l + m + n + o + p + q;
	ldr	w0, [sp, 52]	// tmp299, c
	add	w1, w1, w0	// _2, _1, tmp299
// varargs-dll.c:228:   return a + b + c + d + e + f + g + h + i + j + k + l + m + n + o + p + q;
	ldr	w0, [sp, 56]	// tmp300, d
	add	w1, w1, w0	// _3, _2, tmp300
// varargs-dll.c:228:   return a + b + c + d + e + f + g + h + i + j + k + l + m + n + o + p + q;
	ldr	w0, [sp, 60]	// tmp301, e
	add	w1, w1, w0	// _4, _3, tmp301
// varargs-dll.c:228:   return a + b + c + d + e + f + g + h + i + j + k + l + m + n + o + p + q;
	ldr	w0, [sp, 64]	// tmp302, f
	add	w1, w1, w0	// _5, _4, tmp302
// varargs-dll.c:228:   return a + b + c + d + e + f + g + h + i + j + k + l + m + n + o + p + q;
	ldr	w0, [sp, 68]	// tmp303, g
	add	w1, w1, w0	// _6, _5, tmp303
// varargs-dll.c:228:   return a + b + c + d + e + f + g + h + i + j + k + l + m + n + o + p + q;
	ldr	w0, [sp, 72]	// tmp304, h
	add	w1, w1, w0	// _7, _6, tmp304
// varargs-dll.c:228:   return a + b + c + d + e + f + g + h + i + j + k + l + m + n + o + p + q;
	ldr	w0, [sp, 76]	// tmp305, i
	add	w1, w1, w0	// _8, _7, tmp305
// varargs-dll.c:228:   return a + b + c + d + e + f + g + h + i + j + k + l + m + n + o + p + q;
	ldr	w0, [sp, 80]	// tmp306, j
	add	w1, w1, w0	// _9, _8, tmp306
// varargs-dll.c:228:   return a + b + c + d + e + f + g + h + i + j + k + l + m + n + o + p + q;
	ldr	w0, [sp, 84]	// tmp307, k
	add	w1, w1, w0	// _10, _9, tmp307
// varargs-dll.c:228:   return a + b + c + d + e + f + g + h + i + j + k + l + m + n + o + p + q;
	ldr	w0, [sp, 88]	// tmp308, l
	add	w1, w1, w0	// _11, _10, tmp308
// varargs-dll.c:228:   return a + b + c + d + e + f + g + h + i + j + k + l + m + n + o + p + q;
	ldr	w0, [sp, 92]	// tmp309, m
	add	w1, w1, w0	// _12, _11, tmp309
// varargs-dll.c:228:   return a + b + c + d + e + f + g + h + i + j + k + l + m + n + o + p + q;
	ldr	w0, [sp, 96]	// tmp310, n
	add	w1, w1, w0	// _13, _12, tmp310
// varargs-dll.c:228:   return a + b + c + d + e + f + g + h + i + j + k + l + m + n + o + p + q;
	ldr	w0, [sp, 100]	// tmp311, o
	add	w1, w1, w0	// _14, _13, tmp311
// varargs-dll.c:228:   return a + b + c + d + e + f + g + h + i + j + k + l + m + n + o + p + q;
	ldr	w0, [sp, 104]	// tmp312, p
	add	w1, w1, w0	// _15, _14, tmp312
// varargs-dll.c:228:   return a + b + c + d + e + f + g + h + i + j + k + l + m + n + o + p + q;
	ldr	w0, [sp, 108]	// tmp313, q
	add	w0, w1, w0	// _51, _15, tmp313
// varargs-dll.c:229: }
	ldr	x19, [sp], 112	//,
	.cfi_restore 19
	.cfi_def_cfa_offset 0
	ret	
	.cfi_endproc
.LFE19:
	.size	use_va_list_many_ints, .-use_va_list_many_ints
	.align	2
	.global	use_va_args_few_doubles
	.type	use_va_args_few_doubles, %function
use_va_args_few_doubles:
.LFB20:
	.cfi_startproc
	stp	x29, x30, [sp, -288]!	//,,,
	.cfi_def_cfa_offset 288
	.cfi_offset 29, -288
	.cfi_offset 30, -280
	mov	x29, sp	//,
	str	x0, [sp, 24]	// name, name
	str	x1, [sp, 232]	//,
	str	x2, [sp, 240]	//,
	str	x3, [sp, 248]	//,
	str	x4, [sp, 256]	//,
	str	x5, [sp, 264]	//,
	str	x6, [sp, 272]	//,
	str	x7, [sp, 280]	//,
	str	q0, [sp, 96]	//,
	str	q1, [sp, 112]	//,
	str	q2, [sp, 128]	//,
	str	q3, [sp, 144]	//,
	str	q4, [sp, 160]	//,
	str	q5, [sp, 176]	//,
	str	q6, [sp, 192]	//,
	str	q7, [sp, 208]	//,
// varargs-dll.c:233: {
	adrp	x0, :got:__stack_chk_guard	// tmp116,
	ldr	x0, [x0, #:got_lo12:__stack_chk_guard]	// tmp115, tmp116,
	ldr	x1, [x0]	// tmp128,
	str	x1, [sp, 88]	// tmp128, D.9136
	mov	x1, 0	// tmp128
// varargs-dll.c:235:   va_start (argv, name);
	add	x0, sp, 288	// tmp133,,
	str	x0, [sp, 56]	// tmp133, MEM[(struct  *)&argv].__stack
	add	x0, sp, 288	// tmp134,,
	str	x0, [sp, 64]	// tmp134, MEM[(struct  *)&argv].__gr_top
	add	x0, sp, 224	// tmp118,,
	str	x0, [sp, 72]	// tmp118, MEM[(struct  *)&argv].__vr_top
	mov	w0, -56	// tmp119,
	str	w0, [sp, 80]	// tmp119, MEM[(struct  *)&argv].__gr_offs
	mov	w0, -128	// tmp120,
	str	w0, [sp, 84]	// tmp120, MEM[(struct  *)&argv].__vr_offs
// varargs-dll.c:236:   double a = va_arg (argv, double);
	ldr	w1, [sp, 84]	// D.9100, argv.__vr_offs
	ldr	x0, [sp, 56]	// iftmp.247, argv.__stack
	cmp	w1, 0	// D.9100,
	blt	.L485		//,
	add	x1, x0, 15	// D.9105, iftmp.247,
	and	x1, x1, -8	// D.9106, D.9105,
	str	x1, [sp, 56]	// D.9106, argv.__stack
	b	.L486		//
.L485:
	add	w2, w1, 16	// D.9108, D.9100,
	str	w2, [sp, 84]	// D.9108, argv.__vr_offs
	ldr	w2, [sp, 84]	// D.9110, argv.__vr_offs
	cmp	w2, 0	// D.9110,
	ble	.L487		//,
	add	x1, x0, 15	// D.9113, iftmp.247,
	and	x1, x1, -8	// D.9114, D.9113,
	str	x1, [sp, 56]	// D.9114, argv.__stack
	b	.L486		//
.L487:
	ldr	x2, [sp, 72]	// D.9116, argv.__vr_top
	sxtw	x0, w1	// D.9117, D.9100
	add	x0, x2, x0	// iftmp.247, D.9116, D.9117
.L486:
	ldr	d0, [x0]	// tmp121, *iftmp.246_15
	str	d0, [sp, 40]	// tmp121, a
// varargs-dll.c:237:   double b = va_arg (argv, double);
	ldr	w1, [sp, 84]	// D.9118, argv.__vr_offs
	ldr	x0, [sp, 56]	// iftmp.249, argv.__stack
	cmp	w1, 0	// D.9118,
	blt	.L489		//,
	add	x1, x0, 15	// D.9123, iftmp.249,
	and	x1, x1, -8	// D.9124, D.9123,
	str	x1, [sp, 56]	// D.9124, argv.__stack
	b	.L490		//
.L489:
	add	w2, w1, 16	// D.9126, D.9118,
	str	w2, [sp, 84]	// D.9126, argv.__vr_offs
	ldr	w2, [sp, 84]	// D.9128, argv.__vr_offs
	cmp	w2, 0	// D.9128,
	ble	.L491		//,
	add	x1, x0, 15	// D.9131, iftmp.249,
	and	x1, x1, -8	// D.9132, D.9131,
	str	x1, [sp, 56]	// D.9132, argv.__stack
	b	.L490		//
.L491:
	ldr	x2, [sp, 72]	// D.9134, argv.__vr_top
	sxtw	x0, w1	// D.9135, D.9118
	add	x0, x2, x0	// iftmp.249, D.9134, D.9135
.L490:
	ldr	d0, [x0]	// tmp122, *iftmp.248_17
	str	d0, [sp, 48]	// tmp122, b
// varargs-dll.c:239:   return a + b;
	ldr	d1, [sp, 40]	// tmp123, a
	ldr	d0, [sp, 48]	// tmp124, b
	fadd	d0, d1, d0	// _1, tmp123, tmp124
	fcvtzs	w0, d0	// _9, _1
	mov	w1, w0	// <retval>, _9
// varargs-dll.c:240: }
	adrp	x0, :got:__stack_chk_guard	// tmp127,
	ldr	x0, [x0, #:got_lo12:__stack_chk_guard]	// tmp126, tmp127,
	ldr	x3, [sp, 88]	// tmp129, D.9136
	ldr	x2, [x0]	// tmp130,
	subs	x3, x3, x2	// tmp129, tmp130
	mov	x2, 0	// tmp130
	beq	.L494		//,
	bl	__stack_chk_fail		//
.L494:
	mov	w0, w1	//, <retval>
	ldp	x29, x30, [sp], 288	//,,,
	.cfi_restore 30
	.cfi_restore 29
	.cfi_def_cfa_offset 0
	ret	
	.cfi_endproc
.LFE20:
	.size	use_va_args_few_doubles, .-use_va_args_few_doubles
	.align	2
	.global	use_va_list_few_doubles
	.type	use_va_list_few_doubles, %function
use_va_list_few_doubles:
.LFB21:
	.cfi_startproc
	str	x19, [sp, -48]!	//,
	.cfi_def_cfa_offset 48
	.cfi_offset 19, -48
	str	x0, [sp, 24]	// name, name
	mov	x19, x1	// tmp115,
// varargs-dll.c:245:   double a = va_arg (argv, double);
	ldr	w1, [x19, 28]	// D.9140, argv.__vr_offs
	ldr	x0, [x19]	// iftmp.251, argv.__stack
	cmp	w1, 0	// D.9140,
	blt	.L496		//,
	add	x1, x0, 15	// D.9145, iftmp.251,
	and	x1, x1, -8	// D.9146, D.9145,
	str	x1, [x19]	// D.9146, argv.__stack
	b	.L497		//
.L496:
	add	w2, w1, 16	// D.9148, D.9140,
	str	w2, [x19, 28]	// D.9148, argv.__vr_offs
	ldr	w2, [x19, 28]	// D.9150, argv.__vr_offs
	cmp	w2, 0	// D.9150,
	ble	.L498		//,
	add	x1, x0, 15	// D.9153, iftmp.251,
	and	x1, x1, -8	// D.9154, D.9153,
	str	x1, [x19]	// D.9154, argv.__stack
	b	.L497		//
.L498:
	ldr	x2, [x19, 16]	// D.9156, argv.__vr_top
	sxtw	x0, w1	// D.9157, D.9140
	add	x0, x2, x0	// iftmp.251, D.9156, D.9157
.L497:
	ldr	d0, [x0]	// tmp116, *iftmp.250_12
	str	d0, [sp, 32]	// tmp116, a
// varargs-dll.c:246:   double b = va_arg (argv, double);
	ldr	w1, [x19, 28]	// D.9158, argv.__vr_offs
	ldr	x0, [x19]	// iftmp.253, argv.__stack
	cmp	w1, 0	// D.9158,
	blt	.L500		//,
	add	x1, x0, 15	// D.9163, iftmp.253,
	and	x1, x1, -8	// D.9164, D.9163,
	str	x1, [x19]	// D.9164, argv.__stack
	b	.L501		//
.L500:
	add	w2, w1, 16	// D.9166, D.9158,
	str	w2, [x19, 28]	// D.9166, argv.__vr_offs
	ldr	w2, [x19, 28]	// D.9168, argv.__vr_offs
	cmp	w2, 0	// D.9168,
	ble	.L502		//,
	add	x1, x0, 15	// D.9171, iftmp.253,
	and	x1, x1, -8	// D.9172, D.9171,
	str	x1, [x19]	// D.9172, argv.__stack
	b	.L501		//
.L502:
	ldr	x2, [x19, 16]	// D.9174, argv.__vr_top
	sxtw	x0, w1	// D.9175, D.9158
	add	x0, x2, x0	// iftmp.253, D.9174, D.9175
.L501:
	ldr	d0, [x0]	// tmp117, *iftmp.252_14
	str	d0, [sp, 40]	// tmp117, b
// varargs-dll.c:247:   return a + b;
	ldr	d1, [sp, 32]	// tmp118, a
	ldr	d0, [sp, 40]	// tmp119, b
	fadd	d0, d1, d0	// _1, tmp118, tmp119
	fcvtzs	w0, d0	// _7, _1
// varargs-dll.c:248: }
	ldr	x19, [sp], 48	//,
	.cfi_restore 19
	.cfi_def_cfa_offset 0
	ret	
	.cfi_endproc
.LFE21:
	.size	use_va_list_few_doubles, .-use_va_list_few_doubles
	.align	2
	.global	use_va_args_several_doubles
	.type	use_va_args_several_doubles, %function
use_va_args_several_doubles:
.LFB22:
	.cfi_startproc
	stp	x29, x30, [sp, -336]!	//,,,
	.cfi_def_cfa_offset 336
	.cfi_offset 29, -336
	.cfi_offset 30, -328
	mov	x29, sp	//,
	str	x0, [sp, 24]	// name, name
	str	x1, [sp, 280]	//,
	str	x2, [sp, 288]	//,
	str	x3, [sp, 296]	//,
	str	x4, [sp, 304]	//,
	str	x5, [sp, 312]	//,
	str	x6, [sp, 320]	//,
	str	x7, [sp, 328]	//,
	str	q0, [sp, 144]	//,
	str	q1, [sp, 160]	//,
	str	q2, [sp, 176]	//,
	str	q3, [sp, 192]	//,
	str	q4, [sp, 208]	//,
	str	q5, [sp, 224]	//,
	str	q6, [sp, 240]	//,
	str	q7, [sp, 256]	//,
// varargs-dll.c:252: {
	adrp	x0, :got:__stack_chk_guard	// tmp193,
	ldr	x0, [x0, #:got_lo12:__stack_chk_guard]	// tmp192, tmp193,
	ldr	x1, [x0]	// tmp219,
	str	x1, [sp, 136]	// tmp219, D.9338
	mov	x1, 0	// tmp219
// varargs-dll.c:254:   va_start (argv, name);
	add	x0, sp, 336	// tmp224,,
	str	x0, [sp, 104]	// tmp224, MEM[(struct  *)&argv].__stack
	add	x0, sp, 336	// tmp225,,
	str	x0, [sp, 112]	// tmp225, MEM[(struct  *)&argv].__gr_top
	add	x0, sp, 272	// tmp195,,
	str	x0, [sp, 120]	// tmp195, MEM[(struct  *)&argv].__vr_top
	mov	w0, -56	// tmp196,
	str	w0, [sp, 128]	// tmp196, MEM[(struct  *)&argv].__gr_offs
	mov	w0, -128	// tmp197,
	str	w0, [sp, 132]	// tmp197, MEM[(struct  *)&argv].__vr_offs
// varargs-dll.c:255:   double a = va_arg (argv, double);
	ldr	w1, [sp, 132]	// D.9176, argv.__vr_offs
	ldr	x0, [sp, 104]	// iftmp.255, argv.__stack
	cmp	w1, 0	// D.9176,
	blt	.L506		//,
	add	x1, x0, 15	// D.9181, iftmp.255,
	and	x1, x1, -8	// D.9182, D.9181,
	str	x1, [sp, 104]	// D.9182, argv.__stack
	b	.L507		//
.L506:
	add	w2, w1, 16	// D.9184, D.9176,
	str	w2, [sp, 132]	// D.9184, argv.__vr_offs
	ldr	w2, [sp, 132]	// D.9186, argv.__vr_offs
	cmp	w2, 0	// D.9186,
	ble	.L508		//,
	add	x1, x0, 15	// D.9189, iftmp.255,
	and	x1, x1, -8	// D.9190, D.9189,
	str	x1, [sp, 104]	// D.9190, argv.__stack
	b	.L507		//
.L508:
	ldr	x2, [sp, 120]	// D.9192, argv.__vr_top
	sxtw	x0, w1	// D.9193, D.9176
	add	x0, x2, x0	// iftmp.255, D.9192, D.9193
.L507:
	ldr	d0, [x0]	// tmp198, *iftmp.254_50
	str	d0, [sp, 32]	// tmp198, a
// varargs-dll.c:256:   double b = va_arg (argv, double);
	ldr	w1, [sp, 132]	// D.9194, argv.__vr_offs
	ldr	x0, [sp, 104]	// iftmp.257, argv.__stack
	cmp	w1, 0	// D.9194,
	blt	.L510		//,
	add	x1, x0, 15	// D.9199, iftmp.257,
	and	x1, x1, -8	// D.9200, D.9199,
	str	x1, [sp, 104]	// D.9200, argv.__stack
	b	.L511		//
.L510:
	add	w2, w1, 16	// D.9202, D.9194,
	str	w2, [sp, 132]	// D.9202, argv.__vr_offs
	ldr	w2, [sp, 132]	// D.9204, argv.__vr_offs
	cmp	w2, 0	// D.9204,
	ble	.L512		//,
	add	x1, x0, 15	// D.9207, iftmp.257,
	and	x1, x1, -8	// D.9208, D.9207,
	str	x1, [sp, 104]	// D.9208, argv.__stack
	b	.L511		//
.L512:
	ldr	x2, [sp, 120]	// D.9210, argv.__vr_top
	sxtw	x0, w1	// D.9211, D.9194
	add	x0, x2, x0	// iftmp.257, D.9210, D.9211
.L511:
	ldr	d0, [x0]	// tmp199, *iftmp.256_52
	str	d0, [sp, 40]	// tmp199, b
// varargs-dll.c:257:   double c = va_arg (argv, double);
	ldr	w1, [sp, 132]	// D.9212, argv.__vr_offs
	ldr	x0, [sp, 104]	// iftmp.259, argv.__stack
	cmp	w1, 0	// D.9212,
	blt	.L514		//,
	add	x1, x0, 15	// D.9217, iftmp.259,
	and	x1, x1, -8	// D.9218, D.9217,
	str	x1, [sp, 104]	// D.9218, argv.__stack
	b	.L515		//
.L514:
	add	w2, w1, 16	// D.9220, D.9212,
	str	w2, [sp, 132]	// D.9220, argv.__vr_offs
	ldr	w2, [sp, 132]	// D.9222, argv.__vr_offs
	cmp	w2, 0	// D.9222,
	ble	.L516		//,
	add	x1, x0, 15	// D.9225, iftmp.259,
	and	x1, x1, -8	// D.9226, D.9225,
	str	x1, [sp, 104]	// D.9226, argv.__stack
	b	.L515		//
.L516:
	ldr	x2, [sp, 120]	// D.9228, argv.__vr_top
	sxtw	x0, w1	// D.9229, D.9212
	add	x0, x2, x0	// iftmp.259, D.9228, D.9229
.L515:
	ldr	d0, [x0]	// tmp200, *iftmp.258_54
	str	d0, [sp, 48]	// tmp200, c
// varargs-dll.c:258:   double d = va_arg (argv, double);
	ldr	w1, [sp, 132]	// D.9230, argv.__vr_offs
	ldr	x0, [sp, 104]	// iftmp.261, argv.__stack
	cmp	w1, 0	// D.9230,
	blt	.L518		//,
	add	x1, x0, 15	// D.9235, iftmp.261,
	and	x1, x1, -8	// D.9236, D.9235,
	str	x1, [sp, 104]	// D.9236, argv.__stack
	b	.L519		//
.L518:
	add	w2, w1, 16	// D.9238, D.9230,
	str	w2, [sp, 132]	// D.9238, argv.__vr_offs
	ldr	w2, [sp, 132]	// D.9240, argv.__vr_offs
	cmp	w2, 0	// D.9240,
	ble	.L520		//,
	add	x1, x0, 15	// D.9243, iftmp.261,
	and	x1, x1, -8	// D.9244, D.9243,
	str	x1, [sp, 104]	// D.9244, argv.__stack
	b	.L519		//
.L520:
	ldr	x2, [sp, 120]	// D.9246, argv.__vr_top
	sxtw	x0, w1	// D.9247, D.9230
	add	x0, x2, x0	// iftmp.261, D.9246, D.9247
.L519:
	ldr	d0, [x0]	// tmp201, *iftmp.260_56
	str	d0, [sp, 56]	// tmp201, d
// varargs-dll.c:259:   double e = va_arg (argv, double);
	ldr	w1, [sp, 132]	// D.9248, argv.__vr_offs
	ldr	x0, [sp, 104]	// iftmp.263, argv.__stack
	cmp	w1, 0	// D.9248,
	blt	.L522		//,
	add	x1, x0, 15	// D.9253, iftmp.263,
	and	x1, x1, -8	// D.9254, D.9253,
	str	x1, [sp, 104]	// D.9254, argv.__stack
	b	.L523		//
.L522:
	add	w2, w1, 16	// D.9256, D.9248,
	str	w2, [sp, 132]	// D.9256, argv.__vr_offs
	ldr	w2, [sp, 132]	// D.9258, argv.__vr_offs
	cmp	w2, 0	// D.9258,
	ble	.L524		//,
	add	x1, x0, 15	// D.9261, iftmp.263,
	and	x1, x1, -8	// D.9262, D.9261,
	str	x1, [sp, 104]	// D.9262, argv.__stack
	b	.L523		//
.L524:
	ldr	x2, [sp, 120]	// D.9264, argv.__vr_top
	sxtw	x0, w1	// D.9265, D.9248
	add	x0, x2, x0	// iftmp.263, D.9264, D.9265
.L523:
	ldr	d0, [x0]	// tmp202, *iftmp.262_58
	str	d0, [sp, 64]	// tmp202, e
// varargs-dll.c:260:   double f = va_arg (argv, double);
	ldr	w1, [sp, 132]	// D.9266, argv.__vr_offs
	ldr	x0, [sp, 104]	// iftmp.265, argv.__stack
	cmp	w1, 0	// D.9266,
	blt	.L526		//,
	add	x1, x0, 15	// D.9271, iftmp.265,
	and	x1, x1, -8	// D.9272, D.9271,
	str	x1, [sp, 104]	// D.9272, argv.__stack
	b	.L527		//
.L526:
	add	w2, w1, 16	// D.9274, D.9266,
	str	w2, [sp, 132]	// D.9274, argv.__vr_offs
	ldr	w2, [sp, 132]	// D.9276, argv.__vr_offs
	cmp	w2, 0	// D.9276,
	ble	.L528		//,
	add	x1, x0, 15	// D.9279, iftmp.265,
	and	x1, x1, -8	// D.9280, D.9279,
	str	x1, [sp, 104]	// D.9280, argv.__stack
	b	.L527		//
.L528:
	ldr	x2, [sp, 120]	// D.9282, argv.__vr_top
	sxtw	x0, w1	// D.9283, D.9266
	add	x0, x2, x0	// iftmp.265, D.9282, D.9283
.L527:
	ldr	d0, [x0]	// tmp203, *iftmp.264_60
	str	d0, [sp, 72]	// tmp203, f
// varargs-dll.c:261:   double g = va_arg (argv, double);
	ldr	w1, [sp, 132]	// D.9284, argv.__vr_offs
	ldr	x0, [sp, 104]	// iftmp.267, argv.__stack
	cmp	w1, 0	// D.9284,
	blt	.L530		//,
	add	x1, x0, 15	// D.9289, iftmp.267,
	and	x1, x1, -8	// D.9290, D.9289,
	str	x1, [sp, 104]	// D.9290, argv.__stack
	b	.L531		//
.L530:
	add	w2, w1, 16	// D.9292, D.9284,
	str	w2, [sp, 132]	// D.9292, argv.__vr_offs
	ldr	w2, [sp, 132]	// D.9294, argv.__vr_offs
	cmp	w2, 0	// D.9294,
	ble	.L532		//,
	add	x1, x0, 15	// D.9297, iftmp.267,
	and	x1, x1, -8	// D.9298, D.9297,
	str	x1, [sp, 104]	// D.9298, argv.__stack
	b	.L531		//
.L532:
	ldr	x2, [sp, 120]	// D.9300, argv.__vr_top
	sxtw	x0, w1	// D.9301, D.9284
	add	x0, x2, x0	// iftmp.267, D.9300, D.9301
.L531:
	ldr	d0, [x0]	// tmp204, *iftmp.266_62
	str	d0, [sp, 80]	// tmp204, g
// varargs-dll.c:262:   double h = va_arg (argv, double);
	ldr	w1, [sp, 132]	// D.9302, argv.__vr_offs
	ldr	x0, [sp, 104]	// iftmp.269, argv.__stack
	cmp	w1, 0	// D.9302,
	blt	.L534		//,
	add	x1, x0, 15	// D.9307, iftmp.269,
	and	x1, x1, -8	// D.9308, D.9307,
	str	x1, [sp, 104]	// D.9308, argv.__stack
	b	.L535		//
.L534:
	add	w2, w1, 16	// D.9310, D.9302,
	str	w2, [sp, 132]	// D.9310, argv.__vr_offs
	ldr	w2, [sp, 132]	// D.9312, argv.__vr_offs
	cmp	w2, 0	// D.9312,
	ble	.L536		//,
	add	x1, x0, 15	// D.9315, iftmp.269,
	and	x1, x1, -8	// D.9316, D.9315,
	str	x1, [sp, 104]	// D.9316, argv.__stack
	b	.L535		//
.L536:
	ldr	x2, [sp, 120]	// D.9318, argv.__vr_top
	sxtw	x0, w1	// D.9319, D.9302
	add	x0, x2, x0	// iftmp.269, D.9318, D.9319
.L535:
	ldr	d0, [x0]	// tmp205, *iftmp.268_64
	str	d0, [sp, 88]	// tmp205, h
// varargs-dll.c:263:   double i = va_arg (argv, double);
	ldr	w1, [sp, 132]	// D.9320, argv.__vr_offs
	ldr	x0, [sp, 104]	// iftmp.271, argv.__stack
	cmp	w1, 0	// D.9320,
	blt	.L538		//,
	add	x1, x0, 15	// D.9325, iftmp.271,
	and	x1, x1, -8	// D.9326, D.9325,
	str	x1, [sp, 104]	// D.9326, argv.__stack
	b	.L539		//
.L538:
	add	w2, w1, 16	// D.9328, D.9320,
	str	w2, [sp, 132]	// D.9328, argv.__vr_offs
	ldr	w2, [sp, 132]	// D.9330, argv.__vr_offs
	cmp	w2, 0	// D.9330,
	ble	.L540		//,
	add	x1, x0, 15	// D.9333, iftmp.271,
	and	x1, x1, -8	// D.9334, D.9333,
	str	x1, [sp, 104]	// D.9334, argv.__stack
	b	.L539		//
.L540:
	ldr	x2, [sp, 120]	// D.9336, argv.__vr_top
	sxtw	x0, w1	// D.9337, D.9320
	add	x0, x2, x0	// iftmp.271, D.9336, D.9337
.L539:
	ldr	d0, [x0]	// tmp206, *iftmp.270_66
	str	d0, [sp, 96]	// tmp206, i
// varargs-dll.c:265:   return a + b + c + d + e + f + g + h + i;
	ldr	d1, [sp, 32]	// tmp207, a
	ldr	d0, [sp, 40]	// tmp208, b
	fadd	d1, d1, d0	// _1, tmp207, tmp208
// varargs-dll.c:265:   return a + b + c + d + e + f + g + h + i;
	ldr	d0, [sp, 48]	// tmp209, c
	fadd	d1, d1, d0	// _2, _1, tmp209
// varargs-dll.c:265:   return a + b + c + d + e + f + g + h + i;
	ldr	d0, [sp, 56]	// tmp210, d
	fadd	d1, d1, d0	// _3, _2, tmp210
// varargs-dll.c:265:   return a + b + c + d + e + f + g + h + i;
	ldr	d0, [sp, 64]	// tmp211, e
	fadd	d1, d1, d0	// _4, _3, tmp211
// varargs-dll.c:265:   return a + b + c + d + e + f + g + h + i;
	ldr	d0, [sp, 72]	// tmp212, f
	fadd	d1, d1, d0	// _5, _4, tmp212
// varargs-dll.c:265:   return a + b + c + d + e + f + g + h + i;
	ldr	d0, [sp, 80]	// tmp213, g
	fadd	d1, d1, d0	// _6, _5, tmp213
// varargs-dll.c:265:   return a + b + c + d + e + f + g + h + i;
	ldr	d0, [sp, 88]	// tmp214, h
	fadd	d1, d1, d0	// _7, _6, tmp214
// varargs-dll.c:265:   return a + b + c + d + e + f + g + h + i;
	ldr	d0, [sp, 96]	// tmp215, i
	fadd	d0, d1, d0	// _8, _7, tmp215
	fcvtzs	w0, d0	// _30, _8
	mov	w1, w0	// <retval>, _30
// varargs-dll.c:266: }
	adrp	x0, :got:__stack_chk_guard	// tmp218,
	ldr	x0, [x0, #:got_lo12:__stack_chk_guard]	// tmp217, tmp218,
	ldr	x3, [sp, 136]	// tmp220, D.9338
	ldr	x2, [x0]	// tmp221,
	subs	x3, x3, x2	// tmp220, tmp221
	mov	x2, 0	// tmp221
	beq	.L543		//,
	bl	__stack_chk_fail		//
.L543:
	mov	w0, w1	//, <retval>
	ldp	x29, x30, [sp], 336	//,,,
	.cfi_restore 30
	.cfi_restore 29
	.cfi_def_cfa_offset 0
	ret	
	.cfi_endproc
.LFE22:
	.size	use_va_args_several_doubles, .-use_va_args_several_doubles
	.align	2
	.global	use_va_list_several_doubles
	.type	use_va_list_several_doubles, %function
use_va_list_several_doubles:
.LFB23:
	.cfi_startproc
	str	x19, [sp, -112]!	//,
	.cfi_def_cfa_offset 112
	.cfi_offset 19, -112
	str	x0, [sp, 24]	// name, name
	mov	x19, x1	// tmp192,
// varargs-dll.c:271:   double a = va_arg (argv, double);
	ldr	w1, [x19, 28]	// D.9342, argv.__vr_offs
	ldr	x0, [x19]	// iftmp.273, argv.__stack
	cmp	w1, 0	// D.9342,
	blt	.L545		//,
	add	x1, x0, 15	// D.9347, iftmp.273,
	and	x1, x1, -8	// D.9348, D.9347,
	str	x1, [x19]	// D.9348, argv.__stack
	b	.L546		//
.L545:
	add	w2, w1, 16	// D.9350, D.9342,
	str	w2, [x19, 28]	// D.9350, argv.__vr_offs
	ldr	w2, [x19, 28]	// D.9352, argv.__vr_offs
	cmp	w2, 0	// D.9352,
	ble	.L547		//,
	add	x1, x0, 15	// D.9355, iftmp.273,
	and	x1, x1, -8	// D.9356, D.9355,
	str	x1, [x19]	// D.9356, argv.__stack
	b	.L546		//
.L547:
	ldr	x2, [x19, 16]	// D.9358, argv.__vr_top
	sxtw	x0, w1	// D.9359, D.9342
	add	x0, x2, x0	// iftmp.273, D.9358, D.9359
.L546:
	ldr	d0, [x0]	// tmp193, *iftmp.272_47
	str	d0, [sp, 40]	// tmp193, a
// varargs-dll.c:272:   double b = va_arg (argv, double);
	ldr	w1, [x19, 28]	// D.9360, argv.__vr_offs
	ldr	x0, [x19]	// iftmp.275, argv.__stack
	cmp	w1, 0	// D.9360,
	blt	.L549		//,
	add	x1, x0, 15	// D.9365, iftmp.275,
	and	x1, x1, -8	// D.9366, D.9365,
	str	x1, [x19]	// D.9366, argv.__stack
	b	.L550		//
.L549:
	add	w2, w1, 16	// D.9368, D.9360,
	str	w2, [x19, 28]	// D.9368, argv.__vr_offs
	ldr	w2, [x19, 28]	// D.9370, argv.__vr_offs
	cmp	w2, 0	// D.9370,
	ble	.L551		//,
	add	x1, x0, 15	// D.9373, iftmp.275,
	and	x1, x1, -8	// D.9374, D.9373,
	str	x1, [x19]	// D.9374, argv.__stack
	b	.L550		//
.L551:
	ldr	x2, [x19, 16]	// D.9376, argv.__vr_top
	sxtw	x0, w1	// D.9377, D.9360
	add	x0, x2, x0	// iftmp.275, D.9376, D.9377
.L550:
	ldr	d0, [x0]	// tmp194, *iftmp.274_49
	str	d0, [sp, 48]	// tmp194, b
// varargs-dll.c:273:   double c = va_arg (argv, double);
	ldr	w1, [x19, 28]	// D.9378, argv.__vr_offs
	ldr	x0, [x19]	// iftmp.277, argv.__stack
	cmp	w1, 0	// D.9378,
	blt	.L553		//,
	add	x1, x0, 15	// D.9383, iftmp.277,
	and	x1, x1, -8	// D.9384, D.9383,
	str	x1, [x19]	// D.9384, argv.__stack
	b	.L554		//
.L553:
	add	w2, w1, 16	// D.9386, D.9378,
	str	w2, [x19, 28]	// D.9386, argv.__vr_offs
	ldr	w2, [x19, 28]	// D.9388, argv.__vr_offs
	cmp	w2, 0	// D.9388,
	ble	.L555		//,
	add	x1, x0, 15	// D.9391, iftmp.277,
	and	x1, x1, -8	// D.9392, D.9391,
	str	x1, [x19]	// D.9392, argv.__stack
	b	.L554		//
.L555:
	ldr	x2, [x19, 16]	// D.9394, argv.__vr_top
	sxtw	x0, w1	// D.9395, D.9378
	add	x0, x2, x0	// iftmp.277, D.9394, D.9395
.L554:
	ldr	d0, [x0]	// tmp195, *iftmp.276_51
	str	d0, [sp, 56]	// tmp195, c
// varargs-dll.c:274:   double d = va_arg (argv, double);
	ldr	w1, [x19, 28]	// D.9396, argv.__vr_offs
	ldr	x0, [x19]	// iftmp.279, argv.__stack
	cmp	w1, 0	// D.9396,
	blt	.L557		//,
	add	x1, x0, 15	// D.9401, iftmp.279,
	and	x1, x1, -8	// D.9402, D.9401,
	str	x1, [x19]	// D.9402, argv.__stack
	b	.L558		//
.L557:
	add	w2, w1, 16	// D.9404, D.9396,
	str	w2, [x19, 28]	// D.9404, argv.__vr_offs
	ldr	w2, [x19, 28]	// D.9406, argv.__vr_offs
	cmp	w2, 0	// D.9406,
	ble	.L559		//,
	add	x1, x0, 15	// D.9409, iftmp.279,
	and	x1, x1, -8	// D.9410, D.9409,
	str	x1, [x19]	// D.9410, argv.__stack
	b	.L558		//
.L559:
	ldr	x2, [x19, 16]	// D.9412, argv.__vr_top
	sxtw	x0, w1	// D.9413, D.9396
	add	x0, x2, x0	// iftmp.279, D.9412, D.9413
.L558:
	ldr	d0, [x0]	// tmp196, *iftmp.278_53
	str	d0, [sp, 64]	// tmp196, d
// varargs-dll.c:275:   double e = va_arg (argv, double);
	ldr	w1, [x19, 28]	// D.9414, argv.__vr_offs
	ldr	x0, [x19]	// iftmp.281, argv.__stack
	cmp	w1, 0	// D.9414,
	blt	.L561		//,
	add	x1, x0, 15	// D.9419, iftmp.281,
	and	x1, x1, -8	// D.9420, D.9419,
	str	x1, [x19]	// D.9420, argv.__stack
	b	.L562		//
.L561:
	add	w2, w1, 16	// D.9422, D.9414,
	str	w2, [x19, 28]	// D.9422, argv.__vr_offs
	ldr	w2, [x19, 28]	// D.9424, argv.__vr_offs
	cmp	w2, 0	// D.9424,
	ble	.L563		//,
	add	x1, x0, 15	// D.9427, iftmp.281,
	and	x1, x1, -8	// D.9428, D.9427,
	str	x1, [x19]	// D.9428, argv.__stack
	b	.L562		//
.L563:
	ldr	x2, [x19, 16]	// D.9430, argv.__vr_top
	sxtw	x0, w1	// D.9431, D.9414
	add	x0, x2, x0	// iftmp.281, D.9430, D.9431
.L562:
	ldr	d0, [x0]	// tmp197, *iftmp.280_55
	str	d0, [sp, 72]	// tmp197, e
// varargs-dll.c:276:   double f = va_arg (argv, double);
	ldr	w1, [x19, 28]	// D.9432, argv.__vr_offs
	ldr	x0, [x19]	// iftmp.283, argv.__stack
	cmp	w1, 0	// D.9432,
	blt	.L565		//,
	add	x1, x0, 15	// D.9437, iftmp.283,
	and	x1, x1, -8	// D.9438, D.9437,
	str	x1, [x19]	// D.9438, argv.__stack
	b	.L566		//
.L565:
	add	w2, w1, 16	// D.9440, D.9432,
	str	w2, [x19, 28]	// D.9440, argv.__vr_offs
	ldr	w2, [x19, 28]	// D.9442, argv.__vr_offs
	cmp	w2, 0	// D.9442,
	ble	.L567		//,
	add	x1, x0, 15	// D.9445, iftmp.283,
	and	x1, x1, -8	// D.9446, D.9445,
	str	x1, [x19]	// D.9446, argv.__stack
	b	.L566		//
.L567:
	ldr	x2, [x19, 16]	// D.9448, argv.__vr_top
	sxtw	x0, w1	// D.9449, D.9432
	add	x0, x2, x0	// iftmp.283, D.9448, D.9449
.L566:
	ldr	d0, [x0]	// tmp198, *iftmp.282_57
	str	d0, [sp, 80]	// tmp198, f
// varargs-dll.c:277:   double g = va_arg (argv, double);
	ldr	w1, [x19, 28]	// D.9450, argv.__vr_offs
	ldr	x0, [x19]	// iftmp.285, argv.__stack
	cmp	w1, 0	// D.9450,
	blt	.L569		//,
	add	x1, x0, 15	// D.9455, iftmp.285,
	and	x1, x1, -8	// D.9456, D.9455,
	str	x1, [x19]	// D.9456, argv.__stack
	b	.L570		//
.L569:
	add	w2, w1, 16	// D.9458, D.9450,
	str	w2, [x19, 28]	// D.9458, argv.__vr_offs
	ldr	w2, [x19, 28]	// D.9460, argv.__vr_offs
	cmp	w2, 0	// D.9460,
	ble	.L571		//,
	add	x1, x0, 15	// D.9463, iftmp.285,
	and	x1, x1, -8	// D.9464, D.9463,
	str	x1, [x19]	// D.9464, argv.__stack
	b	.L570		//
.L571:
	ldr	x2, [x19, 16]	// D.9466, argv.__vr_top
	sxtw	x0, w1	// D.9467, D.9450
	add	x0, x2, x0	// iftmp.285, D.9466, D.9467
.L570:
	ldr	d0, [x0]	// tmp199, *iftmp.284_59
	str	d0, [sp, 88]	// tmp199, g
// varargs-dll.c:278:   double h = va_arg (argv, double);
	ldr	w1, [x19, 28]	// D.9468, argv.__vr_offs
	ldr	x0, [x19]	// iftmp.287, argv.__stack
	cmp	w1, 0	// D.9468,
	blt	.L573		//,
	add	x1, x0, 15	// D.9473, iftmp.287,
	and	x1, x1, -8	// D.9474, D.9473,
	str	x1, [x19]	// D.9474, argv.__stack
	b	.L574		//
.L573:
	add	w2, w1, 16	// D.9476, D.9468,
	str	w2, [x19, 28]	// D.9476, argv.__vr_offs
	ldr	w2, [x19, 28]	// D.9478, argv.__vr_offs
	cmp	w2, 0	// D.9478,
	ble	.L575		//,
	add	x1, x0, 15	// D.9481, iftmp.287,
	and	x1, x1, -8	// D.9482, D.9481,
	str	x1, [x19]	// D.9482, argv.__stack
	b	.L574		//
.L575:
	ldr	x2, [x19, 16]	// D.9484, argv.__vr_top
	sxtw	x0, w1	// D.9485, D.9468
	add	x0, x2, x0	// iftmp.287, D.9484, D.9485
.L574:
	ldr	d0, [x0]	// tmp200, *iftmp.286_61
	str	d0, [sp, 96]	// tmp200, h
// varargs-dll.c:279:   double i = va_arg (argv, double);
	ldr	w1, [x19, 28]	// D.9486, argv.__vr_offs
	ldr	x0, [x19]	// iftmp.289, argv.__stack
	cmp	w1, 0	// D.9486,
	blt	.L577		//,
	add	x1, x0, 15	// D.9491, iftmp.289,
	and	x1, x1, -8	// D.9492, D.9491,
	str	x1, [x19]	// D.9492, argv.__stack
	b	.L578		//
.L577:
	add	w2, w1, 16	// D.9494, D.9486,
	str	w2, [x19, 28]	// D.9494, argv.__vr_offs
	ldr	w2, [x19, 28]	// D.9496, argv.__vr_offs
	cmp	w2, 0	// D.9496,
	ble	.L579		//,
	add	x1, x0, 15	// D.9499, iftmp.289,
	and	x1, x1, -8	// D.9500, D.9499,
	str	x1, [x19]	// D.9500, argv.__stack
	b	.L578		//
.L579:
	ldr	x2, [x19, 16]	// D.9502, argv.__vr_top
	sxtw	x0, w1	// D.9503, D.9486
	add	x0, x2, x0	// iftmp.289, D.9502, D.9503
.L578:
	ldr	d0, [x0]	// tmp201, *iftmp.288_63
	str	d0, [sp, 104]	// tmp201, i
// varargs-dll.c:280:   return a + b + c + d + e + f + g + h + i;
	ldr	d1, [sp, 40]	// tmp202, a
	ldr	d0, [sp, 48]	// tmp203, b
	fadd	d1, d1, d0	// _1, tmp202, tmp203
// varargs-dll.c:280:   return a + b + c + d + e + f + g + h + i;
	ldr	d0, [sp, 56]	// tmp204, c
	fadd	d1, d1, d0	// _2, _1, tmp204
// varargs-dll.c:280:   return a + b + c + d + e + f + g + h + i;
	ldr	d0, [sp, 64]	// tmp205, d
	fadd	d1, d1, d0	// _3, _2, tmp205
// varargs-dll.c:280:   return a + b + c + d + e + f + g + h + i;
	ldr	d0, [sp, 72]	// tmp206, e
	fadd	d1, d1, d0	// _4, _3, tmp206
// varargs-dll.c:280:   return a + b + c + d + e + f + g + h + i;
	ldr	d0, [sp, 80]	// tmp207, f
	fadd	d1, d1, d0	// _5, _4, tmp207
// varargs-dll.c:280:   return a + b + c + d + e + f + g + h + i;
	ldr	d0, [sp, 88]	// tmp208, g
	fadd	d1, d1, d0	// _6, _5, tmp208
// varargs-dll.c:280:   return a + b + c + d + e + f + g + h + i;
	ldr	d0, [sp, 96]	// tmp209, h
	fadd	d1, d1, d0	// _7, _6, tmp209
// varargs-dll.c:280:   return a + b + c + d + e + f + g + h + i;
	ldr	d0, [sp, 104]	// tmp210, i
	fadd	d0, d1, d0	// _8, _7, tmp210
	fcvtzs	w0, d0	// _28, _8
// varargs-dll.c:281: }
	ldr	x19, [sp], 112	//,
	.cfi_restore 19
	.cfi_def_cfa_offset 0
	ret	
	.cfi_endproc
.LFE23:
	.size	use_va_list_several_doubles, .-use_va_list_several_doubles
	.align	2
	.global	use_va_args_many_doubles
	.type	use_va_args_many_doubles, %function
use_va_args_many_doubles:
.LFB24:
	.cfi_startproc
	stp	x29, x30, [sp, -400]!	//,,,
	.cfi_def_cfa_offset 400
	.cfi_offset 29, -400
	.cfi_offset 30, -392
	mov	x29, sp	//,
	str	x0, [sp, 24]	// name, name
	str	x1, [sp, 344]	//,
	str	x2, [sp, 352]	//,
	str	x3, [sp, 360]	//,
	str	x4, [sp, 368]	//,
	str	x5, [sp, 376]	//,
	str	x6, [sp, 384]	//,
	str	x7, [sp, 392]	//,
	str	q0, [sp, 208]	//,
	str	q1, [sp, 224]	//,
	str	q2, [sp, 240]	//,
	str	q3, [sp, 256]	//,
	str	q4, [sp, 272]	//,
	str	q5, [sp, 288]	//,
	str	q6, [sp, 304]	//,
	str	q7, [sp, 320]	//,
// varargs-dll.c:285: {
	adrp	x0, :got:__stack_chk_guard	// tmp281,
	ldr	x0, [x0, #:got_lo12:__stack_chk_guard]	// tmp280, tmp281,
	ldr	x1, [x0]	// tmp323,
	str	x1, [sp, 200]	// tmp323, D.9810
	mov	x1, 0	// tmp323
// varargs-dll.c:287:   va_start (argv, name);
	add	x0, sp, 400	// tmp328,,
	str	x0, [sp, 168]	// tmp328, MEM[(struct  *)&argv].__stack
	add	x0, sp, 400	// tmp329,,
	str	x0, [sp, 176]	// tmp329, MEM[(struct  *)&argv].__gr_top
	add	x0, sp, 336	// tmp283,,
	str	x0, [sp, 184]	// tmp283, MEM[(struct  *)&argv].__vr_top
	mov	w0, -56	// tmp284,
	str	w0, [sp, 192]	// tmp284, MEM[(struct  *)&argv].__gr_offs
	mov	w0, -128	// tmp285,
	str	w0, [sp, 196]	// tmp285, MEM[(struct  *)&argv].__vr_offs
// varargs-dll.c:288:   double a = va_arg (argv, double);
	ldr	w1, [sp, 196]	// D.9504, argv.__vr_offs
	ldr	x0, [sp, 168]	// iftmp.291, argv.__stack
	cmp	w1, 0	// D.9504,
	blt	.L583		//,
	add	x1, x0, 15	// D.9509, iftmp.291,
	and	x1, x1, -8	// D.9510, D.9509,
	str	x1, [sp, 168]	// D.9510, argv.__stack
	b	.L584		//
.L583:
	add	w2, w1, 16	// D.9512, D.9504,
	str	w2, [sp, 196]	// D.9512, argv.__vr_offs
	ldr	w2, [sp, 196]	// D.9514, argv.__vr_offs
	cmp	w2, 0	// D.9514,
	ble	.L585		//,
	add	x1, x0, 15	// D.9517, iftmp.291,
	and	x1, x1, -8	// D.9518, D.9517,
	str	x1, [sp, 168]	// D.9518, argv.__stack
	b	.L584		//
.L585:
	ldr	x2, [sp, 184]	// D.9520, argv.__vr_top
	sxtw	x0, w1	// D.9521, D.9504
	add	x0, x2, x0	// iftmp.291, D.9520, D.9521
.L584:
	ldr	d0, [x0]	// tmp286, *iftmp.290_90
	str	d0, [sp, 32]	// tmp286, a
// varargs-dll.c:289:   double b = va_arg (argv, double);
	ldr	w1, [sp, 196]	// D.9522, argv.__vr_offs
	ldr	x0, [sp, 168]	// iftmp.293, argv.__stack
	cmp	w1, 0	// D.9522,
	blt	.L587		//,
	add	x1, x0, 15	// D.9527, iftmp.293,
	and	x1, x1, -8	// D.9528, D.9527,
	str	x1, [sp, 168]	// D.9528, argv.__stack
	b	.L588		//
.L587:
	add	w2, w1, 16	// D.9530, D.9522,
	str	w2, [sp, 196]	// D.9530, argv.__vr_offs
	ldr	w2, [sp, 196]	// D.9532, argv.__vr_offs
	cmp	w2, 0	// D.9532,
	ble	.L589		//,
	add	x1, x0, 15	// D.9535, iftmp.293,
	and	x1, x1, -8	// D.9536, D.9535,
	str	x1, [sp, 168]	// D.9536, argv.__stack
	b	.L588		//
.L589:
	ldr	x2, [sp, 184]	// D.9538, argv.__vr_top
	sxtw	x0, w1	// D.9539, D.9522
	add	x0, x2, x0	// iftmp.293, D.9538, D.9539
.L588:
	ldr	d0, [x0]	// tmp287, *iftmp.292_92
	str	d0, [sp, 40]	// tmp287, b
// varargs-dll.c:290:   double c = va_arg (argv, double);
	ldr	w1, [sp, 196]	// D.9540, argv.__vr_offs
	ldr	x0, [sp, 168]	// iftmp.295, argv.__stack
	cmp	w1, 0	// D.9540,
	blt	.L591		//,
	add	x1, x0, 15	// D.9545, iftmp.295,
	and	x1, x1, -8	// D.9546, D.9545,
	str	x1, [sp, 168]	// D.9546, argv.__stack
	b	.L592		//
.L591:
	add	w2, w1, 16	// D.9548, D.9540,
	str	w2, [sp, 196]	// D.9548, argv.__vr_offs
	ldr	w2, [sp, 196]	// D.9550, argv.__vr_offs
	cmp	w2, 0	// D.9550,
	ble	.L593		//,
	add	x1, x0, 15	// D.9553, iftmp.295,
	and	x1, x1, -8	// D.9554, D.9553,
	str	x1, [sp, 168]	// D.9554, argv.__stack
	b	.L592		//
.L593:
	ldr	x2, [sp, 184]	// D.9556, argv.__vr_top
	sxtw	x0, w1	// D.9557, D.9540
	add	x0, x2, x0	// iftmp.295, D.9556, D.9557
.L592:
	ldr	d0, [x0]	// tmp288, *iftmp.294_94
	str	d0, [sp, 48]	// tmp288, c
// varargs-dll.c:291:   double d = va_arg (argv, double);
	ldr	w1, [sp, 196]	// D.9558, argv.__vr_offs
	ldr	x0, [sp, 168]	// iftmp.297, argv.__stack
	cmp	w1, 0	// D.9558,
	blt	.L595		//,
	add	x1, x0, 15	// D.9563, iftmp.297,
	and	x1, x1, -8	// D.9564, D.9563,
	str	x1, [sp, 168]	// D.9564, argv.__stack
	b	.L596		//
.L595:
	add	w2, w1, 16	// D.9566, D.9558,
	str	w2, [sp, 196]	// D.9566, argv.__vr_offs
	ldr	w2, [sp, 196]	// D.9568, argv.__vr_offs
	cmp	w2, 0	// D.9568,
	ble	.L597		//,
	add	x1, x0, 15	// D.9571, iftmp.297,
	and	x1, x1, -8	// D.9572, D.9571,
	str	x1, [sp, 168]	// D.9572, argv.__stack
	b	.L596		//
.L597:
	ldr	x2, [sp, 184]	// D.9574, argv.__vr_top
	sxtw	x0, w1	// D.9575, D.9558
	add	x0, x2, x0	// iftmp.297, D.9574, D.9575
.L596:
	ldr	d0, [x0]	// tmp289, *iftmp.296_96
	str	d0, [sp, 56]	// tmp289, d
// varargs-dll.c:292:   double e = va_arg (argv, double);
	ldr	w1, [sp, 196]	// D.9576, argv.__vr_offs
	ldr	x0, [sp, 168]	// iftmp.299, argv.__stack
	cmp	w1, 0	// D.9576,
	blt	.L599		//,
	add	x1, x0, 15	// D.9581, iftmp.299,
	and	x1, x1, -8	// D.9582, D.9581,
	str	x1, [sp, 168]	// D.9582, argv.__stack
	b	.L600		//
.L599:
	add	w2, w1, 16	// D.9584, D.9576,
	str	w2, [sp, 196]	// D.9584, argv.__vr_offs
	ldr	w2, [sp, 196]	// D.9586, argv.__vr_offs
	cmp	w2, 0	// D.9586,
	ble	.L601		//,
	add	x1, x0, 15	// D.9589, iftmp.299,
	and	x1, x1, -8	// D.9590, D.9589,
	str	x1, [sp, 168]	// D.9590, argv.__stack
	b	.L600		//
.L601:
	ldr	x2, [sp, 184]	// D.9592, argv.__vr_top
	sxtw	x0, w1	// D.9593, D.9576
	add	x0, x2, x0	// iftmp.299, D.9592, D.9593
.L600:
	ldr	d0, [x0]	// tmp290, *iftmp.298_98
	str	d0, [sp, 64]	// tmp290, e
// varargs-dll.c:293:   double f = va_arg (argv, double);
	ldr	w1, [sp, 196]	// D.9594, argv.__vr_offs
	ldr	x0, [sp, 168]	// iftmp.301, argv.__stack
	cmp	w1, 0	// D.9594,
	blt	.L603		//,
	add	x1, x0, 15	// D.9599, iftmp.301,
	and	x1, x1, -8	// D.9600, D.9599,
	str	x1, [sp, 168]	// D.9600, argv.__stack
	b	.L604		//
.L603:
	add	w2, w1, 16	// D.9602, D.9594,
	str	w2, [sp, 196]	// D.9602, argv.__vr_offs
	ldr	w2, [sp, 196]	// D.9604, argv.__vr_offs
	cmp	w2, 0	// D.9604,
	ble	.L605		//,
	add	x1, x0, 15	// D.9607, iftmp.301,
	and	x1, x1, -8	// D.9608, D.9607,
	str	x1, [sp, 168]	// D.9608, argv.__stack
	b	.L604		//
.L605:
	ldr	x2, [sp, 184]	// D.9610, argv.__vr_top
	sxtw	x0, w1	// D.9611, D.9594
	add	x0, x2, x0	// iftmp.301, D.9610, D.9611
.L604:
	ldr	d0, [x0]	// tmp291, *iftmp.300_100
	str	d0, [sp, 72]	// tmp291, f
// varargs-dll.c:294:   double g = va_arg (argv, double);
	ldr	w1, [sp, 196]	// D.9612, argv.__vr_offs
	ldr	x0, [sp, 168]	// iftmp.303, argv.__stack
	cmp	w1, 0	// D.9612,
	blt	.L607		//,
	add	x1, x0, 15	// D.9617, iftmp.303,
	and	x1, x1, -8	// D.9618, D.9617,
	str	x1, [sp, 168]	// D.9618, argv.__stack
	b	.L608		//
.L607:
	add	w2, w1, 16	// D.9620, D.9612,
	str	w2, [sp, 196]	// D.9620, argv.__vr_offs
	ldr	w2, [sp, 196]	// D.9622, argv.__vr_offs
	cmp	w2, 0	// D.9622,
	ble	.L609		//,
	add	x1, x0, 15	// D.9625, iftmp.303,
	and	x1, x1, -8	// D.9626, D.9625,
	str	x1, [sp, 168]	// D.9626, argv.__stack
	b	.L608		//
.L609:
	ldr	x2, [sp, 184]	// D.9628, argv.__vr_top
	sxtw	x0, w1	// D.9629, D.9612
	add	x0, x2, x0	// iftmp.303, D.9628, D.9629
.L608:
	ldr	d0, [x0]	// tmp292, *iftmp.302_102
	str	d0, [sp, 80]	// tmp292, g
// varargs-dll.c:295:   double h = va_arg (argv, double);
	ldr	w1, [sp, 196]	// D.9630, argv.__vr_offs
	ldr	x0, [sp, 168]	// iftmp.305, argv.__stack
	cmp	w1, 0	// D.9630,
	blt	.L611		//,
	add	x1, x0, 15	// D.9635, iftmp.305,
	and	x1, x1, -8	// D.9636, D.9635,
	str	x1, [sp, 168]	// D.9636, argv.__stack
	b	.L612		//
.L611:
	add	w2, w1, 16	// D.9638, D.9630,
	str	w2, [sp, 196]	// D.9638, argv.__vr_offs
	ldr	w2, [sp, 196]	// D.9640, argv.__vr_offs
	cmp	w2, 0	// D.9640,
	ble	.L613		//,
	add	x1, x0, 15	// D.9643, iftmp.305,
	and	x1, x1, -8	// D.9644, D.9643,
	str	x1, [sp, 168]	// D.9644, argv.__stack
	b	.L612		//
.L613:
	ldr	x2, [sp, 184]	// D.9646, argv.__vr_top
	sxtw	x0, w1	// D.9647, D.9630
	add	x0, x2, x0	// iftmp.305, D.9646, D.9647
.L612:
	ldr	d0, [x0]	// tmp293, *iftmp.304_104
	str	d0, [sp, 88]	// tmp293, h
// varargs-dll.c:296:   double i = va_arg (argv, double);
	ldr	w1, [sp, 196]	// D.9648, argv.__vr_offs
	ldr	x0, [sp, 168]	// iftmp.307, argv.__stack
	cmp	w1, 0	// D.9648,
	blt	.L615		//,
	add	x1, x0, 15	// D.9653, iftmp.307,
	and	x1, x1, -8	// D.9654, D.9653,
	str	x1, [sp, 168]	// D.9654, argv.__stack
	b	.L616		//
.L615:
	add	w2, w1, 16	// D.9656, D.9648,
	str	w2, [sp, 196]	// D.9656, argv.__vr_offs
	ldr	w2, [sp, 196]	// D.9658, argv.__vr_offs
	cmp	w2, 0	// D.9658,
	ble	.L617		//,
	add	x1, x0, 15	// D.9661, iftmp.307,
	and	x1, x1, -8	// D.9662, D.9661,
	str	x1, [sp, 168]	// D.9662, argv.__stack
	b	.L616		//
.L617:
	ldr	x2, [sp, 184]	// D.9664, argv.__vr_top
	sxtw	x0, w1	// D.9665, D.9648
	add	x0, x2, x0	// iftmp.307, D.9664, D.9665
.L616:
	ldr	d0, [x0]	// tmp294, *iftmp.306_106
	str	d0, [sp, 96]	// tmp294, i
// varargs-dll.c:297:   double j = va_arg (argv, double);
	ldr	w1, [sp, 196]	// D.9666, argv.__vr_offs
	ldr	x0, [sp, 168]	// iftmp.309, argv.__stack
	cmp	w1, 0	// D.9666,
	blt	.L619		//,
	add	x1, x0, 15	// D.9671, iftmp.309,
	and	x1, x1, -8	// D.9672, D.9671,
	str	x1, [sp, 168]	// D.9672, argv.__stack
	b	.L620		//
.L619:
	add	w2, w1, 16	// D.9674, D.9666,
	str	w2, [sp, 196]	// D.9674, argv.__vr_offs
	ldr	w2, [sp, 196]	// D.9676, argv.__vr_offs
	cmp	w2, 0	// D.9676,
	ble	.L621		//,
	add	x1, x0, 15	// D.9679, iftmp.309,
	and	x1, x1, -8	// D.9680, D.9679,
	str	x1, [sp, 168]	// D.9680, argv.__stack
	b	.L620		//
.L621:
	ldr	x2, [sp, 184]	// D.9682, argv.__vr_top
	sxtw	x0, w1	// D.9683, D.9666
	add	x0, x2, x0	// iftmp.309, D.9682, D.9683
.L620:
	ldr	d0, [x0]	// tmp295, *iftmp.308_108
	str	d0, [sp, 104]	// tmp295, j
// varargs-dll.c:298:   double k = va_arg (argv, double);
	ldr	w1, [sp, 196]	// D.9684, argv.__vr_offs
	ldr	x0, [sp, 168]	// iftmp.311, argv.__stack
	cmp	w1, 0	// D.9684,
	blt	.L623		//,
	add	x1, x0, 15	// D.9689, iftmp.311,
	and	x1, x1, -8	// D.9690, D.9689,
	str	x1, [sp, 168]	// D.9690, argv.__stack
	b	.L624		//
.L623:
	add	w2, w1, 16	// D.9692, D.9684,
	str	w2, [sp, 196]	// D.9692, argv.__vr_offs
	ldr	w2, [sp, 196]	// D.9694, argv.__vr_offs
	cmp	w2, 0	// D.9694,
	ble	.L625		//,
	add	x1, x0, 15	// D.9697, iftmp.311,
	and	x1, x1, -8	// D.9698, D.9697,
	str	x1, [sp, 168]	// D.9698, argv.__stack
	b	.L624		//
.L625:
	ldr	x2, [sp, 184]	// D.9700, argv.__vr_top
	sxtw	x0, w1	// D.9701, D.9684
	add	x0, x2, x0	// iftmp.311, D.9700, D.9701
.L624:
	ldr	d0, [x0]	// tmp296, *iftmp.310_110
	str	d0, [sp, 112]	// tmp296, k
// varargs-dll.c:299:   double l = va_arg (argv, double);
	ldr	w1, [sp, 196]	// D.9702, argv.__vr_offs
	ldr	x0, [sp, 168]	// iftmp.313, argv.__stack
	cmp	w1, 0	// D.9702,
	blt	.L627		//,
	add	x1, x0, 15	// D.9707, iftmp.313,
	and	x1, x1, -8	// D.9708, D.9707,
	str	x1, [sp, 168]	// D.9708, argv.__stack
	b	.L628		//
.L627:
	add	w2, w1, 16	// D.9710, D.9702,
	str	w2, [sp, 196]	// D.9710, argv.__vr_offs
	ldr	w2, [sp, 196]	// D.9712, argv.__vr_offs
	cmp	w2, 0	// D.9712,
	ble	.L629		//,
	add	x1, x0, 15	// D.9715, iftmp.313,
	and	x1, x1, -8	// D.9716, D.9715,
	str	x1, [sp, 168]	// D.9716, argv.__stack
	b	.L628		//
.L629:
	ldr	x2, [sp, 184]	// D.9718, argv.__vr_top
	sxtw	x0, w1	// D.9719, D.9702
	add	x0, x2, x0	// iftmp.313, D.9718, D.9719
.L628:
	ldr	d0, [x0]	// tmp297, *iftmp.312_112
	str	d0, [sp, 120]	// tmp297, l
// varargs-dll.c:300:   double m = va_arg (argv, double);
	ldr	w1, [sp, 196]	// D.9720, argv.__vr_offs
	ldr	x0, [sp, 168]	// iftmp.315, argv.__stack
	cmp	w1, 0	// D.9720,
	blt	.L631		//,
	add	x1, x0, 15	// D.9725, iftmp.315,
	and	x1, x1, -8	// D.9726, D.9725,
	str	x1, [sp, 168]	// D.9726, argv.__stack
	b	.L632		//
.L631:
	add	w2, w1, 16	// D.9728, D.9720,
	str	w2, [sp, 196]	// D.9728, argv.__vr_offs
	ldr	w2, [sp, 196]	// D.9730, argv.__vr_offs
	cmp	w2, 0	// D.9730,
	ble	.L633		//,
	add	x1, x0, 15	// D.9733, iftmp.315,
	and	x1, x1, -8	// D.9734, D.9733,
	str	x1, [sp, 168]	// D.9734, argv.__stack
	b	.L632		//
.L633:
	ldr	x2, [sp, 184]	// D.9736, argv.__vr_top
	sxtw	x0, w1	// D.9737, D.9720
	add	x0, x2, x0	// iftmp.315, D.9736, D.9737
.L632:
	ldr	d0, [x0]	// tmp298, *iftmp.314_114
	str	d0, [sp, 128]	// tmp298, m
// varargs-dll.c:301:   double n = va_arg (argv, double);
	ldr	w1, [sp, 196]	// D.9738, argv.__vr_offs
	ldr	x0, [sp, 168]	// iftmp.317, argv.__stack
	cmp	w1, 0	// D.9738,
	blt	.L635		//,
	add	x1, x0, 15	// D.9743, iftmp.317,
	and	x1, x1, -8	// D.9744, D.9743,
	str	x1, [sp, 168]	// D.9744, argv.__stack
	b	.L636		//
.L635:
	add	w2, w1, 16	// D.9746, D.9738,
	str	w2, [sp, 196]	// D.9746, argv.__vr_offs
	ldr	w2, [sp, 196]	// D.9748, argv.__vr_offs
	cmp	w2, 0	// D.9748,
	ble	.L637		//,
	add	x1, x0, 15	// D.9751, iftmp.317,
	and	x1, x1, -8	// D.9752, D.9751,
	str	x1, [sp, 168]	// D.9752, argv.__stack
	b	.L636		//
.L637:
	ldr	x2, [sp, 184]	// D.9754, argv.__vr_top
	sxtw	x0, w1	// D.9755, D.9738
	add	x0, x2, x0	// iftmp.317, D.9754, D.9755
.L636:
	ldr	d0, [x0]	// tmp299, *iftmp.316_116
	str	d0, [sp, 136]	// tmp299, n
// varargs-dll.c:302:   double o = va_arg (argv, double);
	ldr	w1, [sp, 196]	// D.9756, argv.__vr_offs
	ldr	x0, [sp, 168]	// iftmp.319, argv.__stack
	cmp	w1, 0	// D.9756,
	blt	.L639		//,
	add	x1, x0, 15	// D.9761, iftmp.319,
	and	x1, x1, -8	// D.9762, D.9761,
	str	x1, [sp, 168]	// D.9762, argv.__stack
	b	.L640		//
.L639:
	add	w2, w1, 16	// D.9764, D.9756,
	str	w2, [sp, 196]	// D.9764, argv.__vr_offs
	ldr	w2, [sp, 196]	// D.9766, argv.__vr_offs
	cmp	w2, 0	// D.9766,
	ble	.L641		//,
	add	x1, x0, 15	// D.9769, iftmp.319,
	and	x1, x1, -8	// D.9770, D.9769,
	str	x1, [sp, 168]	// D.9770, argv.__stack
	b	.L640		//
.L641:
	ldr	x2, [sp, 184]	// D.9772, argv.__vr_top
	sxtw	x0, w1	// D.9773, D.9756
	add	x0, x2, x0	// iftmp.319, D.9772, D.9773
.L640:
	ldr	d0, [x0]	// tmp300, *iftmp.318_118
	str	d0, [sp, 144]	// tmp300, o
// varargs-dll.c:303:   double p = va_arg (argv, double);
	ldr	w1, [sp, 196]	// D.9774, argv.__vr_offs
	ldr	x0, [sp, 168]	// iftmp.321, argv.__stack
	cmp	w1, 0	// D.9774,
	blt	.L643		//,
	add	x1, x0, 15	// D.9779, iftmp.321,
	and	x1, x1, -8	// D.9780, D.9779,
	str	x1, [sp, 168]	// D.9780, argv.__stack
	b	.L644		//
.L643:
	add	w2, w1, 16	// D.9782, D.9774,
	str	w2, [sp, 196]	// D.9782, argv.__vr_offs
	ldr	w2, [sp, 196]	// D.9784, argv.__vr_offs
	cmp	w2, 0	// D.9784,
	ble	.L645		//,
	add	x1, x0, 15	// D.9787, iftmp.321,
	and	x1, x1, -8	// D.9788, D.9787,
	str	x1, [sp, 168]	// D.9788, argv.__stack
	b	.L644		//
.L645:
	ldr	x2, [sp, 184]	// D.9790, argv.__vr_top
	sxtw	x0, w1	// D.9791, D.9774
	add	x0, x2, x0	// iftmp.321, D.9790, D.9791
.L644:
	ldr	d0, [x0]	// tmp301, *iftmp.320_120
	str	d0, [sp, 152]	// tmp301, p
// varargs-dll.c:304:   double q = va_arg (argv, double);
	ldr	w1, [sp, 196]	// D.9792, argv.__vr_offs
	ldr	x0, [sp, 168]	// iftmp.323, argv.__stack
	cmp	w1, 0	// D.9792,
	blt	.L647		//,
	add	x1, x0, 15	// D.9797, iftmp.323,
	and	x1, x1, -8	// D.9798, D.9797,
	str	x1, [sp, 168]	// D.9798, argv.__stack
	b	.L648		//
.L647:
	add	w2, w1, 16	// D.9800, D.9792,
	str	w2, [sp, 196]	// D.9800, argv.__vr_offs
	ldr	w2, [sp, 196]	// D.9802, argv.__vr_offs
	cmp	w2, 0	// D.9802,
	ble	.L649		//,
	add	x1, x0, 15	// D.9805, iftmp.323,
	and	x1, x1, -8	// D.9806, D.9805,
	str	x1, [sp, 168]	// D.9806, argv.__stack
	b	.L648		//
.L649:
	ldr	x2, [sp, 184]	// D.9808, argv.__vr_top
	sxtw	x0, w1	// D.9809, D.9792
	add	x0, x2, x0	// iftmp.323, D.9808, D.9809
.L648:
	ldr	d0, [x0]	// tmp302, *iftmp.322_122
	str	d0, [sp, 160]	// tmp302, q
// varargs-dll.c:306:   return a + b + c + d + e + f + g + h + i + j + k + l + m + n + o + p + q;
	ldr	d1, [sp, 32]	// tmp303, a
	ldr	d0, [sp, 40]	// tmp304, b
	fadd	d1, d1, d0	// _1, tmp303, tmp304
// varargs-dll.c:306:   return a + b + c + d + e + f + g + h + i + j + k + l + m + n + o + p + q;
	ldr	d0, [sp, 48]	// tmp305, c
	fadd	d1, d1, d0	// _2, _1, tmp305
// varargs-dll.c:306:   return a + b + c + d + e + f + g + h + i + j + k + l + m + n + o + p + q;
	ldr	d0, [sp, 56]	// tmp306, d
	fadd	d1, d1, d0	// _3, _2, tmp306
// varargs-dll.c:306:   return a + b + c + d + e + f + g + h + i + j + k + l + m + n + o + p + q;
	ldr	d0, [sp, 64]	// tmp307, e
	fadd	d1, d1, d0	// _4, _3, tmp307
// varargs-dll.c:306:   return a + b + c + d + e + f + g + h + i + j + k + l + m + n + o + p + q;
	ldr	d0, [sp, 72]	// tmp308, f
	fadd	d1, d1, d0	// _5, _4, tmp308
// varargs-dll.c:306:   return a + b + c + d + e + f + g + h + i + j + k + l + m + n + o + p + q;
	ldr	d0, [sp, 80]	// tmp309, g
	fadd	d1, d1, d0	// _6, _5, tmp309
// varargs-dll.c:306:   return a + b + c + d + e + f + g + h + i + j + k + l + m + n + o + p + q;
	ldr	d0, [sp, 88]	// tmp310, h
	fadd	d1, d1, d0	// _7, _6, tmp310
// varargs-dll.c:306:   return a + b + c + d + e + f + g + h + i + j + k + l + m + n + o + p + q;
	ldr	d0, [sp, 96]	// tmp311, i
	fadd	d1, d1, d0	// _8, _7, tmp311
// varargs-dll.c:306:   return a + b + c + d + e + f + g + h + i + j + k + l + m + n + o + p + q;
	ldr	d0, [sp, 104]	// tmp312, j
	fadd	d1, d1, d0	// _9, _8, tmp312
// varargs-dll.c:306:   return a + b + c + d + e + f + g + h + i + j + k + l + m + n + o + p + q;
	ldr	d0, [sp, 112]	// tmp313, k
	fadd	d1, d1, d0	// _10, _9, tmp313
// varargs-dll.c:306:   return a + b + c + d + e + f + g + h + i + j + k + l + m + n + o + p + q;
	ldr	d0, [sp, 120]	// tmp314, l
	fadd	d1, d1, d0	// _11, _10, tmp314
// varargs-dll.c:306:   return a + b + c + d + e + f + g + h + i + j + k + l + m + n + o + p + q;
	ldr	d0, [sp, 128]	// tmp315, m
	fadd	d1, d1, d0	// _12, _11, tmp315
// varargs-dll.c:306:   return a + b + c + d + e + f + g + h + i + j + k + l + m + n + o + p + q;
	ldr	d0, [sp, 136]	// tmp316, n
	fadd	d1, d1, d0	// _13, _12, tmp316
// varargs-dll.c:306:   return a + b + c + d + e + f + g + h + i + j + k + l + m + n + o + p + q;
	ldr	d0, [sp, 144]	// tmp317, o
	fadd	d1, d1, d0	// _14, _13, tmp317
// varargs-dll.c:306:   return a + b + c + d + e + f + g + h + i + j + k + l + m + n + o + p + q;
	ldr	d0, [sp, 152]	// tmp318, p
	fadd	d1, d1, d0	// _15, _14, tmp318
// varargs-dll.c:306:   return a + b + c + d + e + f + g + h + i + j + k + l + m + n + o + p + q;
	ldr	d0, [sp, 160]	// tmp319, q
	fadd	d0, d1, d0	// _16, _15, tmp319
	fcvtzs	w0, d0	// _54, _16
	mov	w1, w0	// <retval>, _54
// varargs-dll.c:307: }
	adrp	x0, :got:__stack_chk_guard	// tmp322,
	ldr	x0, [x0, #:got_lo12:__stack_chk_guard]	// tmp321, tmp322,
	ldr	x3, [sp, 200]	// tmp324, D.9810
	ldr	x2, [x0]	// tmp325,
	subs	x3, x3, x2	// tmp324, tmp325
	mov	x2, 0	// tmp325
	beq	.L652		//,
	bl	__stack_chk_fail		//
.L652:
	mov	w0, w1	//, <retval>
	ldp	x29, x30, [sp], 400	//,,,
	.cfi_restore 30
	.cfi_restore 29
	.cfi_def_cfa_offset 0
	ret	
	.cfi_endproc
.LFE24:
	.size	use_va_args_many_doubles, .-use_va_args_many_doubles
	.align	2
	.global	use_va_list_many_doubles
	.type	use_va_list_many_doubles, %function
use_va_list_many_doubles:
.LFB25:
	.cfi_startproc
	str	x19, [sp, -176]!	//,
	.cfi_def_cfa_offset 176
	.cfi_offset 19, -176
	str	x0, [sp, 24]	// name, name
	mov	x19, x1	// tmp280,
// varargs-dll.c:312:   double a = va_arg (argv, double);
	ldr	w1, [x19, 28]	// D.9814, argv.__vr_offs
	ldr	x0, [x19]	// iftmp.325, argv.__stack
	cmp	w1, 0	// D.9814,
	blt	.L654		//,
	add	x1, x0, 15	// D.9819, iftmp.325,
	and	x1, x1, -8	// D.9820, D.9819,
	str	x1, [x19]	// D.9820, argv.__stack
	b	.L655		//
.L654:
	add	w2, w1, 16	// D.9822, D.9814,
	str	w2, [x19, 28]	// D.9822, argv.__vr_offs
	ldr	w2, [x19, 28]	// D.9824, argv.__vr_offs
	cmp	w2, 0	// D.9824,
	ble	.L656		//,
	add	x1, x0, 15	// D.9827, iftmp.325,
	and	x1, x1, -8	// D.9828, D.9827,
	str	x1, [x19]	// D.9828, argv.__stack
	b	.L655		//
.L656:
	ldr	x2, [x19, 16]	// D.9830, argv.__vr_top
	sxtw	x0, w1	// D.9831, D.9814
	add	x0, x2, x0	// iftmp.325, D.9830, D.9831
.L655:
	ldr	d0, [x0]	// tmp281, *iftmp.324_87
	str	d0, [sp, 40]	// tmp281, a
// varargs-dll.c:313:   double b = va_arg (argv, double);
	ldr	w1, [x19, 28]	// D.9832, argv.__vr_offs
	ldr	x0, [x19]	// iftmp.327, argv.__stack
	cmp	w1, 0	// D.9832,
	blt	.L658		//,
	add	x1, x0, 15	// D.9837, iftmp.327,
	and	x1, x1, -8	// D.9838, D.9837,
	str	x1, [x19]	// D.9838, argv.__stack
	b	.L659		//
.L658:
	add	w2, w1, 16	// D.9840, D.9832,
	str	w2, [x19, 28]	// D.9840, argv.__vr_offs
	ldr	w2, [x19, 28]	// D.9842, argv.__vr_offs
	cmp	w2, 0	// D.9842,
	ble	.L660		//,
	add	x1, x0, 15	// D.9845, iftmp.327,
	and	x1, x1, -8	// D.9846, D.9845,
	str	x1, [x19]	// D.9846, argv.__stack
	b	.L659		//
.L660:
	ldr	x2, [x19, 16]	// D.9848, argv.__vr_top
	sxtw	x0, w1	// D.9849, D.9832
	add	x0, x2, x0	// iftmp.327, D.9848, D.9849
.L659:
	ldr	d0, [x0]	// tmp282, *iftmp.326_89
	str	d0, [sp, 48]	// tmp282, b
// varargs-dll.c:314:   double c = va_arg (argv, double);
	ldr	w1, [x19, 28]	// D.9850, argv.__vr_offs
	ldr	x0, [x19]	// iftmp.329, argv.__stack
	cmp	w1, 0	// D.9850,
	blt	.L662		//,
	add	x1, x0, 15	// D.9855, iftmp.329,
	and	x1, x1, -8	// D.9856, D.9855,
	str	x1, [x19]	// D.9856, argv.__stack
	b	.L663		//
.L662:
	add	w2, w1, 16	// D.9858, D.9850,
	str	w2, [x19, 28]	// D.9858, argv.__vr_offs
	ldr	w2, [x19, 28]	// D.9860, argv.__vr_offs
	cmp	w2, 0	// D.9860,
	ble	.L664		//,
	add	x1, x0, 15	// D.9863, iftmp.329,
	and	x1, x1, -8	// D.9864, D.9863,
	str	x1, [x19]	// D.9864, argv.__stack
	b	.L663		//
.L664:
	ldr	x2, [x19, 16]	// D.9866, argv.__vr_top
	sxtw	x0, w1	// D.9867, D.9850
	add	x0, x2, x0	// iftmp.329, D.9866, D.9867
.L663:
	ldr	d0, [x0]	// tmp283, *iftmp.328_91
	str	d0, [sp, 56]	// tmp283, c
// varargs-dll.c:315:   double d = va_arg (argv, double);
	ldr	w1, [x19, 28]	// D.9868, argv.__vr_offs
	ldr	x0, [x19]	// iftmp.331, argv.__stack
	cmp	w1, 0	// D.9868,
	blt	.L666		//,
	add	x1, x0, 15	// D.9873, iftmp.331,
	and	x1, x1, -8	// D.9874, D.9873,
	str	x1, [x19]	// D.9874, argv.__stack
	b	.L667		//
.L666:
	add	w2, w1, 16	// D.9876, D.9868,
	str	w2, [x19, 28]	// D.9876, argv.__vr_offs
	ldr	w2, [x19, 28]	// D.9878, argv.__vr_offs
	cmp	w2, 0	// D.9878,
	ble	.L668		//,
	add	x1, x0, 15	// D.9881, iftmp.331,
	and	x1, x1, -8	// D.9882, D.9881,
	str	x1, [x19]	// D.9882, argv.__stack
	b	.L667		//
.L668:
	ldr	x2, [x19, 16]	// D.9884, argv.__vr_top
	sxtw	x0, w1	// D.9885, D.9868
	add	x0, x2, x0	// iftmp.331, D.9884, D.9885
.L667:
	ldr	d0, [x0]	// tmp284, *iftmp.330_93
	str	d0, [sp, 64]	// tmp284, d
// varargs-dll.c:316:   double e = va_arg (argv, double);
	ldr	w1, [x19, 28]	// D.9886, argv.__vr_offs
	ldr	x0, [x19]	// iftmp.333, argv.__stack
	cmp	w1, 0	// D.9886,
	blt	.L670		//,
	add	x1, x0, 15	// D.9891, iftmp.333,
	and	x1, x1, -8	// D.9892, D.9891,
	str	x1, [x19]	// D.9892, argv.__stack
	b	.L671		//
.L670:
	add	w2, w1, 16	// D.9894, D.9886,
	str	w2, [x19, 28]	// D.9894, argv.__vr_offs
	ldr	w2, [x19, 28]	// D.9896, argv.__vr_offs
	cmp	w2, 0	// D.9896,
	ble	.L672		//,
	add	x1, x0, 15	// D.9899, iftmp.333,
	and	x1, x1, -8	// D.9900, D.9899,
	str	x1, [x19]	// D.9900, argv.__stack
	b	.L671		//
.L672:
	ldr	x2, [x19, 16]	// D.9902, argv.__vr_top
	sxtw	x0, w1	// D.9903, D.9886
	add	x0, x2, x0	// iftmp.333, D.9902, D.9903
.L671:
	ldr	d0, [x0]	// tmp285, *iftmp.332_95
	str	d0, [sp, 72]	// tmp285, e
// varargs-dll.c:317:   double f = va_arg (argv, double);
	ldr	w1, [x19, 28]	// D.9904, argv.__vr_offs
	ldr	x0, [x19]	// iftmp.335, argv.__stack
	cmp	w1, 0	// D.9904,
	blt	.L674		//,
	add	x1, x0, 15	// D.9909, iftmp.335,
	and	x1, x1, -8	// D.9910, D.9909,
	str	x1, [x19]	// D.9910, argv.__stack
	b	.L675		//
.L674:
	add	w2, w1, 16	// D.9912, D.9904,
	str	w2, [x19, 28]	// D.9912, argv.__vr_offs
	ldr	w2, [x19, 28]	// D.9914, argv.__vr_offs
	cmp	w2, 0	// D.9914,
	ble	.L676		//,
	add	x1, x0, 15	// D.9917, iftmp.335,
	and	x1, x1, -8	// D.9918, D.9917,
	str	x1, [x19]	// D.9918, argv.__stack
	b	.L675		//
.L676:
	ldr	x2, [x19, 16]	// D.9920, argv.__vr_top
	sxtw	x0, w1	// D.9921, D.9904
	add	x0, x2, x0	// iftmp.335, D.9920, D.9921
.L675:
	ldr	d0, [x0]	// tmp286, *iftmp.334_97
	str	d0, [sp, 80]	// tmp286, f
// varargs-dll.c:318:   double g = va_arg (argv, double);
	ldr	w1, [x19, 28]	// D.9922, argv.__vr_offs
	ldr	x0, [x19]	// iftmp.337, argv.__stack
	cmp	w1, 0	// D.9922,
	blt	.L678		//,
	add	x1, x0, 15	// D.9927, iftmp.337,
	and	x1, x1, -8	// D.9928, D.9927,
	str	x1, [x19]	// D.9928, argv.__stack
	b	.L679		//
.L678:
	add	w2, w1, 16	// D.9930, D.9922,
	str	w2, [x19, 28]	// D.9930, argv.__vr_offs
	ldr	w2, [x19, 28]	// D.9932, argv.__vr_offs
	cmp	w2, 0	// D.9932,
	ble	.L680		//,
	add	x1, x0, 15	// D.9935, iftmp.337,
	and	x1, x1, -8	// D.9936, D.9935,
	str	x1, [x19]	// D.9936, argv.__stack
	b	.L679		//
.L680:
	ldr	x2, [x19, 16]	// D.9938, argv.__vr_top
	sxtw	x0, w1	// D.9939, D.9922
	add	x0, x2, x0	// iftmp.337, D.9938, D.9939
.L679:
	ldr	d0, [x0]	// tmp287, *iftmp.336_99
	str	d0, [sp, 88]	// tmp287, g
// varargs-dll.c:319:   double h = va_arg (argv, double);
	ldr	w1, [x19, 28]	// D.9940, argv.__vr_offs
	ldr	x0, [x19]	// iftmp.339, argv.__stack
	cmp	w1, 0	// D.9940,
	blt	.L682		//,
	add	x1, x0, 15	// D.9945, iftmp.339,
	and	x1, x1, -8	// D.9946, D.9945,
	str	x1, [x19]	// D.9946, argv.__stack
	b	.L683		//
.L682:
	add	w2, w1, 16	// D.9948, D.9940,
	str	w2, [x19, 28]	// D.9948, argv.__vr_offs
	ldr	w2, [x19, 28]	// D.9950, argv.__vr_offs
	cmp	w2, 0	// D.9950,
	ble	.L684		//,
	add	x1, x0, 15	// D.9953, iftmp.339,
	and	x1, x1, -8	// D.9954, D.9953,
	str	x1, [x19]	// D.9954, argv.__stack
	b	.L683		//
.L684:
	ldr	x2, [x19, 16]	// D.9956, argv.__vr_top
	sxtw	x0, w1	// D.9957, D.9940
	add	x0, x2, x0	// iftmp.339, D.9956, D.9957
.L683:
	ldr	d0, [x0]	// tmp288, *iftmp.338_101
	str	d0, [sp, 96]	// tmp288, h
// varargs-dll.c:320:   double i = va_arg (argv, double);
	ldr	w1, [x19, 28]	// D.9958, argv.__vr_offs
	ldr	x0, [x19]	// iftmp.341, argv.__stack
	cmp	w1, 0	// D.9958,
	blt	.L686		//,
	add	x1, x0, 15	// D.9963, iftmp.341,
	and	x1, x1, -8	// D.9964, D.9963,
	str	x1, [x19]	// D.9964, argv.__stack
	b	.L687		//
.L686:
	add	w2, w1, 16	// D.9966, D.9958,
	str	w2, [x19, 28]	// D.9966, argv.__vr_offs
	ldr	w2, [x19, 28]	// D.9968, argv.__vr_offs
	cmp	w2, 0	// D.9968,
	ble	.L688		//,
	add	x1, x0, 15	// D.9971, iftmp.341,
	and	x1, x1, -8	// D.9972, D.9971,
	str	x1, [x19]	// D.9972, argv.__stack
	b	.L687		//
.L688:
	ldr	x2, [x19, 16]	// D.9974, argv.__vr_top
	sxtw	x0, w1	// D.9975, D.9958
	add	x0, x2, x0	// iftmp.341, D.9974, D.9975
.L687:
	ldr	d0, [x0]	// tmp289, *iftmp.340_103
	str	d0, [sp, 104]	// tmp289, i
// varargs-dll.c:321:   double j = va_arg (argv, double);
	ldr	w1, [x19, 28]	// D.9976, argv.__vr_offs
	ldr	x0, [x19]	// iftmp.343, argv.__stack
	cmp	w1, 0	// D.9976,
	blt	.L690		//,
	add	x1, x0, 15	// D.9981, iftmp.343,
	and	x1, x1, -8	// D.9982, D.9981,
	str	x1, [x19]	// D.9982, argv.__stack
	b	.L691		//
.L690:
	add	w2, w1, 16	// D.9984, D.9976,
	str	w2, [x19, 28]	// D.9984, argv.__vr_offs
	ldr	w2, [x19, 28]	// D.9986, argv.__vr_offs
	cmp	w2, 0	// D.9986,
	ble	.L692		//,
	add	x1, x0, 15	// D.9989, iftmp.343,
	and	x1, x1, -8	// D.9990, D.9989,
	str	x1, [x19]	// D.9990, argv.__stack
	b	.L691		//
.L692:
	ldr	x2, [x19, 16]	// D.9992, argv.__vr_top
	sxtw	x0, w1	// D.9993, D.9976
	add	x0, x2, x0	// iftmp.343, D.9992, D.9993
.L691:
	ldr	d0, [x0]	// tmp290, *iftmp.342_105
	str	d0, [sp, 112]	// tmp290, j
// varargs-dll.c:322:   double k = va_arg (argv, double);
	ldr	w1, [x19, 28]	// D.9994, argv.__vr_offs
	ldr	x0, [x19]	// iftmp.345, argv.__stack
	cmp	w1, 0	// D.9994,
	blt	.L694		//,
	add	x1, x0, 15	// D.9999, iftmp.345,
	and	x1, x1, -8	// D.10000, D.9999,
	str	x1, [x19]	// D.10000, argv.__stack
	b	.L695		//
.L694:
	add	w2, w1, 16	// D.10002, D.9994,
	str	w2, [x19, 28]	// D.10002, argv.__vr_offs
	ldr	w2, [x19, 28]	// D.10004, argv.__vr_offs
	cmp	w2, 0	// D.10004,
	ble	.L696		//,
	add	x1, x0, 15	// D.10007, iftmp.345,
	and	x1, x1, -8	// D.10008, D.10007,
	str	x1, [x19]	// D.10008, argv.__stack
	b	.L695		//
.L696:
	ldr	x2, [x19, 16]	// D.10010, argv.__vr_top
	sxtw	x0, w1	// D.10011, D.9994
	add	x0, x2, x0	// iftmp.345, D.10010, D.10011
.L695:
	ldr	d0, [x0]	// tmp291, *iftmp.344_107
	str	d0, [sp, 120]	// tmp291, k
// varargs-dll.c:323:   double l = va_arg (argv, double);
	ldr	w1, [x19, 28]	// D.10012, argv.__vr_offs
	ldr	x0, [x19]	// iftmp.347, argv.__stack
	cmp	w1, 0	// D.10012,
	blt	.L698		//,
	add	x1, x0, 15	// D.10017, iftmp.347,
	and	x1, x1, -8	// D.10018, D.10017,
	str	x1, [x19]	// D.10018, argv.__stack
	b	.L699		//
.L698:
	add	w2, w1, 16	// D.10020, D.10012,
	str	w2, [x19, 28]	// D.10020, argv.__vr_offs
	ldr	w2, [x19, 28]	// D.10022, argv.__vr_offs
	cmp	w2, 0	// D.10022,
	ble	.L700		//,
	add	x1, x0, 15	// D.10025, iftmp.347,
	and	x1, x1, -8	// D.10026, D.10025,
	str	x1, [x19]	// D.10026, argv.__stack
	b	.L699		//
.L700:
	ldr	x2, [x19, 16]	// D.10028, argv.__vr_top
	sxtw	x0, w1	// D.10029, D.10012
	add	x0, x2, x0	// iftmp.347, D.10028, D.10029
.L699:
	ldr	d0, [x0]	// tmp292, *iftmp.346_109
	str	d0, [sp, 128]	// tmp292, l
// varargs-dll.c:324:   double m = va_arg (argv, double);
	ldr	w1, [x19, 28]	// D.10030, argv.__vr_offs
	ldr	x0, [x19]	// iftmp.349, argv.__stack
	cmp	w1, 0	// D.10030,
	blt	.L702		//,
	add	x1, x0, 15	// D.10035, iftmp.349,
	and	x1, x1, -8	// D.10036, D.10035,
	str	x1, [x19]	// D.10036, argv.__stack
	b	.L703		//
.L702:
	add	w2, w1, 16	// D.10038, D.10030,
	str	w2, [x19, 28]	// D.10038, argv.__vr_offs
	ldr	w2, [x19, 28]	// D.10040, argv.__vr_offs
	cmp	w2, 0	// D.10040,
	ble	.L704		//,
	add	x1, x0, 15	// D.10043, iftmp.349,
	and	x1, x1, -8	// D.10044, D.10043,
	str	x1, [x19]	// D.10044, argv.__stack
	b	.L703		//
.L704:
	ldr	x2, [x19, 16]	// D.10046, argv.__vr_top
	sxtw	x0, w1	// D.10047, D.10030
	add	x0, x2, x0	// iftmp.349, D.10046, D.10047
.L703:
	ldr	d0, [x0]	// tmp293, *iftmp.348_111
	str	d0, [sp, 136]	// tmp293, m
// varargs-dll.c:325:   double n = va_arg (argv, double);
	ldr	w1, [x19, 28]	// D.10048, argv.__vr_offs
	ldr	x0, [x19]	// iftmp.351, argv.__stack
	cmp	w1, 0	// D.10048,
	blt	.L706		//,
	add	x1, x0, 15	// D.10053, iftmp.351,
	and	x1, x1, -8	// D.10054, D.10053,
	str	x1, [x19]	// D.10054, argv.__stack
	b	.L707		//
.L706:
	add	w2, w1, 16	// D.10056, D.10048,
	str	w2, [x19, 28]	// D.10056, argv.__vr_offs
	ldr	w2, [x19, 28]	// D.10058, argv.__vr_offs
	cmp	w2, 0	// D.10058,
	ble	.L708		//,
	add	x1, x0, 15	// D.10061, iftmp.351,
	and	x1, x1, -8	// D.10062, D.10061,
	str	x1, [x19]	// D.10062, argv.__stack
	b	.L707		//
.L708:
	ldr	x2, [x19, 16]	// D.10064, argv.__vr_top
	sxtw	x0, w1	// D.10065, D.10048
	add	x0, x2, x0	// iftmp.351, D.10064, D.10065
.L707:
	ldr	d0, [x0]	// tmp294, *iftmp.350_113
	str	d0, [sp, 144]	// tmp294, n
// varargs-dll.c:326:   double o = va_arg (argv, double);
	ldr	w1, [x19, 28]	// D.10066, argv.__vr_offs
	ldr	x0, [x19]	// iftmp.353, argv.__stack
	cmp	w1, 0	// D.10066,
	blt	.L710		//,
	add	x1, x0, 15	// D.10071, iftmp.353,
	and	x1, x1, -8	// D.10072, D.10071,
	str	x1, [x19]	// D.10072, argv.__stack
	b	.L711		//
.L710:
	add	w2, w1, 16	// D.10074, D.10066,
	str	w2, [x19, 28]	// D.10074, argv.__vr_offs
	ldr	w2, [x19, 28]	// D.10076, argv.__vr_offs
	cmp	w2, 0	// D.10076,
	ble	.L712		//,
	add	x1, x0, 15	// D.10079, iftmp.353,
	and	x1, x1, -8	// D.10080, D.10079,
	str	x1, [x19]	// D.10080, argv.__stack
	b	.L711		//
.L712:
	ldr	x2, [x19, 16]	// D.10082, argv.__vr_top
	sxtw	x0, w1	// D.10083, D.10066
	add	x0, x2, x0	// iftmp.353, D.10082, D.10083
.L711:
	ldr	d0, [x0]	// tmp295, *iftmp.352_115
	str	d0, [sp, 152]	// tmp295, o
// varargs-dll.c:327:   double p = va_arg (argv, double);
	ldr	w1, [x19, 28]	// D.10084, argv.__vr_offs
	ldr	x0, [x19]	// iftmp.355, argv.__stack
	cmp	w1, 0	// D.10084,
	blt	.L714		//,
	add	x1, x0, 15	// D.10089, iftmp.355,
	and	x1, x1, -8	// D.10090, D.10089,
	str	x1, [x19]	// D.10090, argv.__stack
	b	.L715		//
.L714:
	add	w2, w1, 16	// D.10092, D.10084,
	str	w2, [x19, 28]	// D.10092, argv.__vr_offs
	ldr	w2, [x19, 28]	// D.10094, argv.__vr_offs
	cmp	w2, 0	// D.10094,
	ble	.L716		//,
	add	x1, x0, 15	// D.10097, iftmp.355,
	and	x1, x1, -8	// D.10098, D.10097,
	str	x1, [x19]	// D.10098, argv.__stack
	b	.L715		//
.L716:
	ldr	x2, [x19, 16]	// D.10100, argv.__vr_top
	sxtw	x0, w1	// D.10101, D.10084
	add	x0, x2, x0	// iftmp.355, D.10100, D.10101
.L715:
	ldr	d0, [x0]	// tmp296, *iftmp.354_117
	str	d0, [sp, 160]	// tmp296, p
// varargs-dll.c:328:   double q = va_arg (argv, double);
	ldr	w1, [x19, 28]	// D.10102, argv.__vr_offs
	ldr	x0, [x19]	// iftmp.357, argv.__stack
	cmp	w1, 0	// D.10102,
	blt	.L718		//,
	add	x1, x0, 15	// D.10107, iftmp.357,
	and	x1, x1, -8	// D.10108, D.10107,
	str	x1, [x19]	// D.10108, argv.__stack
	b	.L719		//
.L718:
	add	w2, w1, 16	// D.10110, D.10102,
	str	w2, [x19, 28]	// D.10110, argv.__vr_offs
	ldr	w2, [x19, 28]	// D.10112, argv.__vr_offs
	cmp	w2, 0	// D.10112,
	ble	.L720		//,
	add	x1, x0, 15	// D.10115, iftmp.357,
	and	x1, x1, -8	// D.10116, D.10115,
	str	x1, [x19]	// D.10116, argv.__stack
	b	.L719		//
.L720:
	ldr	x2, [x19, 16]	// D.10118, argv.__vr_top
	sxtw	x0, w1	// D.10119, D.10102
	add	x0, x2, x0	// iftmp.357, D.10118, D.10119
.L719:
	ldr	d0, [x0]	// tmp297, *iftmp.356_119
	str	d0, [sp, 168]	// tmp297, q
// varargs-dll.c:329:   return a + b + c + d + e + f + g + h + i + j + k + l + m + n + o + p + q;
	ldr	d1, [sp, 40]	// tmp298, a
	ldr	d0, [sp, 48]	// tmp299, b
	fadd	d1, d1, d0	// _1, tmp298, tmp299
// varargs-dll.c:329:   return a + b + c + d + e + f + g + h + i + j + k + l + m + n + o + p + q;
	ldr	d0, [sp, 56]	// tmp300, c
	fadd	d1, d1, d0	// _2, _1, tmp300
// varargs-dll.c:329:   return a + b + c + d + e + f + g + h + i + j + k + l + m + n + o + p + q;
	ldr	d0, [sp, 64]	// tmp301, d
	fadd	d1, d1, d0	// _3, _2, tmp301
// varargs-dll.c:329:   return a + b + c + d + e + f + g + h + i + j + k + l + m + n + o + p + q;
	ldr	d0, [sp, 72]	// tmp302, e
	fadd	d1, d1, d0	// _4, _3, tmp302
// varargs-dll.c:329:   return a + b + c + d + e + f + g + h + i + j + k + l + m + n + o + p + q;
	ldr	d0, [sp, 80]	// tmp303, f
	fadd	d1, d1, d0	// _5, _4, tmp303
// varargs-dll.c:329:   return a + b + c + d + e + f + g + h + i + j + k + l + m + n + o + p + q;
	ldr	d0, [sp, 88]	// tmp304, g
	fadd	d1, d1, d0	// _6, _5, tmp304
// varargs-dll.c:329:   return a + b + c + d + e + f + g + h + i + j + k + l + m + n + o + p + q;
	ldr	d0, [sp, 96]	// tmp305, h
	fadd	d1, d1, d0	// _7, _6, tmp305
// varargs-dll.c:329:   return a + b + c + d + e + f + g + h + i + j + k + l + m + n + o + p + q;
	ldr	d0, [sp, 104]	// tmp306, i
	fadd	d1, d1, d0	// _8, _7, tmp306
// varargs-dll.c:329:   return a + b + c + d + e + f + g + h + i + j + k + l + m + n + o + p + q;
	ldr	d0, [sp, 112]	// tmp307, j
	fadd	d1, d1, d0	// _9, _8, tmp307
// varargs-dll.c:329:   return a + b + c + d + e + f + g + h + i + j + k + l + m + n + o + p + q;
	ldr	d0, [sp, 120]	// tmp308, k
	fadd	d1, d1, d0	// _10, _9, tmp308
// varargs-dll.c:329:   return a + b + c + d + e + f + g + h + i + j + k + l + m + n + o + p + q;
	ldr	d0, [sp, 128]	// tmp309, l
	fadd	d1, d1, d0	// _11, _10, tmp309
// varargs-dll.c:329:   return a + b + c + d + e + f + g + h + i + j + k + l + m + n + o + p + q;
	ldr	d0, [sp, 136]	// tmp310, m
	fadd	d1, d1, d0	// _12, _11, tmp310
// varargs-dll.c:329:   return a + b + c + d + e + f + g + h + i + j + k + l + m + n + o + p + q;
	ldr	d0, [sp, 144]	// tmp311, n
	fadd	d1, d1, d0	// _13, _12, tmp311
// varargs-dll.c:329:   return a + b + c + d + e + f + g + h + i + j + k + l + m + n + o + p + q;
	ldr	d0, [sp, 152]	// tmp312, o
	fadd	d1, d1, d0	// _14, _13, tmp312
// varargs-dll.c:329:   return a + b + c + d + e + f + g + h + i + j + k + l + m + n + o + p + q;
	ldr	d0, [sp, 160]	// tmp313, p
	fadd	d1, d1, d0	// _15, _14, tmp313
// varargs-dll.c:329:   return a + b + c + d + e + f + g + h + i + j + k + l + m + n + o + p + q;
	ldr	d0, [sp, 168]	// tmp314, q
	fadd	d0, d1, d0	// _16, _15, tmp314
	fcvtzs	w0, d0	// _52, _16
// varargs-dll.c:330: }
	ldr	x19, [sp], 176	//,
	.cfi_restore 19
	.cfi_def_cfa_offset 0
	ret	
	.cfi_endproc
.LFE25:
	.size	use_va_list_many_doubles, .-use_va_list_many_doubles
	.align	2
	.global	use_va_args_few_floats
	.type	use_va_args_few_floats, %function
use_va_args_few_floats:
.LFB26:
	.cfi_startproc
	stp	x29, x30, [sp, -288]!	//,,,
	.cfi_def_cfa_offset 288
	.cfi_offset 29, -288
	.cfi_offset 30, -280
	mov	x29, sp	//,
	str	x0, [sp, 24]	// name, name
	str	x1, [sp, 232]	//,
	str	x2, [sp, 240]	//,
	str	x3, [sp, 248]	//,
	str	x4, [sp, 256]	//,
	str	x5, [sp, 264]	//,
	str	x6, [sp, 272]	//,
	str	x7, [sp, 280]	//,
	str	q0, [sp, 96]	//,
	str	q1, [sp, 112]	//,
	str	q2, [sp, 128]	//,
	str	q3, [sp, 144]	//,
	str	q4, [sp, 160]	//,
	str	q5, [sp, 176]	//,
	str	q6, [sp, 192]	//,
	str	q7, [sp, 208]	//,
// varargs-dll.c:334: {
	adrp	x0, :got:__stack_chk_guard	// tmp116,
	ldr	x0, [x0, #:got_lo12:__stack_chk_guard]	// tmp115, tmp116,
	ldr	x1, [x0]	// tmp128,
	str	x1, [sp, 88]	// tmp128, D.10156
	mov	x1, 0	// tmp128
// varargs-dll.c:337:   va_start (argv, name);
	add	x0, sp, 288	// tmp133,,
	str	x0, [sp, 56]	// tmp133, MEM[(struct  *)&argv].__stack
	add	x0, sp, 288	// tmp134,,
	str	x0, [sp, 64]	// tmp134, MEM[(struct  *)&argv].__gr_top
	add	x0, sp, 224	// tmp118,,
	str	x0, [sp, 72]	// tmp118, MEM[(struct  *)&argv].__vr_top
	mov	w0, -56	// tmp119,
	str	w0, [sp, 80]	// tmp119, MEM[(struct  *)&argv].__gr_offs
	mov	w0, -128	// tmp120,
	str	w0, [sp, 84]	// tmp120, MEM[(struct  *)&argv].__vr_offs
// varargs-dll.c:338:   double a = va_arg (argv, double);
	ldr	w1, [sp, 84]	// D.10120, argv.__vr_offs
	ldr	x0, [sp, 56]	// iftmp.359, argv.__stack
	cmp	w1, 0	// D.10120,
	blt	.L724		//,
	add	x1, x0, 15	// D.10125, iftmp.359,
	and	x1, x1, -8	// D.10126, D.10125,
	str	x1, [sp, 56]	// D.10126, argv.__stack
	b	.L725		//
.L724:
	add	w2, w1, 16	// D.10128, D.10120,
	str	w2, [sp, 84]	// D.10128, argv.__vr_offs
	ldr	w2, [sp, 84]	// D.10130, argv.__vr_offs
	cmp	w2, 0	// D.10130,
	ble	.L726		//,
	add	x1, x0, 15	// D.10133, iftmp.359,
	and	x1, x1, -8	// D.10134, D.10133,
	str	x1, [sp, 56]	// D.10134, argv.__stack
	b	.L725		//
.L726:
	ldr	x2, [sp, 72]	// D.10136, argv.__vr_top
	sxtw	x0, w1	// D.10137, D.10120
	add	x0, x2, x0	// iftmp.359, D.10136, D.10137
.L725:
	ldr	d0, [x0]	// tmp121, *iftmp.358_15
	str	d0, [sp, 40]	// tmp121, a
// varargs-dll.c:339:   double b = va_arg (argv, double);
	ldr	w1, [sp, 84]	// D.10138, argv.__vr_offs
	ldr	x0, [sp, 56]	// iftmp.361, argv.__stack
	cmp	w1, 0	// D.10138,
	blt	.L728		//,
	add	x1, x0, 15	// D.10143, iftmp.361,
	and	x1, x1, -8	// D.10144, D.10143,
	str	x1, [sp, 56]	// D.10144, argv.__stack
	b	.L729		//
.L728:
	add	w2, w1, 16	// D.10146, D.10138,
	str	w2, [sp, 84]	// D.10146, argv.__vr_offs
	ldr	w2, [sp, 84]	// D.10148, argv.__vr_offs
	cmp	w2, 0	// D.10148,
	ble	.L730		//,
	add	x1, x0, 15	// D.10151, iftmp.361,
	and	x1, x1, -8	// D.10152, D.10151,
	str	x1, [sp, 56]	// D.10152, argv.__stack
	b	.L729		//
.L730:
	ldr	x2, [sp, 72]	// D.10154, argv.__vr_top
	sxtw	x0, w1	// D.10155, D.10138
	add	x0, x2, x0	// iftmp.361, D.10154, D.10155
.L729:
	ldr	d0, [x0]	// tmp122, *iftmp.360_17
	str	d0, [sp, 48]	// tmp122, b
// varargs-dll.c:341:   return a + b;
	ldr	d1, [sp, 40]	// tmp123, a
	ldr	d0, [sp, 48]	// tmp124, b
	fadd	d0, d1, d0	// _1, tmp123, tmp124
	fcvtzs	w0, d0	// _9, _1
	mov	w1, w0	// <retval>, _9
// varargs-dll.c:342: }
	adrp	x0, :got:__stack_chk_guard	// tmp127,
	ldr	x0, [x0, #:got_lo12:__stack_chk_guard]	// tmp126, tmp127,
	ldr	x3, [sp, 88]	// tmp129, D.10156
	ldr	x2, [x0]	// tmp130,
	subs	x3, x3, x2	// tmp129, tmp130
	mov	x2, 0	// tmp130
	beq	.L733		//,
	bl	__stack_chk_fail		//
.L733:
	mov	w0, w1	//, <retval>
	ldp	x29, x30, [sp], 288	//,,,
	.cfi_restore 30
	.cfi_restore 29
	.cfi_def_cfa_offset 0
	ret	
	.cfi_endproc
.LFE26:
	.size	use_va_args_few_floats, .-use_va_args_few_floats
	.align	2
	.global	use_va_list_few_floats
	.type	use_va_list_few_floats, %function
use_va_list_few_floats:
.LFB27:
	.cfi_startproc
	str	x19, [sp, -48]!	//,
	.cfi_def_cfa_offset 48
	.cfi_offset 19, -48
	str	x0, [sp, 24]	// name, name
	mov	x19, x1	// tmp115,
// varargs-dll.c:348:   double a = va_arg (argv, double);
	ldr	w1, [x19, 28]	// D.10160, argv.__vr_offs
	ldr	x0, [x19]	// iftmp.363, argv.__stack
	cmp	w1, 0	// D.10160,
	blt	.L735		//,
	add	x1, x0, 15	// D.10165, iftmp.363,
	and	x1, x1, -8	// D.10166, D.10165,
	str	x1, [x19]	// D.10166, argv.__stack
	b	.L736		//
.L735:
	add	w2, w1, 16	// D.10168, D.10160,
	str	w2, [x19, 28]	// D.10168, argv.__vr_offs
	ldr	w2, [x19, 28]	// D.10170, argv.__vr_offs
	cmp	w2, 0	// D.10170,
	ble	.L737		//,
	add	x1, x0, 15	// D.10173, iftmp.363,
	and	x1, x1, -8	// D.10174, D.10173,
	str	x1, [x19]	// D.10174, argv.__stack
	b	.L736		//
.L737:
	ldr	x2, [x19, 16]	// D.10176, argv.__vr_top
	sxtw	x0, w1	// D.10177, D.10160
	add	x0, x2, x0	// iftmp.363, D.10176, D.10177
.L736:
	ldr	d0, [x0]	// tmp116, *iftmp.362_12
	str	d0, [sp, 32]	// tmp116, a
// varargs-dll.c:349:   double b = va_arg (argv, double);
	ldr	w1, [x19, 28]	// D.10178, argv.__vr_offs
	ldr	x0, [x19]	// iftmp.365, argv.__stack
	cmp	w1, 0	// D.10178,
	blt	.L739		//,
	add	x1, x0, 15	// D.10183, iftmp.365,
	and	x1, x1, -8	// D.10184, D.10183,
	str	x1, [x19]	// D.10184, argv.__stack
	b	.L740		//
.L739:
	add	w2, w1, 16	// D.10186, D.10178,
	str	w2, [x19, 28]	// D.10186, argv.__vr_offs
	ldr	w2, [x19, 28]	// D.10188, argv.__vr_offs
	cmp	w2, 0	// D.10188,
	ble	.L741		//,
	add	x1, x0, 15	// D.10191, iftmp.365,
	and	x1, x1, -8	// D.10192, D.10191,
	str	x1, [x19]	// D.10192, argv.__stack
	b	.L740		//
.L741:
	ldr	x2, [x19, 16]	// D.10194, argv.__vr_top
	sxtw	x0, w1	// D.10195, D.10178
	add	x0, x2, x0	// iftmp.365, D.10194, D.10195
.L740:
	ldr	d0, [x0]	// tmp117, *iftmp.364_14
	str	d0, [sp, 40]	// tmp117, b
// varargs-dll.c:350:   return a + b;
	ldr	d1, [sp, 32]	// tmp118, a
	ldr	d0, [sp, 40]	// tmp119, b
	fadd	d0, d1, d0	// _1, tmp118, tmp119
	fcvtzs	w0, d0	// _7, _1
// varargs-dll.c:351: }
	ldr	x19, [sp], 48	//,
	.cfi_restore 19
	.cfi_def_cfa_offset 0
	ret	
	.cfi_endproc
.LFE27:
	.size	use_va_list_few_floats, .-use_va_list_few_floats
	.align	2
	.global	use_va_args_several_floats
	.type	use_va_args_several_floats, %function
use_va_args_several_floats:
.LFB28:
	.cfi_startproc
	stp	x29, x30, [sp, -336]!	//,,,
	.cfi_def_cfa_offset 336
	.cfi_offset 29, -336
	.cfi_offset 30, -328
	mov	x29, sp	//,
	str	x0, [sp, 24]	// name, name
	str	x1, [sp, 280]	//,
	str	x2, [sp, 288]	//,
	str	x3, [sp, 296]	//,
	str	x4, [sp, 304]	//,
	str	x5, [sp, 312]	//,
	str	x6, [sp, 320]	//,
	str	x7, [sp, 328]	//,
	str	q0, [sp, 144]	//,
	str	q1, [sp, 160]	//,
	str	q2, [sp, 176]	//,
	str	q3, [sp, 192]	//,
	str	q4, [sp, 208]	//,
	str	q5, [sp, 224]	//,
	str	q6, [sp, 240]	//,
	str	q7, [sp, 256]	//,
// varargs-dll.c:355: {
	adrp	x0, :got:__stack_chk_guard	// tmp193,
	ldr	x0, [x0, #:got_lo12:__stack_chk_guard]	// tmp192, tmp193,
	ldr	x1, [x0]	// tmp219,
	str	x1, [sp, 136]	// tmp219, D.10358
	mov	x1, 0	// tmp219
// varargs-dll.c:358:   va_start (argv, name);
	add	x0, sp, 336	// tmp224,,
	str	x0, [sp, 104]	// tmp224, MEM[(struct  *)&argv].__stack
	add	x0, sp, 336	// tmp225,,
	str	x0, [sp, 112]	// tmp225, MEM[(struct  *)&argv].__gr_top
	add	x0, sp, 272	// tmp195,,
	str	x0, [sp, 120]	// tmp195, MEM[(struct  *)&argv].__vr_top
	mov	w0, -56	// tmp196,
	str	w0, [sp, 128]	// tmp196, MEM[(struct  *)&argv].__gr_offs
	mov	w0, -128	// tmp197,
	str	w0, [sp, 132]	// tmp197, MEM[(struct  *)&argv].__vr_offs
// varargs-dll.c:359:   double a = va_arg (argv, double);
	ldr	w1, [sp, 132]	// D.10196, argv.__vr_offs
	ldr	x0, [sp, 104]	// iftmp.367, argv.__stack
	cmp	w1, 0	// D.10196,
	blt	.L745		//,
	add	x1, x0, 15	// D.10201, iftmp.367,
	and	x1, x1, -8	// D.10202, D.10201,
	str	x1, [sp, 104]	// D.10202, argv.__stack
	b	.L746		//
.L745:
	add	w2, w1, 16	// D.10204, D.10196,
	str	w2, [sp, 132]	// D.10204, argv.__vr_offs
	ldr	w2, [sp, 132]	// D.10206, argv.__vr_offs
	cmp	w2, 0	// D.10206,
	ble	.L747		//,
	add	x1, x0, 15	// D.10209, iftmp.367,
	and	x1, x1, -8	// D.10210, D.10209,
	str	x1, [sp, 104]	// D.10210, argv.__stack
	b	.L746		//
.L747:
	ldr	x2, [sp, 120]	// D.10212, argv.__vr_top
	sxtw	x0, w1	// D.10213, D.10196
	add	x0, x2, x0	// iftmp.367, D.10212, D.10213
.L746:
	ldr	d0, [x0]	// tmp198, *iftmp.366_50
	str	d0, [sp, 32]	// tmp198, a
// varargs-dll.c:360:   double b = va_arg (argv, double);
	ldr	w1, [sp, 132]	// D.10214, argv.__vr_offs
	ldr	x0, [sp, 104]	// iftmp.369, argv.__stack
	cmp	w1, 0	// D.10214,
	blt	.L749		//,
	add	x1, x0, 15	// D.10219, iftmp.369,
	and	x1, x1, -8	// D.10220, D.10219,
	str	x1, [sp, 104]	// D.10220, argv.__stack
	b	.L750		//
.L749:
	add	w2, w1, 16	// D.10222, D.10214,
	str	w2, [sp, 132]	// D.10222, argv.__vr_offs
	ldr	w2, [sp, 132]	// D.10224, argv.__vr_offs
	cmp	w2, 0	// D.10224,
	ble	.L751		//,
	add	x1, x0, 15	// D.10227, iftmp.369,
	and	x1, x1, -8	// D.10228, D.10227,
	str	x1, [sp, 104]	// D.10228, argv.__stack
	b	.L750		//
.L751:
	ldr	x2, [sp, 120]	// D.10230, argv.__vr_top
	sxtw	x0, w1	// D.10231, D.10214
	add	x0, x2, x0	// iftmp.369, D.10230, D.10231
.L750:
	ldr	d0, [x0]	// tmp199, *iftmp.368_52
	str	d0, [sp, 40]	// tmp199, b
// varargs-dll.c:361:   double c = va_arg (argv, double);
	ldr	w1, [sp, 132]	// D.10232, argv.__vr_offs
	ldr	x0, [sp, 104]	// iftmp.371, argv.__stack
	cmp	w1, 0	// D.10232,
	blt	.L753		//,
	add	x1, x0, 15	// D.10237, iftmp.371,
	and	x1, x1, -8	// D.10238, D.10237,
	str	x1, [sp, 104]	// D.10238, argv.__stack
	b	.L754		//
.L753:
	add	w2, w1, 16	// D.10240, D.10232,
	str	w2, [sp, 132]	// D.10240, argv.__vr_offs
	ldr	w2, [sp, 132]	// D.10242, argv.__vr_offs
	cmp	w2, 0	// D.10242,
	ble	.L755		//,
	add	x1, x0, 15	// D.10245, iftmp.371,
	and	x1, x1, -8	// D.10246, D.10245,
	str	x1, [sp, 104]	// D.10246, argv.__stack
	b	.L754		//
.L755:
	ldr	x2, [sp, 120]	// D.10248, argv.__vr_top
	sxtw	x0, w1	// D.10249, D.10232
	add	x0, x2, x0	// iftmp.371, D.10248, D.10249
.L754:
	ldr	d0, [x0]	// tmp200, *iftmp.370_54
	str	d0, [sp, 48]	// tmp200, c
// varargs-dll.c:362:   double d = va_arg (argv, double);
	ldr	w1, [sp, 132]	// D.10250, argv.__vr_offs
	ldr	x0, [sp, 104]	// iftmp.373, argv.__stack
	cmp	w1, 0	// D.10250,
	blt	.L757		//,
	add	x1, x0, 15	// D.10255, iftmp.373,
	and	x1, x1, -8	// D.10256, D.10255,
	str	x1, [sp, 104]	// D.10256, argv.__stack
	b	.L758		//
.L757:
	add	w2, w1, 16	// D.10258, D.10250,
	str	w2, [sp, 132]	// D.10258, argv.__vr_offs
	ldr	w2, [sp, 132]	// D.10260, argv.__vr_offs
	cmp	w2, 0	// D.10260,
	ble	.L759		//,
	add	x1, x0, 15	// D.10263, iftmp.373,
	and	x1, x1, -8	// D.10264, D.10263,
	str	x1, [sp, 104]	// D.10264, argv.__stack
	b	.L758		//
.L759:
	ldr	x2, [sp, 120]	// D.10266, argv.__vr_top
	sxtw	x0, w1	// D.10267, D.10250
	add	x0, x2, x0	// iftmp.373, D.10266, D.10267
.L758:
	ldr	d0, [x0]	// tmp201, *iftmp.372_56
	str	d0, [sp, 56]	// tmp201, d
// varargs-dll.c:363:   double e = va_arg (argv, double);
	ldr	w1, [sp, 132]	// D.10268, argv.__vr_offs
	ldr	x0, [sp, 104]	// iftmp.375, argv.__stack
	cmp	w1, 0	// D.10268,
	blt	.L761		//,
	add	x1, x0, 15	// D.10273, iftmp.375,
	and	x1, x1, -8	// D.10274, D.10273,
	str	x1, [sp, 104]	// D.10274, argv.__stack
	b	.L762		//
.L761:
	add	w2, w1, 16	// D.10276, D.10268,
	str	w2, [sp, 132]	// D.10276, argv.__vr_offs
	ldr	w2, [sp, 132]	// D.10278, argv.__vr_offs
	cmp	w2, 0	// D.10278,
	ble	.L763		//,
	add	x1, x0, 15	// D.10281, iftmp.375,
	and	x1, x1, -8	// D.10282, D.10281,
	str	x1, [sp, 104]	// D.10282, argv.__stack
	b	.L762		//
.L763:
	ldr	x2, [sp, 120]	// D.10284, argv.__vr_top
	sxtw	x0, w1	// D.10285, D.10268
	add	x0, x2, x0	// iftmp.375, D.10284, D.10285
.L762:
	ldr	d0, [x0]	// tmp202, *iftmp.374_58
	str	d0, [sp, 64]	// tmp202, e
// varargs-dll.c:364:   double f = va_arg (argv, double);
	ldr	w1, [sp, 132]	// D.10286, argv.__vr_offs
	ldr	x0, [sp, 104]	// iftmp.377, argv.__stack
	cmp	w1, 0	// D.10286,
	blt	.L765		//,
	add	x1, x0, 15	// D.10291, iftmp.377,
	and	x1, x1, -8	// D.10292, D.10291,
	str	x1, [sp, 104]	// D.10292, argv.__stack
	b	.L766		//
.L765:
	add	w2, w1, 16	// D.10294, D.10286,
	str	w2, [sp, 132]	// D.10294, argv.__vr_offs
	ldr	w2, [sp, 132]	// D.10296, argv.__vr_offs
	cmp	w2, 0	// D.10296,
	ble	.L767		//,
	add	x1, x0, 15	// D.10299, iftmp.377,
	and	x1, x1, -8	// D.10300, D.10299,
	str	x1, [sp, 104]	// D.10300, argv.__stack
	b	.L766		//
.L767:
	ldr	x2, [sp, 120]	// D.10302, argv.__vr_top
	sxtw	x0, w1	// D.10303, D.10286
	add	x0, x2, x0	// iftmp.377, D.10302, D.10303
.L766:
	ldr	d0, [x0]	// tmp203, *iftmp.376_60
	str	d0, [sp, 72]	// tmp203, f
// varargs-dll.c:365:   double g = va_arg (argv, double);
	ldr	w1, [sp, 132]	// D.10304, argv.__vr_offs
	ldr	x0, [sp, 104]	// iftmp.379, argv.__stack
	cmp	w1, 0	// D.10304,
	blt	.L769		//,
	add	x1, x0, 15	// D.10309, iftmp.379,
	and	x1, x1, -8	// D.10310, D.10309,
	str	x1, [sp, 104]	// D.10310, argv.__stack
	b	.L770		//
.L769:
	add	w2, w1, 16	// D.10312, D.10304,
	str	w2, [sp, 132]	// D.10312, argv.__vr_offs
	ldr	w2, [sp, 132]	// D.10314, argv.__vr_offs
	cmp	w2, 0	// D.10314,
	ble	.L771		//,
	add	x1, x0, 15	// D.10317, iftmp.379,
	and	x1, x1, -8	// D.10318, D.10317,
	str	x1, [sp, 104]	// D.10318, argv.__stack
	b	.L770		//
.L771:
	ldr	x2, [sp, 120]	// D.10320, argv.__vr_top
	sxtw	x0, w1	// D.10321, D.10304
	add	x0, x2, x0	// iftmp.379, D.10320, D.10321
.L770:
	ldr	d0, [x0]	// tmp204, *iftmp.378_62
	str	d0, [sp, 80]	// tmp204, g
// varargs-dll.c:366:   double h = va_arg (argv, double);
	ldr	w1, [sp, 132]	// D.10322, argv.__vr_offs
	ldr	x0, [sp, 104]	// iftmp.381, argv.__stack
	cmp	w1, 0	// D.10322,
	blt	.L773		//,
	add	x1, x0, 15	// D.10327, iftmp.381,
	and	x1, x1, -8	// D.10328, D.10327,
	str	x1, [sp, 104]	// D.10328, argv.__stack
	b	.L774		//
.L773:
	add	w2, w1, 16	// D.10330, D.10322,
	str	w2, [sp, 132]	// D.10330, argv.__vr_offs
	ldr	w2, [sp, 132]	// D.10332, argv.__vr_offs
	cmp	w2, 0	// D.10332,
	ble	.L775		//,
	add	x1, x0, 15	// D.10335, iftmp.381,
	and	x1, x1, -8	// D.10336, D.10335,
	str	x1, [sp, 104]	// D.10336, argv.__stack
	b	.L774		//
.L775:
	ldr	x2, [sp, 120]	// D.10338, argv.__vr_top
	sxtw	x0, w1	// D.10339, D.10322
	add	x0, x2, x0	// iftmp.381, D.10338, D.10339
.L774:
	ldr	d0, [x0]	// tmp205, *iftmp.380_64
	str	d0, [sp, 88]	// tmp205, h
// varargs-dll.c:367:   double i = va_arg (argv, double);
	ldr	w1, [sp, 132]	// D.10340, argv.__vr_offs
	ldr	x0, [sp, 104]	// iftmp.383, argv.__stack
	cmp	w1, 0	// D.10340,
	blt	.L777		//,
	add	x1, x0, 15	// D.10345, iftmp.383,
	and	x1, x1, -8	// D.10346, D.10345,
	str	x1, [sp, 104]	// D.10346, argv.__stack
	b	.L778		//
.L777:
	add	w2, w1, 16	// D.10348, D.10340,
	str	w2, [sp, 132]	// D.10348, argv.__vr_offs
	ldr	w2, [sp, 132]	// D.10350, argv.__vr_offs
	cmp	w2, 0	// D.10350,
	ble	.L779		//,
	add	x1, x0, 15	// D.10353, iftmp.383,
	and	x1, x1, -8	// D.10354, D.10353,
	str	x1, [sp, 104]	// D.10354, argv.__stack
	b	.L778		//
.L779:
	ldr	x2, [sp, 120]	// D.10356, argv.__vr_top
	sxtw	x0, w1	// D.10357, D.10340
	add	x0, x2, x0	// iftmp.383, D.10356, D.10357
.L778:
	ldr	d0, [x0]	// tmp206, *iftmp.382_66
	str	d0, [sp, 96]	// tmp206, i
// varargs-dll.c:369:   return a + b + c + d + e + f + g + h + i;
	ldr	d1, [sp, 32]	// tmp207, a
	ldr	d0, [sp, 40]	// tmp208, b
	fadd	d1, d1, d0	// _1, tmp207, tmp208
// varargs-dll.c:369:   return a + b + c + d + e + f + g + h + i;
	ldr	d0, [sp, 48]	// tmp209, c
	fadd	d1, d1, d0	// _2, _1, tmp209
// varargs-dll.c:369:   return a + b + c + d + e + f + g + h + i;
	ldr	d0, [sp, 56]	// tmp210, d
	fadd	d1, d1, d0	// _3, _2, tmp210
// varargs-dll.c:369:   return a + b + c + d + e + f + g + h + i;
	ldr	d0, [sp, 64]	// tmp211, e
	fadd	d1, d1, d0	// _4, _3, tmp211
// varargs-dll.c:369:   return a + b + c + d + e + f + g + h + i;
	ldr	d0, [sp, 72]	// tmp212, f
	fadd	d1, d1, d0	// _5, _4, tmp212
// varargs-dll.c:369:   return a + b + c + d + e + f + g + h + i;
	ldr	d0, [sp, 80]	// tmp213, g
	fadd	d1, d1, d0	// _6, _5, tmp213
// varargs-dll.c:369:   return a + b + c + d + e + f + g + h + i;
	ldr	d0, [sp, 88]	// tmp214, h
	fadd	d1, d1, d0	// _7, _6, tmp214
// varargs-dll.c:369:   return a + b + c + d + e + f + g + h + i;
	ldr	d0, [sp, 96]	// tmp215, i
	fadd	d0, d1, d0	// _8, _7, tmp215
	fcvtzs	w0, d0	// _30, _8
	mov	w1, w0	// <retval>, _30
// varargs-dll.c:370: }
	adrp	x0, :got:__stack_chk_guard	// tmp218,
	ldr	x0, [x0, #:got_lo12:__stack_chk_guard]	// tmp217, tmp218,
	ldr	x3, [sp, 136]	// tmp220, D.10358
	ldr	x2, [x0]	// tmp221,
	subs	x3, x3, x2	// tmp220, tmp221
	mov	x2, 0	// tmp221
	beq	.L782		//,
	bl	__stack_chk_fail		//
.L782:
	mov	w0, w1	//, <retval>
	ldp	x29, x30, [sp], 336	//,,,
	.cfi_restore 30
	.cfi_restore 29
	.cfi_def_cfa_offset 0
	ret	
	.cfi_endproc
.LFE28:
	.size	use_va_args_several_floats, .-use_va_args_several_floats
	.align	2
	.global	use_va_list_several_floats
	.type	use_va_list_several_floats, %function
use_va_list_several_floats:
.LFB29:
	.cfi_startproc
	str	x19, [sp, -112]!	//,
	.cfi_def_cfa_offset 112
	.cfi_offset 19, -112
	str	x0, [sp, 24]	// name, name
	mov	x19, x1	// tmp192,
// varargs-dll.c:376:   double a = va_arg (argv, double);
	ldr	w1, [x19, 28]	// D.10362, argv.__vr_offs
	ldr	x0, [x19]	// iftmp.385, argv.__stack
	cmp	w1, 0	// D.10362,
	blt	.L784		//,
	add	x1, x0, 15	// D.10367, iftmp.385,
	and	x1, x1, -8	// D.10368, D.10367,
	str	x1, [x19]	// D.10368, argv.__stack
	b	.L785		//
.L784:
	add	w2, w1, 16	// D.10370, D.10362,
	str	w2, [x19, 28]	// D.10370, argv.__vr_offs
	ldr	w2, [x19, 28]	// D.10372, argv.__vr_offs
	cmp	w2, 0	// D.10372,
	ble	.L786		//,
	add	x1, x0, 15	// D.10375, iftmp.385,
	and	x1, x1, -8	// D.10376, D.10375,
	str	x1, [x19]	// D.10376, argv.__stack
	b	.L785		//
.L786:
	ldr	x2, [x19, 16]	// D.10378, argv.__vr_top
	sxtw	x0, w1	// D.10379, D.10362
	add	x0, x2, x0	// iftmp.385, D.10378, D.10379
.L785:
	ldr	d0, [x0]	// tmp193, *iftmp.384_47
	str	d0, [sp, 40]	// tmp193, a
// varargs-dll.c:377:   double b = va_arg (argv, double);
	ldr	w1, [x19, 28]	// D.10380, argv.__vr_offs
	ldr	x0, [x19]	// iftmp.387, argv.__stack
	cmp	w1, 0	// D.10380,
	blt	.L788		//,
	add	x1, x0, 15	// D.10385, iftmp.387,
	and	x1, x1, -8	// D.10386, D.10385,
	str	x1, [x19]	// D.10386, argv.__stack
	b	.L789		//
.L788:
	add	w2, w1, 16	// D.10388, D.10380,
	str	w2, [x19, 28]	// D.10388, argv.__vr_offs
	ldr	w2, [x19, 28]	// D.10390, argv.__vr_offs
	cmp	w2, 0	// D.10390,
	ble	.L790		//,
	add	x1, x0, 15	// D.10393, iftmp.387,
	and	x1, x1, -8	// D.10394, D.10393,
	str	x1, [x19]	// D.10394, argv.__stack
	b	.L789		//
.L790:
	ldr	x2, [x19, 16]	// D.10396, argv.__vr_top
	sxtw	x0, w1	// D.10397, D.10380
	add	x0, x2, x0	// iftmp.387, D.10396, D.10397
.L789:
	ldr	d0, [x0]	// tmp194, *iftmp.386_49
	str	d0, [sp, 48]	// tmp194, b
// varargs-dll.c:378:   double c = va_arg (argv, double);
	ldr	w1, [x19, 28]	// D.10398, argv.__vr_offs
	ldr	x0, [x19]	// iftmp.389, argv.__stack
	cmp	w1, 0	// D.10398,
	blt	.L792		//,
	add	x1, x0, 15	// D.10403, iftmp.389,
	and	x1, x1, -8	// D.10404, D.10403,
	str	x1, [x19]	// D.10404, argv.__stack
	b	.L793		//
.L792:
	add	w2, w1, 16	// D.10406, D.10398,
	str	w2, [x19, 28]	// D.10406, argv.__vr_offs
	ldr	w2, [x19, 28]	// D.10408, argv.__vr_offs
	cmp	w2, 0	// D.10408,
	ble	.L794		//,
	add	x1, x0, 15	// D.10411, iftmp.389,
	and	x1, x1, -8	// D.10412, D.10411,
	str	x1, [x19]	// D.10412, argv.__stack
	b	.L793		//
.L794:
	ldr	x2, [x19, 16]	// D.10414, argv.__vr_top
	sxtw	x0, w1	// D.10415, D.10398
	add	x0, x2, x0	// iftmp.389, D.10414, D.10415
.L793:
	ldr	d0, [x0]	// tmp195, *iftmp.388_51
	str	d0, [sp, 56]	// tmp195, c
// varargs-dll.c:379:   double d = va_arg (argv, double);
	ldr	w1, [x19, 28]	// D.10416, argv.__vr_offs
	ldr	x0, [x19]	// iftmp.391, argv.__stack
	cmp	w1, 0	// D.10416,
	blt	.L796		//,
	add	x1, x0, 15	// D.10421, iftmp.391,
	and	x1, x1, -8	// D.10422, D.10421,
	str	x1, [x19]	// D.10422, argv.__stack
	b	.L797		//
.L796:
	add	w2, w1, 16	// D.10424, D.10416,
	str	w2, [x19, 28]	// D.10424, argv.__vr_offs
	ldr	w2, [x19, 28]	// D.10426, argv.__vr_offs
	cmp	w2, 0	// D.10426,
	ble	.L798		//,
	add	x1, x0, 15	// D.10429, iftmp.391,
	and	x1, x1, -8	// D.10430, D.10429,
	str	x1, [x19]	// D.10430, argv.__stack
	b	.L797		//
.L798:
	ldr	x2, [x19, 16]	// D.10432, argv.__vr_top
	sxtw	x0, w1	// D.10433, D.10416
	add	x0, x2, x0	// iftmp.391, D.10432, D.10433
.L797:
	ldr	d0, [x0]	// tmp196, *iftmp.390_53
	str	d0, [sp, 64]	// tmp196, d
// varargs-dll.c:380:   double e = va_arg (argv, double);
	ldr	w1, [x19, 28]	// D.10434, argv.__vr_offs
	ldr	x0, [x19]	// iftmp.393, argv.__stack
	cmp	w1, 0	// D.10434,
	blt	.L800		//,
	add	x1, x0, 15	// D.10439, iftmp.393,
	and	x1, x1, -8	// D.10440, D.10439,
	str	x1, [x19]	// D.10440, argv.__stack
	b	.L801		//
.L800:
	add	w2, w1, 16	// D.10442, D.10434,
	str	w2, [x19, 28]	// D.10442, argv.__vr_offs
	ldr	w2, [x19, 28]	// D.10444, argv.__vr_offs
	cmp	w2, 0	// D.10444,
	ble	.L802		//,
	add	x1, x0, 15	// D.10447, iftmp.393,
	and	x1, x1, -8	// D.10448, D.10447,
	str	x1, [x19]	// D.10448, argv.__stack
	b	.L801		//
.L802:
	ldr	x2, [x19, 16]	// D.10450, argv.__vr_top
	sxtw	x0, w1	// D.10451, D.10434
	add	x0, x2, x0	// iftmp.393, D.10450, D.10451
.L801:
	ldr	d0, [x0]	// tmp197, *iftmp.392_55
	str	d0, [sp, 72]	// tmp197, e
// varargs-dll.c:381:   double f = va_arg (argv, double);
	ldr	w1, [x19, 28]	// D.10452, argv.__vr_offs
	ldr	x0, [x19]	// iftmp.395, argv.__stack
	cmp	w1, 0	// D.10452,
	blt	.L804		//,
	add	x1, x0, 15	// D.10457, iftmp.395,
	and	x1, x1, -8	// D.10458, D.10457,
	str	x1, [x19]	// D.10458, argv.__stack
	b	.L805		//
.L804:
	add	w2, w1, 16	// D.10460, D.10452,
	str	w2, [x19, 28]	// D.10460, argv.__vr_offs
	ldr	w2, [x19, 28]	// D.10462, argv.__vr_offs
	cmp	w2, 0	// D.10462,
	ble	.L806		//,
	add	x1, x0, 15	// D.10465, iftmp.395,
	and	x1, x1, -8	// D.10466, D.10465,
	str	x1, [x19]	// D.10466, argv.__stack
	b	.L805		//
.L806:
	ldr	x2, [x19, 16]	// D.10468, argv.__vr_top
	sxtw	x0, w1	// D.10469, D.10452
	add	x0, x2, x0	// iftmp.395, D.10468, D.10469
.L805:
	ldr	d0, [x0]	// tmp198, *iftmp.394_57
	str	d0, [sp, 80]	// tmp198, f
// varargs-dll.c:382:   double g = va_arg (argv, double);
	ldr	w1, [x19, 28]	// D.10470, argv.__vr_offs
	ldr	x0, [x19]	// iftmp.397, argv.__stack
	cmp	w1, 0	// D.10470,
	blt	.L808		//,
	add	x1, x0, 15	// D.10475, iftmp.397,
	and	x1, x1, -8	// D.10476, D.10475,
	str	x1, [x19]	// D.10476, argv.__stack
	b	.L809		//
.L808:
	add	w2, w1, 16	// D.10478, D.10470,
	str	w2, [x19, 28]	// D.10478, argv.__vr_offs
	ldr	w2, [x19, 28]	// D.10480, argv.__vr_offs
	cmp	w2, 0	// D.10480,
	ble	.L810		//,
	add	x1, x0, 15	// D.10483, iftmp.397,
	and	x1, x1, -8	// D.10484, D.10483,
	str	x1, [x19]	// D.10484, argv.__stack
	b	.L809		//
.L810:
	ldr	x2, [x19, 16]	// D.10486, argv.__vr_top
	sxtw	x0, w1	// D.10487, D.10470
	add	x0, x2, x0	// iftmp.397, D.10486, D.10487
.L809:
	ldr	d0, [x0]	// tmp199, *iftmp.396_59
	str	d0, [sp, 88]	// tmp199, g
// varargs-dll.c:383:   double h = va_arg (argv, double);
	ldr	w1, [x19, 28]	// D.10488, argv.__vr_offs
	ldr	x0, [x19]	// iftmp.399, argv.__stack
	cmp	w1, 0	// D.10488,
	blt	.L812		//,
	add	x1, x0, 15	// D.10493, iftmp.399,
	and	x1, x1, -8	// D.10494, D.10493,
	str	x1, [x19]	// D.10494, argv.__stack
	b	.L813		//
.L812:
	add	w2, w1, 16	// D.10496, D.10488,
	str	w2, [x19, 28]	// D.10496, argv.__vr_offs
	ldr	w2, [x19, 28]	// D.10498, argv.__vr_offs
	cmp	w2, 0	// D.10498,
	ble	.L814		//,
	add	x1, x0, 15	// D.10501, iftmp.399,
	and	x1, x1, -8	// D.10502, D.10501,
	str	x1, [x19]	// D.10502, argv.__stack
	b	.L813		//
.L814:
	ldr	x2, [x19, 16]	// D.10504, argv.__vr_top
	sxtw	x0, w1	// D.10505, D.10488
	add	x0, x2, x0	// iftmp.399, D.10504, D.10505
.L813:
	ldr	d0, [x0]	// tmp200, *iftmp.398_61
	str	d0, [sp, 96]	// tmp200, h
// varargs-dll.c:384:   double i = va_arg (argv, double);
	ldr	w1, [x19, 28]	// D.10506, argv.__vr_offs
	ldr	x0, [x19]	// iftmp.401, argv.__stack
	cmp	w1, 0	// D.10506,
	blt	.L816		//,
	add	x1, x0, 15	// D.10511, iftmp.401,
	and	x1, x1, -8	// D.10512, D.10511,
	str	x1, [x19]	// D.10512, argv.__stack
	b	.L817		//
.L816:
	add	w2, w1, 16	// D.10514, D.10506,
	str	w2, [x19, 28]	// D.10514, argv.__vr_offs
	ldr	w2, [x19, 28]	// D.10516, argv.__vr_offs
	cmp	w2, 0	// D.10516,
	ble	.L818		//,
	add	x1, x0, 15	// D.10519, iftmp.401,
	and	x1, x1, -8	// D.10520, D.10519,
	str	x1, [x19]	// D.10520, argv.__stack
	b	.L817		//
.L818:
	ldr	x2, [x19, 16]	// D.10522, argv.__vr_top
	sxtw	x0, w1	// D.10523, D.10506
	add	x0, x2, x0	// iftmp.401, D.10522, D.10523
.L817:
	ldr	d0, [x0]	// tmp201, *iftmp.400_63
	str	d0, [sp, 104]	// tmp201, i
// varargs-dll.c:385:   return a + b + c + d + e + f + g + h + i;
	ldr	d1, [sp, 40]	// tmp202, a
	ldr	d0, [sp, 48]	// tmp203, b
	fadd	d1, d1, d0	// _1, tmp202, tmp203
// varargs-dll.c:385:   return a + b + c + d + e + f + g + h + i;
	ldr	d0, [sp, 56]	// tmp204, c
	fadd	d1, d1, d0	// _2, _1, tmp204
// varargs-dll.c:385:   return a + b + c + d + e + f + g + h + i;
	ldr	d0, [sp, 64]	// tmp205, d
	fadd	d1, d1, d0	// _3, _2, tmp205
// varargs-dll.c:385:   return a + b + c + d + e + f + g + h + i;
	ldr	d0, [sp, 72]	// tmp206, e
	fadd	d1, d1, d0	// _4, _3, tmp206
// varargs-dll.c:385:   return a + b + c + d + e + f + g + h + i;
	ldr	d0, [sp, 80]	// tmp207, f
	fadd	d1, d1, d0	// _5, _4, tmp207
// varargs-dll.c:385:   return a + b + c + d + e + f + g + h + i;
	ldr	d0, [sp, 88]	// tmp208, g
	fadd	d1, d1, d0	// _6, _5, tmp208
// varargs-dll.c:385:   return a + b + c + d + e + f + g + h + i;
	ldr	d0, [sp, 96]	// tmp209, h
	fadd	d1, d1, d0	// _7, _6, tmp209
// varargs-dll.c:385:   return a + b + c + d + e + f + g + h + i;
	ldr	d0, [sp, 104]	// tmp210, i
	fadd	d0, d1, d0	// _8, _7, tmp210
	fcvtzs	w0, d0	// _28, _8
// varargs-dll.c:386: }
	ldr	x19, [sp], 112	//,
	.cfi_restore 19
	.cfi_def_cfa_offset 0
	ret	
	.cfi_endproc
.LFE29:
	.size	use_va_list_several_floats, .-use_va_list_several_floats
	.align	2
	.global	use_va_args_many_floats
	.type	use_va_args_many_floats, %function
use_va_args_many_floats:
.LFB30:
	.cfi_startproc
	stp	x29, x30, [sp, -400]!	//,,,
	.cfi_def_cfa_offset 400
	.cfi_offset 29, -400
	.cfi_offset 30, -392
	mov	x29, sp	//,
	str	x0, [sp, 24]	// name, name
	str	x1, [sp, 344]	//,
	str	x2, [sp, 352]	//,
	str	x3, [sp, 360]	//,
	str	x4, [sp, 368]	//,
	str	x5, [sp, 376]	//,
	str	x6, [sp, 384]	//,
	str	x7, [sp, 392]	//,
	str	q0, [sp, 208]	//,
	str	q1, [sp, 224]	//,
	str	q2, [sp, 240]	//,
	str	q3, [sp, 256]	//,
	str	q4, [sp, 272]	//,
	str	q5, [sp, 288]	//,
	str	q6, [sp, 304]	//,
	str	q7, [sp, 320]	//,
// varargs-dll.c:390: {
	adrp	x0, :got:__stack_chk_guard	// tmp281,
	ldr	x0, [x0, #:got_lo12:__stack_chk_guard]	// tmp280, tmp281,
	ldr	x1, [x0]	// tmp323,
	str	x1, [sp, 200]	// tmp323, D.10830
	mov	x1, 0	// tmp323
// varargs-dll.c:393:   va_start (argv, name);
	add	x0, sp, 400	// tmp328,,
	str	x0, [sp, 168]	// tmp328, MEM[(struct  *)&argv].__stack
	add	x0, sp, 400	// tmp329,,
	str	x0, [sp, 176]	// tmp329, MEM[(struct  *)&argv].__gr_top
	add	x0, sp, 336	// tmp283,,
	str	x0, [sp, 184]	// tmp283, MEM[(struct  *)&argv].__vr_top
	mov	w0, -56	// tmp284,
	str	w0, [sp, 192]	// tmp284, MEM[(struct  *)&argv].__gr_offs
	mov	w0, -128	// tmp285,
	str	w0, [sp, 196]	// tmp285, MEM[(struct  *)&argv].__vr_offs
// varargs-dll.c:394:   double a = va_arg (argv, double);
	ldr	w1, [sp, 196]	// D.10524, argv.__vr_offs
	ldr	x0, [sp, 168]	// iftmp.403, argv.__stack
	cmp	w1, 0	// D.10524,
	blt	.L822		//,
	add	x1, x0, 15	// D.10529, iftmp.403,
	and	x1, x1, -8	// D.10530, D.10529,
	str	x1, [sp, 168]	// D.10530, argv.__stack
	b	.L823		//
.L822:
	add	w2, w1, 16	// D.10532, D.10524,
	str	w2, [sp, 196]	// D.10532, argv.__vr_offs
	ldr	w2, [sp, 196]	// D.10534, argv.__vr_offs
	cmp	w2, 0	// D.10534,
	ble	.L824		//,
	add	x1, x0, 15	// D.10537, iftmp.403,
	and	x1, x1, -8	// D.10538, D.10537,
	str	x1, [sp, 168]	// D.10538, argv.__stack
	b	.L823		//
.L824:
	ldr	x2, [sp, 184]	// D.10540, argv.__vr_top
	sxtw	x0, w1	// D.10541, D.10524
	add	x0, x2, x0	// iftmp.403, D.10540, D.10541
.L823:
	ldr	d0, [x0]	// tmp286, *iftmp.402_90
	str	d0, [sp, 32]	// tmp286, a
// varargs-dll.c:395:   double b = va_arg (argv, double);
	ldr	w1, [sp, 196]	// D.10542, argv.__vr_offs
	ldr	x0, [sp, 168]	// iftmp.405, argv.__stack
	cmp	w1, 0	// D.10542,
	blt	.L826		//,
	add	x1, x0, 15	// D.10547, iftmp.405,
	and	x1, x1, -8	// D.10548, D.10547,
	str	x1, [sp, 168]	// D.10548, argv.__stack
	b	.L827		//
.L826:
	add	w2, w1, 16	// D.10550, D.10542,
	str	w2, [sp, 196]	// D.10550, argv.__vr_offs
	ldr	w2, [sp, 196]	// D.10552, argv.__vr_offs
	cmp	w2, 0	// D.10552,
	ble	.L828		//,
	add	x1, x0, 15	// D.10555, iftmp.405,
	and	x1, x1, -8	// D.10556, D.10555,
	str	x1, [sp, 168]	// D.10556, argv.__stack
	b	.L827		//
.L828:
	ldr	x2, [sp, 184]	// D.10558, argv.__vr_top
	sxtw	x0, w1	// D.10559, D.10542
	add	x0, x2, x0	// iftmp.405, D.10558, D.10559
.L827:
	ldr	d0, [x0]	// tmp287, *iftmp.404_92
	str	d0, [sp, 40]	// tmp287, b
// varargs-dll.c:396:   double c = va_arg (argv, double);
	ldr	w1, [sp, 196]	// D.10560, argv.__vr_offs
	ldr	x0, [sp, 168]	// iftmp.407, argv.__stack
	cmp	w1, 0	// D.10560,
	blt	.L830		//,
	add	x1, x0, 15	// D.10565, iftmp.407,
	and	x1, x1, -8	// D.10566, D.10565,
	str	x1, [sp, 168]	// D.10566, argv.__stack
	b	.L831		//
.L830:
	add	w2, w1, 16	// D.10568, D.10560,
	str	w2, [sp, 196]	// D.10568, argv.__vr_offs
	ldr	w2, [sp, 196]	// D.10570, argv.__vr_offs
	cmp	w2, 0	// D.10570,
	ble	.L832		//,
	add	x1, x0, 15	// D.10573, iftmp.407,
	and	x1, x1, -8	// D.10574, D.10573,
	str	x1, [sp, 168]	// D.10574, argv.__stack
	b	.L831		//
.L832:
	ldr	x2, [sp, 184]	// D.10576, argv.__vr_top
	sxtw	x0, w1	// D.10577, D.10560
	add	x0, x2, x0	// iftmp.407, D.10576, D.10577
.L831:
	ldr	d0, [x0]	// tmp288, *iftmp.406_94
	str	d0, [sp, 48]	// tmp288, c
// varargs-dll.c:397:   double d = va_arg (argv, double);
	ldr	w1, [sp, 196]	// D.10578, argv.__vr_offs
	ldr	x0, [sp, 168]	// iftmp.409, argv.__stack
	cmp	w1, 0	// D.10578,
	blt	.L834		//,
	add	x1, x0, 15	// D.10583, iftmp.409,
	and	x1, x1, -8	// D.10584, D.10583,
	str	x1, [sp, 168]	// D.10584, argv.__stack
	b	.L835		//
.L834:
	add	w2, w1, 16	// D.10586, D.10578,
	str	w2, [sp, 196]	// D.10586, argv.__vr_offs
	ldr	w2, [sp, 196]	// D.10588, argv.__vr_offs
	cmp	w2, 0	// D.10588,
	ble	.L836		//,
	add	x1, x0, 15	// D.10591, iftmp.409,
	and	x1, x1, -8	// D.10592, D.10591,
	str	x1, [sp, 168]	// D.10592, argv.__stack
	b	.L835		//
.L836:
	ldr	x2, [sp, 184]	// D.10594, argv.__vr_top
	sxtw	x0, w1	// D.10595, D.10578
	add	x0, x2, x0	// iftmp.409, D.10594, D.10595
.L835:
	ldr	d0, [x0]	// tmp289, *iftmp.408_96
	str	d0, [sp, 56]	// tmp289, d
// varargs-dll.c:398:   double e = va_arg (argv, double);
	ldr	w1, [sp, 196]	// D.10596, argv.__vr_offs
	ldr	x0, [sp, 168]	// iftmp.411, argv.__stack
	cmp	w1, 0	// D.10596,
	blt	.L838		//,
	add	x1, x0, 15	// D.10601, iftmp.411,
	and	x1, x1, -8	// D.10602, D.10601,
	str	x1, [sp, 168]	// D.10602, argv.__stack
	b	.L839		//
.L838:
	add	w2, w1, 16	// D.10604, D.10596,
	str	w2, [sp, 196]	// D.10604, argv.__vr_offs
	ldr	w2, [sp, 196]	// D.10606, argv.__vr_offs
	cmp	w2, 0	// D.10606,
	ble	.L840		//,
	add	x1, x0, 15	// D.10609, iftmp.411,
	and	x1, x1, -8	// D.10610, D.10609,
	str	x1, [sp, 168]	// D.10610, argv.__stack
	b	.L839		//
.L840:
	ldr	x2, [sp, 184]	// D.10612, argv.__vr_top
	sxtw	x0, w1	// D.10613, D.10596
	add	x0, x2, x0	// iftmp.411, D.10612, D.10613
.L839:
	ldr	d0, [x0]	// tmp290, *iftmp.410_98
	str	d0, [sp, 64]	// tmp290, e
// varargs-dll.c:399:   double f = va_arg (argv, double);
	ldr	w1, [sp, 196]	// D.10614, argv.__vr_offs
	ldr	x0, [sp, 168]	// iftmp.413, argv.__stack
	cmp	w1, 0	// D.10614,
	blt	.L842		//,
	add	x1, x0, 15	// D.10619, iftmp.413,
	and	x1, x1, -8	// D.10620, D.10619,
	str	x1, [sp, 168]	// D.10620, argv.__stack
	b	.L843		//
.L842:
	add	w2, w1, 16	// D.10622, D.10614,
	str	w2, [sp, 196]	// D.10622, argv.__vr_offs
	ldr	w2, [sp, 196]	// D.10624, argv.__vr_offs
	cmp	w2, 0	// D.10624,
	ble	.L844		//,
	add	x1, x0, 15	// D.10627, iftmp.413,
	and	x1, x1, -8	// D.10628, D.10627,
	str	x1, [sp, 168]	// D.10628, argv.__stack
	b	.L843		//
.L844:
	ldr	x2, [sp, 184]	// D.10630, argv.__vr_top
	sxtw	x0, w1	// D.10631, D.10614
	add	x0, x2, x0	// iftmp.413, D.10630, D.10631
.L843:
	ldr	d0, [x0]	// tmp291, *iftmp.412_100
	str	d0, [sp, 72]	// tmp291, f
// varargs-dll.c:400:   double g = va_arg (argv, double);
	ldr	w1, [sp, 196]	// D.10632, argv.__vr_offs
	ldr	x0, [sp, 168]	// iftmp.415, argv.__stack
	cmp	w1, 0	// D.10632,
	blt	.L846		//,
	add	x1, x0, 15	// D.10637, iftmp.415,
	and	x1, x1, -8	// D.10638, D.10637,
	str	x1, [sp, 168]	// D.10638, argv.__stack
	b	.L847		//
.L846:
	add	w2, w1, 16	// D.10640, D.10632,
	str	w2, [sp, 196]	// D.10640, argv.__vr_offs
	ldr	w2, [sp, 196]	// D.10642, argv.__vr_offs
	cmp	w2, 0	// D.10642,
	ble	.L848		//,
	add	x1, x0, 15	// D.10645, iftmp.415,
	and	x1, x1, -8	// D.10646, D.10645,
	str	x1, [sp, 168]	// D.10646, argv.__stack
	b	.L847		//
.L848:
	ldr	x2, [sp, 184]	// D.10648, argv.__vr_top
	sxtw	x0, w1	// D.10649, D.10632
	add	x0, x2, x0	// iftmp.415, D.10648, D.10649
.L847:
	ldr	d0, [x0]	// tmp292, *iftmp.414_102
	str	d0, [sp, 80]	// tmp292, g
// varargs-dll.c:401:   double h = va_arg (argv, double);
	ldr	w1, [sp, 196]	// D.10650, argv.__vr_offs
	ldr	x0, [sp, 168]	// iftmp.417, argv.__stack
	cmp	w1, 0	// D.10650,
	blt	.L850		//,
	add	x1, x0, 15	// D.10655, iftmp.417,
	and	x1, x1, -8	// D.10656, D.10655,
	str	x1, [sp, 168]	// D.10656, argv.__stack
	b	.L851		//
.L850:
	add	w2, w1, 16	// D.10658, D.10650,
	str	w2, [sp, 196]	// D.10658, argv.__vr_offs
	ldr	w2, [sp, 196]	// D.10660, argv.__vr_offs
	cmp	w2, 0	// D.10660,
	ble	.L852		//,
	add	x1, x0, 15	// D.10663, iftmp.417,
	and	x1, x1, -8	// D.10664, D.10663,
	str	x1, [sp, 168]	// D.10664, argv.__stack
	b	.L851		//
.L852:
	ldr	x2, [sp, 184]	// D.10666, argv.__vr_top
	sxtw	x0, w1	// D.10667, D.10650
	add	x0, x2, x0	// iftmp.417, D.10666, D.10667
.L851:
	ldr	d0, [x0]	// tmp293, *iftmp.416_104
	str	d0, [sp, 88]	// tmp293, h
// varargs-dll.c:402:   double i = va_arg (argv, double);
	ldr	w1, [sp, 196]	// D.10668, argv.__vr_offs
	ldr	x0, [sp, 168]	// iftmp.419, argv.__stack
	cmp	w1, 0	// D.10668,
	blt	.L854		//,
	add	x1, x0, 15	// D.10673, iftmp.419,
	and	x1, x1, -8	// D.10674, D.10673,
	str	x1, [sp, 168]	// D.10674, argv.__stack
	b	.L855		//
.L854:
	add	w2, w1, 16	// D.10676, D.10668,
	str	w2, [sp, 196]	// D.10676, argv.__vr_offs
	ldr	w2, [sp, 196]	// D.10678, argv.__vr_offs
	cmp	w2, 0	// D.10678,
	ble	.L856		//,
	add	x1, x0, 15	// D.10681, iftmp.419,
	and	x1, x1, -8	// D.10682, D.10681,
	str	x1, [sp, 168]	// D.10682, argv.__stack
	b	.L855		//
.L856:
	ldr	x2, [sp, 184]	// D.10684, argv.__vr_top
	sxtw	x0, w1	// D.10685, D.10668
	add	x0, x2, x0	// iftmp.419, D.10684, D.10685
.L855:
	ldr	d0, [x0]	// tmp294, *iftmp.418_106
	str	d0, [sp, 96]	// tmp294, i
// varargs-dll.c:403:   double j = va_arg (argv, double);
	ldr	w1, [sp, 196]	// D.10686, argv.__vr_offs
	ldr	x0, [sp, 168]	// iftmp.421, argv.__stack
	cmp	w1, 0	// D.10686,
	blt	.L858		//,
	add	x1, x0, 15	// D.10691, iftmp.421,
	and	x1, x1, -8	// D.10692, D.10691,
	str	x1, [sp, 168]	// D.10692, argv.__stack
	b	.L859		//
.L858:
	add	w2, w1, 16	// D.10694, D.10686,
	str	w2, [sp, 196]	// D.10694, argv.__vr_offs
	ldr	w2, [sp, 196]	// D.10696, argv.__vr_offs
	cmp	w2, 0	// D.10696,
	ble	.L860		//,
	add	x1, x0, 15	// D.10699, iftmp.421,
	and	x1, x1, -8	// D.10700, D.10699,
	str	x1, [sp, 168]	// D.10700, argv.__stack
	b	.L859		//
.L860:
	ldr	x2, [sp, 184]	// D.10702, argv.__vr_top
	sxtw	x0, w1	// D.10703, D.10686
	add	x0, x2, x0	// iftmp.421, D.10702, D.10703
.L859:
	ldr	d0, [x0]	// tmp295, *iftmp.420_108
	str	d0, [sp, 104]	// tmp295, j
// varargs-dll.c:404:   double k = va_arg (argv, double);
	ldr	w1, [sp, 196]	// D.10704, argv.__vr_offs
	ldr	x0, [sp, 168]	// iftmp.423, argv.__stack
	cmp	w1, 0	// D.10704,
	blt	.L862		//,
	add	x1, x0, 15	// D.10709, iftmp.423,
	and	x1, x1, -8	// D.10710, D.10709,
	str	x1, [sp, 168]	// D.10710, argv.__stack
	b	.L863		//
.L862:
	add	w2, w1, 16	// D.10712, D.10704,
	str	w2, [sp, 196]	// D.10712, argv.__vr_offs
	ldr	w2, [sp, 196]	// D.10714, argv.__vr_offs
	cmp	w2, 0	// D.10714,
	ble	.L864		//,
	add	x1, x0, 15	// D.10717, iftmp.423,
	and	x1, x1, -8	// D.10718, D.10717,
	str	x1, [sp, 168]	// D.10718, argv.__stack
	b	.L863		//
.L864:
	ldr	x2, [sp, 184]	// D.10720, argv.__vr_top
	sxtw	x0, w1	// D.10721, D.10704
	add	x0, x2, x0	// iftmp.423, D.10720, D.10721
.L863:
	ldr	d0, [x0]	// tmp296, *iftmp.422_110
	str	d0, [sp, 112]	// tmp296, k
// varargs-dll.c:405:   double l = va_arg (argv, double);
	ldr	w1, [sp, 196]	// D.10722, argv.__vr_offs
	ldr	x0, [sp, 168]	// iftmp.425, argv.__stack
	cmp	w1, 0	// D.10722,
	blt	.L866		//,
	add	x1, x0, 15	// D.10727, iftmp.425,
	and	x1, x1, -8	// D.10728, D.10727,
	str	x1, [sp, 168]	// D.10728, argv.__stack
	b	.L867		//
.L866:
	add	w2, w1, 16	// D.10730, D.10722,
	str	w2, [sp, 196]	// D.10730, argv.__vr_offs
	ldr	w2, [sp, 196]	// D.10732, argv.__vr_offs
	cmp	w2, 0	// D.10732,
	ble	.L868		//,
	add	x1, x0, 15	// D.10735, iftmp.425,
	and	x1, x1, -8	// D.10736, D.10735,
	str	x1, [sp, 168]	// D.10736, argv.__stack
	b	.L867		//
.L868:
	ldr	x2, [sp, 184]	// D.10738, argv.__vr_top
	sxtw	x0, w1	// D.10739, D.10722
	add	x0, x2, x0	// iftmp.425, D.10738, D.10739
.L867:
	ldr	d0, [x0]	// tmp297, *iftmp.424_112
	str	d0, [sp, 120]	// tmp297, l
// varargs-dll.c:406:   double m = va_arg (argv, double);
	ldr	w1, [sp, 196]	// D.10740, argv.__vr_offs
	ldr	x0, [sp, 168]	// iftmp.427, argv.__stack
	cmp	w1, 0	// D.10740,
	blt	.L870		//,
	add	x1, x0, 15	// D.10745, iftmp.427,
	and	x1, x1, -8	// D.10746, D.10745,
	str	x1, [sp, 168]	// D.10746, argv.__stack
	b	.L871		//
.L870:
	add	w2, w1, 16	// D.10748, D.10740,
	str	w2, [sp, 196]	// D.10748, argv.__vr_offs
	ldr	w2, [sp, 196]	// D.10750, argv.__vr_offs
	cmp	w2, 0	// D.10750,
	ble	.L872		//,
	add	x1, x0, 15	// D.10753, iftmp.427,
	and	x1, x1, -8	// D.10754, D.10753,
	str	x1, [sp, 168]	// D.10754, argv.__stack
	b	.L871		//
.L872:
	ldr	x2, [sp, 184]	// D.10756, argv.__vr_top
	sxtw	x0, w1	// D.10757, D.10740
	add	x0, x2, x0	// iftmp.427, D.10756, D.10757
.L871:
	ldr	d0, [x0]	// tmp298, *iftmp.426_114
	str	d0, [sp, 128]	// tmp298, m
// varargs-dll.c:407:   double n = va_arg (argv, double);
	ldr	w1, [sp, 196]	// D.10758, argv.__vr_offs
	ldr	x0, [sp, 168]	// iftmp.429, argv.__stack
	cmp	w1, 0	// D.10758,
	blt	.L874		//,
	add	x1, x0, 15	// D.10763, iftmp.429,
	and	x1, x1, -8	// D.10764, D.10763,
	str	x1, [sp, 168]	// D.10764, argv.__stack
	b	.L875		//
.L874:
	add	w2, w1, 16	// D.10766, D.10758,
	str	w2, [sp, 196]	// D.10766, argv.__vr_offs
	ldr	w2, [sp, 196]	// D.10768, argv.__vr_offs
	cmp	w2, 0	// D.10768,
	ble	.L876		//,
	add	x1, x0, 15	// D.10771, iftmp.429,
	and	x1, x1, -8	// D.10772, D.10771,
	str	x1, [sp, 168]	// D.10772, argv.__stack
	b	.L875		//
.L876:
	ldr	x2, [sp, 184]	// D.10774, argv.__vr_top
	sxtw	x0, w1	// D.10775, D.10758
	add	x0, x2, x0	// iftmp.429, D.10774, D.10775
.L875:
	ldr	d0, [x0]	// tmp299, *iftmp.428_116
	str	d0, [sp, 136]	// tmp299, n
// varargs-dll.c:408:   double o = va_arg (argv, double);
	ldr	w1, [sp, 196]	// D.10776, argv.__vr_offs
	ldr	x0, [sp, 168]	// iftmp.431, argv.__stack
	cmp	w1, 0	// D.10776,
	blt	.L878		//,
	add	x1, x0, 15	// D.10781, iftmp.431,
	and	x1, x1, -8	// D.10782, D.10781,
	str	x1, [sp, 168]	// D.10782, argv.__stack
	b	.L879		//
.L878:
	add	w2, w1, 16	// D.10784, D.10776,
	str	w2, [sp, 196]	// D.10784, argv.__vr_offs
	ldr	w2, [sp, 196]	// D.10786, argv.__vr_offs
	cmp	w2, 0	// D.10786,
	ble	.L880		//,
	add	x1, x0, 15	// D.10789, iftmp.431,
	and	x1, x1, -8	// D.10790, D.10789,
	str	x1, [sp, 168]	// D.10790, argv.__stack
	b	.L879		//
.L880:
	ldr	x2, [sp, 184]	// D.10792, argv.__vr_top
	sxtw	x0, w1	// D.10793, D.10776
	add	x0, x2, x0	// iftmp.431, D.10792, D.10793
.L879:
	ldr	d0, [x0]	// tmp300, *iftmp.430_118
	str	d0, [sp, 144]	// tmp300, o
// varargs-dll.c:409:   double p = va_arg (argv, double);
	ldr	w1, [sp, 196]	// D.10794, argv.__vr_offs
	ldr	x0, [sp, 168]	// iftmp.433, argv.__stack
	cmp	w1, 0	// D.10794,
	blt	.L882		//,
	add	x1, x0, 15	// D.10799, iftmp.433,
	and	x1, x1, -8	// D.10800, D.10799,
	str	x1, [sp, 168]	// D.10800, argv.__stack
	b	.L883		//
.L882:
	add	w2, w1, 16	// D.10802, D.10794,
	str	w2, [sp, 196]	// D.10802, argv.__vr_offs
	ldr	w2, [sp, 196]	// D.10804, argv.__vr_offs
	cmp	w2, 0	// D.10804,
	ble	.L884		//,
	add	x1, x0, 15	// D.10807, iftmp.433,
	and	x1, x1, -8	// D.10808, D.10807,
	str	x1, [sp, 168]	// D.10808, argv.__stack
	b	.L883		//
.L884:
	ldr	x2, [sp, 184]	// D.10810, argv.__vr_top
	sxtw	x0, w1	// D.10811, D.10794
	add	x0, x2, x0	// iftmp.433, D.10810, D.10811
.L883:
	ldr	d0, [x0]	// tmp301, *iftmp.432_120
	str	d0, [sp, 152]	// tmp301, p
// varargs-dll.c:410:   double q = va_arg (argv, double);
	ldr	w1, [sp, 196]	// D.10812, argv.__vr_offs
	ldr	x0, [sp, 168]	// iftmp.435, argv.__stack
	cmp	w1, 0	// D.10812,
	blt	.L886		//,
	add	x1, x0, 15	// D.10817, iftmp.435,
	and	x1, x1, -8	// D.10818, D.10817,
	str	x1, [sp, 168]	// D.10818, argv.__stack
	b	.L887		//
.L886:
	add	w2, w1, 16	// D.10820, D.10812,
	str	w2, [sp, 196]	// D.10820, argv.__vr_offs
	ldr	w2, [sp, 196]	// D.10822, argv.__vr_offs
	cmp	w2, 0	// D.10822,
	ble	.L888		//,
	add	x1, x0, 15	// D.10825, iftmp.435,
	and	x1, x1, -8	// D.10826, D.10825,
	str	x1, [sp, 168]	// D.10826, argv.__stack
	b	.L887		//
.L888:
	ldr	x2, [sp, 184]	// D.10828, argv.__vr_top
	sxtw	x0, w1	// D.10829, D.10812
	add	x0, x2, x0	// iftmp.435, D.10828, D.10829
.L887:
	ldr	d0, [x0]	// tmp302, *iftmp.434_122
	str	d0, [sp, 160]	// tmp302, q
// varargs-dll.c:412:   return a + b + c + d + e + f + g + h + i + j + k + l + m + n + o + p + q;
	ldr	d1, [sp, 32]	// tmp303, a
	ldr	d0, [sp, 40]	// tmp304, b
	fadd	d1, d1, d0	// _1, tmp303, tmp304
// varargs-dll.c:412:   return a + b + c + d + e + f + g + h + i + j + k + l + m + n + o + p + q;
	ldr	d0, [sp, 48]	// tmp305, c
	fadd	d1, d1, d0	// _2, _1, tmp305
// varargs-dll.c:412:   return a + b + c + d + e + f + g + h + i + j + k + l + m + n + o + p + q;
	ldr	d0, [sp, 56]	// tmp306, d
	fadd	d1, d1, d0	// _3, _2, tmp306
// varargs-dll.c:412:   return a + b + c + d + e + f + g + h + i + j + k + l + m + n + o + p + q;
	ldr	d0, [sp, 64]	// tmp307, e
	fadd	d1, d1, d0	// _4, _3, tmp307
// varargs-dll.c:412:   return a + b + c + d + e + f + g + h + i + j + k + l + m + n + o + p + q;
	ldr	d0, [sp, 72]	// tmp308, f
	fadd	d1, d1, d0	// _5, _4, tmp308
// varargs-dll.c:412:   return a + b + c + d + e + f + g + h + i + j + k + l + m + n + o + p + q;
	ldr	d0, [sp, 80]	// tmp309, g
	fadd	d1, d1, d0	// _6, _5, tmp309
// varargs-dll.c:412:   return a + b + c + d + e + f + g + h + i + j + k + l + m + n + o + p + q;
	ldr	d0, [sp, 88]	// tmp310, h
	fadd	d1, d1, d0	// _7, _6, tmp310
// varargs-dll.c:412:   return a + b + c + d + e + f + g + h + i + j + k + l + m + n + o + p + q;
	ldr	d0, [sp, 96]	// tmp311, i
	fadd	d1, d1, d0	// _8, _7, tmp311
// varargs-dll.c:412:   return a + b + c + d + e + f + g + h + i + j + k + l + m + n + o + p + q;
	ldr	d0, [sp, 104]	// tmp312, j
	fadd	d1, d1, d0	// _9, _8, tmp312
// varargs-dll.c:412:   return a + b + c + d + e + f + g + h + i + j + k + l + m + n + o + p + q;
	ldr	d0, [sp, 112]	// tmp313, k
	fadd	d1, d1, d0	// _10, _9, tmp313
// varargs-dll.c:412:   return a + b + c + d + e + f + g + h + i + j + k + l + m + n + o + p + q;
	ldr	d0, [sp, 120]	// tmp314, l
	fadd	d1, d1, d0	// _11, _10, tmp314
// varargs-dll.c:412:   return a + b + c + d + e + f + g + h + i + j + k + l + m + n + o + p + q;
	ldr	d0, [sp, 128]	// tmp315, m
	fadd	d1, d1, d0	// _12, _11, tmp315
// varargs-dll.c:412:   return a + b + c + d + e + f + g + h + i + j + k + l + m + n + o + p + q;
	ldr	d0, [sp, 136]	// tmp316, n
	fadd	d1, d1, d0	// _13, _12, tmp316
// varargs-dll.c:412:   return a + b + c + d + e + f + g + h + i + j + k + l + m + n + o + p + q;
	ldr	d0, [sp, 144]	// tmp317, o
	fadd	d1, d1, d0	// _14, _13, tmp317
// varargs-dll.c:412:   return a + b + c + d + e + f + g + h + i + j + k + l + m + n + o + p + q;
	ldr	d0, [sp, 152]	// tmp318, p
	fadd	d1, d1, d0	// _15, _14, tmp318
// varargs-dll.c:412:   return a + b + c + d + e + f + g + h + i + j + k + l + m + n + o + p + q;
	ldr	d0, [sp, 160]	// tmp319, q
	fadd	d0, d1, d0	// _16, _15, tmp319
	fcvtzs	w0, d0	// _54, _16
	mov	w1, w0	// <retval>, _54
// varargs-dll.c:413: }
	adrp	x0, :got:__stack_chk_guard	// tmp322,
	ldr	x0, [x0, #:got_lo12:__stack_chk_guard]	// tmp321, tmp322,
	ldr	x3, [sp, 200]	// tmp324, D.10830
	ldr	x2, [x0]	// tmp325,
	subs	x3, x3, x2	// tmp324, tmp325
	mov	x2, 0	// tmp325
	beq	.L891		//,
	bl	__stack_chk_fail		//
.L891:
	mov	w0, w1	//, <retval>
	ldp	x29, x30, [sp], 400	//,,,
	.cfi_restore 30
	.cfi_restore 29
	.cfi_def_cfa_offset 0
	ret	
	.cfi_endproc
.LFE30:
	.size	use_va_args_many_floats, .-use_va_args_many_floats
	.align	2
	.global	use_va_list_many_floats
	.type	use_va_list_many_floats, %function
use_va_list_many_floats:
.LFB31:
	.cfi_startproc
	str	x19, [sp, -176]!	//,
	.cfi_def_cfa_offset 176
	.cfi_offset 19, -176
	str	x0, [sp, 24]	// name, name
	mov	x19, x1	// tmp280,
// varargs-dll.c:419:   double a = va_arg (argv, double);
	ldr	w1, [x19, 28]	// D.10834, argv.__vr_offs
	ldr	x0, [x19]	// iftmp.437, argv.__stack
	cmp	w1, 0	// D.10834,
	blt	.L893		//,
	add	x1, x0, 15	// D.10839, iftmp.437,
	and	x1, x1, -8	// D.10840, D.10839,
	str	x1, [x19]	// D.10840, argv.__stack
	b	.L894		//
.L893:
	add	w2, w1, 16	// D.10842, D.10834,
	str	w2, [x19, 28]	// D.10842, argv.__vr_offs
	ldr	w2, [x19, 28]	// D.10844, argv.__vr_offs
	cmp	w2, 0	// D.10844,
	ble	.L895		//,
	add	x1, x0, 15	// D.10847, iftmp.437,
	and	x1, x1, -8	// D.10848, D.10847,
	str	x1, [x19]	// D.10848, argv.__stack
	b	.L894		//
.L895:
	ldr	x2, [x19, 16]	// D.10850, argv.__vr_top
	sxtw	x0, w1	// D.10851, D.10834
	add	x0, x2, x0	// iftmp.437, D.10850, D.10851
.L894:
	ldr	d0, [x0]	// tmp281, *iftmp.436_87
	str	d0, [sp, 40]	// tmp281, a
// varargs-dll.c:420:   double b = va_arg (argv, double);
	ldr	w1, [x19, 28]	// D.10852, argv.__vr_offs
	ldr	x0, [x19]	// iftmp.439, argv.__stack
	cmp	w1, 0	// D.10852,
	blt	.L897		//,
	add	x1, x0, 15	// D.10857, iftmp.439,
	and	x1, x1, -8	// D.10858, D.10857,
	str	x1, [x19]	// D.10858, argv.__stack
	b	.L898		//
.L897:
	add	w2, w1, 16	// D.10860, D.10852,
	str	w2, [x19, 28]	// D.10860, argv.__vr_offs
	ldr	w2, [x19, 28]	// D.10862, argv.__vr_offs
	cmp	w2, 0	// D.10862,
	ble	.L899		//,
	add	x1, x0, 15	// D.10865, iftmp.439,
	and	x1, x1, -8	// D.10866, D.10865,
	str	x1, [x19]	// D.10866, argv.__stack
	b	.L898		//
.L899:
	ldr	x2, [x19, 16]	// D.10868, argv.__vr_top
	sxtw	x0, w1	// D.10869, D.10852
	add	x0, x2, x0	// iftmp.439, D.10868, D.10869
.L898:
	ldr	d0, [x0]	// tmp282, *iftmp.438_89
	str	d0, [sp, 48]	// tmp282, b
// varargs-dll.c:421:   double c = va_arg (argv, double);
	ldr	w1, [x19, 28]	// D.10870, argv.__vr_offs
	ldr	x0, [x19]	// iftmp.441, argv.__stack
	cmp	w1, 0	// D.10870,
	blt	.L901		//,
	add	x1, x0, 15	// D.10875, iftmp.441,
	and	x1, x1, -8	// D.10876, D.10875,
	str	x1, [x19]	// D.10876, argv.__stack
	b	.L902		//
.L901:
	add	w2, w1, 16	// D.10878, D.10870,
	str	w2, [x19, 28]	// D.10878, argv.__vr_offs
	ldr	w2, [x19, 28]	// D.10880, argv.__vr_offs
	cmp	w2, 0	// D.10880,
	ble	.L903		//,
	add	x1, x0, 15	// D.10883, iftmp.441,
	and	x1, x1, -8	// D.10884, D.10883,
	str	x1, [x19]	// D.10884, argv.__stack
	b	.L902		//
.L903:
	ldr	x2, [x19, 16]	// D.10886, argv.__vr_top
	sxtw	x0, w1	// D.10887, D.10870
	add	x0, x2, x0	// iftmp.441, D.10886, D.10887
.L902:
	ldr	d0, [x0]	// tmp283, *iftmp.440_91
	str	d0, [sp, 56]	// tmp283, c
// varargs-dll.c:422:   double d = va_arg (argv, double);
	ldr	w1, [x19, 28]	// D.10888, argv.__vr_offs
	ldr	x0, [x19]	// iftmp.443, argv.__stack
	cmp	w1, 0	// D.10888,
	blt	.L905		//,
	add	x1, x0, 15	// D.10893, iftmp.443,
	and	x1, x1, -8	// D.10894, D.10893,
	str	x1, [x19]	// D.10894, argv.__stack
	b	.L906		//
.L905:
	add	w2, w1, 16	// D.10896, D.10888,
	str	w2, [x19, 28]	// D.10896, argv.__vr_offs
	ldr	w2, [x19, 28]	// D.10898, argv.__vr_offs
	cmp	w2, 0	// D.10898,
	ble	.L907		//,
	add	x1, x0, 15	// D.10901, iftmp.443,
	and	x1, x1, -8	// D.10902, D.10901,
	str	x1, [x19]	// D.10902, argv.__stack
	b	.L906		//
.L907:
	ldr	x2, [x19, 16]	// D.10904, argv.__vr_top
	sxtw	x0, w1	// D.10905, D.10888
	add	x0, x2, x0	// iftmp.443, D.10904, D.10905
.L906:
	ldr	d0, [x0]	// tmp284, *iftmp.442_93
	str	d0, [sp, 64]	// tmp284, d
// varargs-dll.c:423:   double e = va_arg (argv, double);
	ldr	w1, [x19, 28]	// D.10906, argv.__vr_offs
	ldr	x0, [x19]	// iftmp.445, argv.__stack
	cmp	w1, 0	// D.10906,
	blt	.L909		//,
	add	x1, x0, 15	// D.10911, iftmp.445,
	and	x1, x1, -8	// D.10912, D.10911,
	str	x1, [x19]	// D.10912, argv.__stack
	b	.L910		//
.L909:
	add	w2, w1, 16	// D.10914, D.10906,
	str	w2, [x19, 28]	// D.10914, argv.__vr_offs
	ldr	w2, [x19, 28]	// D.10916, argv.__vr_offs
	cmp	w2, 0	// D.10916,
	ble	.L911		//,
	add	x1, x0, 15	// D.10919, iftmp.445,
	and	x1, x1, -8	// D.10920, D.10919,
	str	x1, [x19]	// D.10920, argv.__stack
	b	.L910		//
.L911:
	ldr	x2, [x19, 16]	// D.10922, argv.__vr_top
	sxtw	x0, w1	// D.10923, D.10906
	add	x0, x2, x0	// iftmp.445, D.10922, D.10923
.L910:
	ldr	d0, [x0]	// tmp285, *iftmp.444_95
	str	d0, [sp, 72]	// tmp285, e
// varargs-dll.c:424:   double f = va_arg (argv, double);
	ldr	w1, [x19, 28]	// D.10924, argv.__vr_offs
	ldr	x0, [x19]	// iftmp.447, argv.__stack
	cmp	w1, 0	// D.10924,
	blt	.L913		//,
	add	x1, x0, 15	// D.10929, iftmp.447,
	and	x1, x1, -8	// D.10930, D.10929,
	str	x1, [x19]	// D.10930, argv.__stack
	b	.L914		//
.L913:
	add	w2, w1, 16	// D.10932, D.10924,
	str	w2, [x19, 28]	// D.10932, argv.__vr_offs
	ldr	w2, [x19, 28]	// D.10934, argv.__vr_offs
	cmp	w2, 0	// D.10934,
	ble	.L915		//,
	add	x1, x0, 15	// D.10937, iftmp.447,
	and	x1, x1, -8	// D.10938, D.10937,
	str	x1, [x19]	// D.10938, argv.__stack
	b	.L914		//
.L915:
	ldr	x2, [x19, 16]	// D.10940, argv.__vr_top
	sxtw	x0, w1	// D.10941, D.10924
	add	x0, x2, x0	// iftmp.447, D.10940, D.10941
.L914:
	ldr	d0, [x0]	// tmp286, *iftmp.446_97
	str	d0, [sp, 80]	// tmp286, f
// varargs-dll.c:425:   double g = va_arg (argv, double);
	ldr	w1, [x19, 28]	// D.10942, argv.__vr_offs
	ldr	x0, [x19]	// iftmp.449, argv.__stack
	cmp	w1, 0	// D.10942,
	blt	.L917		//,
	add	x1, x0, 15	// D.10947, iftmp.449,
	and	x1, x1, -8	// D.10948, D.10947,
	str	x1, [x19]	// D.10948, argv.__stack
	b	.L918		//
.L917:
	add	w2, w1, 16	// D.10950, D.10942,
	str	w2, [x19, 28]	// D.10950, argv.__vr_offs
	ldr	w2, [x19, 28]	// D.10952, argv.__vr_offs
	cmp	w2, 0	// D.10952,
	ble	.L919		//,
	add	x1, x0, 15	// D.10955, iftmp.449,
	and	x1, x1, -8	// D.10956, D.10955,
	str	x1, [x19]	// D.10956, argv.__stack
	b	.L918		//
.L919:
	ldr	x2, [x19, 16]	// D.10958, argv.__vr_top
	sxtw	x0, w1	// D.10959, D.10942
	add	x0, x2, x0	// iftmp.449, D.10958, D.10959
.L918:
	ldr	d0, [x0]	// tmp287, *iftmp.448_99
	str	d0, [sp, 88]	// tmp287, g
// varargs-dll.c:426:   double h = va_arg (argv, double);
	ldr	w1, [x19, 28]	// D.10960, argv.__vr_offs
	ldr	x0, [x19]	// iftmp.451, argv.__stack
	cmp	w1, 0	// D.10960,
	blt	.L921		//,
	add	x1, x0, 15	// D.10965, iftmp.451,
	and	x1, x1, -8	// D.10966, D.10965,
	str	x1, [x19]	// D.10966, argv.__stack
	b	.L922		//
.L921:
	add	w2, w1, 16	// D.10968, D.10960,
	str	w2, [x19, 28]	// D.10968, argv.__vr_offs
	ldr	w2, [x19, 28]	// D.10970, argv.__vr_offs
	cmp	w2, 0	// D.10970,
	ble	.L923		//,
	add	x1, x0, 15	// D.10973, iftmp.451,
	and	x1, x1, -8	// D.10974, D.10973,
	str	x1, [x19]	// D.10974, argv.__stack
	b	.L922		//
.L923:
	ldr	x2, [x19, 16]	// D.10976, argv.__vr_top
	sxtw	x0, w1	// D.10977, D.10960
	add	x0, x2, x0	// iftmp.451, D.10976, D.10977
.L922:
	ldr	d0, [x0]	// tmp288, *iftmp.450_101
	str	d0, [sp, 96]	// tmp288, h
// varargs-dll.c:427:   double i = va_arg (argv, double);
	ldr	w1, [x19, 28]	// D.10978, argv.__vr_offs
	ldr	x0, [x19]	// iftmp.453, argv.__stack
	cmp	w1, 0	// D.10978,
	blt	.L925		//,
	add	x1, x0, 15	// D.10983, iftmp.453,
	and	x1, x1, -8	// D.10984, D.10983,
	str	x1, [x19]	// D.10984, argv.__stack
	b	.L926		//
.L925:
	add	w2, w1, 16	// D.10986, D.10978,
	str	w2, [x19, 28]	// D.10986, argv.__vr_offs
	ldr	w2, [x19, 28]	// D.10988, argv.__vr_offs
	cmp	w2, 0	// D.10988,
	ble	.L927		//,
	add	x1, x0, 15	// D.10991, iftmp.453,
	and	x1, x1, -8	// D.10992, D.10991,
	str	x1, [x19]	// D.10992, argv.__stack
	b	.L926		//
.L927:
	ldr	x2, [x19, 16]	// D.10994, argv.__vr_top
	sxtw	x0, w1	// D.10995, D.10978
	add	x0, x2, x0	// iftmp.453, D.10994, D.10995
.L926:
	ldr	d0, [x0]	// tmp289, *iftmp.452_103
	str	d0, [sp, 104]	// tmp289, i
// varargs-dll.c:428:   double j = va_arg (argv, double);
	ldr	w1, [x19, 28]	// D.10996, argv.__vr_offs
	ldr	x0, [x19]	// iftmp.455, argv.__stack
	cmp	w1, 0	// D.10996,
	blt	.L929		//,
	add	x1, x0, 15	// D.11001, iftmp.455,
	and	x1, x1, -8	// D.11002, D.11001,
	str	x1, [x19]	// D.11002, argv.__stack
	b	.L930		//
.L929:
	add	w2, w1, 16	// D.11004, D.10996,
	str	w2, [x19, 28]	// D.11004, argv.__vr_offs
	ldr	w2, [x19, 28]	// D.11006, argv.__vr_offs
	cmp	w2, 0	// D.11006,
	ble	.L931		//,
	add	x1, x0, 15	// D.11009, iftmp.455,
	and	x1, x1, -8	// D.11010, D.11009,
	str	x1, [x19]	// D.11010, argv.__stack
	b	.L930		//
.L931:
	ldr	x2, [x19, 16]	// D.11012, argv.__vr_top
	sxtw	x0, w1	// D.11013, D.10996
	add	x0, x2, x0	// iftmp.455, D.11012, D.11013
.L930:
	ldr	d0, [x0]	// tmp290, *iftmp.454_105
	str	d0, [sp, 112]	// tmp290, j
// varargs-dll.c:429:   double k = va_arg (argv, double);
	ldr	w1, [x19, 28]	// D.11014, argv.__vr_offs
	ldr	x0, [x19]	// iftmp.457, argv.__stack
	cmp	w1, 0	// D.11014,
	blt	.L933		//,
	add	x1, x0, 15	// D.11019, iftmp.457,
	and	x1, x1, -8	// D.11020, D.11019,
	str	x1, [x19]	// D.11020, argv.__stack
	b	.L934		//
.L933:
	add	w2, w1, 16	// D.11022, D.11014,
	str	w2, [x19, 28]	// D.11022, argv.__vr_offs
	ldr	w2, [x19, 28]	// D.11024, argv.__vr_offs
	cmp	w2, 0	// D.11024,
	ble	.L935		//,
	add	x1, x0, 15	// D.11027, iftmp.457,
	and	x1, x1, -8	// D.11028, D.11027,
	str	x1, [x19]	// D.11028, argv.__stack
	b	.L934		//
.L935:
	ldr	x2, [x19, 16]	// D.11030, argv.__vr_top
	sxtw	x0, w1	// D.11031, D.11014
	add	x0, x2, x0	// iftmp.457, D.11030, D.11031
.L934:
	ldr	d0, [x0]	// tmp291, *iftmp.456_107
	str	d0, [sp, 120]	// tmp291, k
// varargs-dll.c:430:   double l = va_arg (argv, double);
	ldr	w1, [x19, 28]	// D.11032, argv.__vr_offs
	ldr	x0, [x19]	// iftmp.459, argv.__stack
	cmp	w1, 0	// D.11032,
	blt	.L937		//,
	add	x1, x0, 15	// D.11037, iftmp.459,
	and	x1, x1, -8	// D.11038, D.11037,
	str	x1, [x19]	// D.11038, argv.__stack
	b	.L938		//
.L937:
	add	w2, w1, 16	// D.11040, D.11032,
	str	w2, [x19, 28]	// D.11040, argv.__vr_offs
	ldr	w2, [x19, 28]	// D.11042, argv.__vr_offs
	cmp	w2, 0	// D.11042,
	ble	.L939		//,
	add	x1, x0, 15	// D.11045, iftmp.459,
	and	x1, x1, -8	// D.11046, D.11045,
	str	x1, [x19]	// D.11046, argv.__stack
	b	.L938		//
.L939:
	ldr	x2, [x19, 16]	// D.11048, argv.__vr_top
	sxtw	x0, w1	// D.11049, D.11032
	add	x0, x2, x0	// iftmp.459, D.11048, D.11049
.L938:
	ldr	d0, [x0]	// tmp292, *iftmp.458_109
	str	d0, [sp, 128]	// tmp292, l
// varargs-dll.c:431:   double m = va_arg (argv, double);
	ldr	w1, [x19, 28]	// D.11050, argv.__vr_offs
	ldr	x0, [x19]	// iftmp.461, argv.__stack
	cmp	w1, 0	// D.11050,
	blt	.L941		//,
	add	x1, x0, 15	// D.11055, iftmp.461,
	and	x1, x1, -8	// D.11056, D.11055,
	str	x1, [x19]	// D.11056, argv.__stack
	b	.L942		//
.L941:
	add	w2, w1, 16	// D.11058, D.11050,
	str	w2, [x19, 28]	// D.11058, argv.__vr_offs
	ldr	w2, [x19, 28]	// D.11060, argv.__vr_offs
	cmp	w2, 0	// D.11060,
	ble	.L943		//,
	add	x1, x0, 15	// D.11063, iftmp.461,
	and	x1, x1, -8	// D.11064, D.11063,
	str	x1, [x19]	// D.11064, argv.__stack
	b	.L942		//
.L943:
	ldr	x2, [x19, 16]	// D.11066, argv.__vr_top
	sxtw	x0, w1	// D.11067, D.11050
	add	x0, x2, x0	// iftmp.461, D.11066, D.11067
.L942:
	ldr	d0, [x0]	// tmp293, *iftmp.460_111
	str	d0, [sp, 136]	// tmp293, m
// varargs-dll.c:432:   double n = va_arg (argv, double);
	ldr	w1, [x19, 28]	// D.11068, argv.__vr_offs
	ldr	x0, [x19]	// iftmp.463, argv.__stack
	cmp	w1, 0	// D.11068,
	blt	.L945		//,
	add	x1, x0, 15	// D.11073, iftmp.463,
	and	x1, x1, -8	// D.11074, D.11073,
	str	x1, [x19]	// D.11074, argv.__stack
	b	.L946		//
.L945:
	add	w2, w1, 16	// D.11076, D.11068,
	str	w2, [x19, 28]	// D.11076, argv.__vr_offs
	ldr	w2, [x19, 28]	// D.11078, argv.__vr_offs
	cmp	w2, 0	// D.11078,
	ble	.L947		//,
	add	x1, x0, 15	// D.11081, iftmp.463,
	and	x1, x1, -8	// D.11082, D.11081,
	str	x1, [x19]	// D.11082, argv.__stack
	b	.L946		//
.L947:
	ldr	x2, [x19, 16]	// D.11084, argv.__vr_top
	sxtw	x0, w1	// D.11085, D.11068
	add	x0, x2, x0	// iftmp.463, D.11084, D.11085
.L946:
	ldr	d0, [x0]	// tmp294, *iftmp.462_113
	str	d0, [sp, 144]	// tmp294, n
// varargs-dll.c:433:   double o = va_arg (argv, double);
	ldr	w1, [x19, 28]	// D.11086, argv.__vr_offs
	ldr	x0, [x19]	// iftmp.465, argv.__stack
	cmp	w1, 0	// D.11086,
	blt	.L949		//,
	add	x1, x0, 15	// D.11091, iftmp.465,
	and	x1, x1, -8	// D.11092, D.11091,
	str	x1, [x19]	// D.11092, argv.__stack
	b	.L950		//
.L949:
	add	w2, w1, 16	// D.11094, D.11086,
	str	w2, [x19, 28]	// D.11094, argv.__vr_offs
	ldr	w2, [x19, 28]	// D.11096, argv.__vr_offs
	cmp	w2, 0	// D.11096,
	ble	.L951		//,
	add	x1, x0, 15	// D.11099, iftmp.465,
	and	x1, x1, -8	// D.11100, D.11099,
	str	x1, [x19]	// D.11100, argv.__stack
	b	.L950		//
.L951:
	ldr	x2, [x19, 16]	// D.11102, argv.__vr_top
	sxtw	x0, w1	// D.11103, D.11086
	add	x0, x2, x0	// iftmp.465, D.11102, D.11103
.L950:
	ldr	d0, [x0]	// tmp295, *iftmp.464_115
	str	d0, [sp, 152]	// tmp295, o
// varargs-dll.c:434:   double p = va_arg (argv, double);
	ldr	w1, [x19, 28]	// D.11104, argv.__vr_offs
	ldr	x0, [x19]	// iftmp.467, argv.__stack
	cmp	w1, 0	// D.11104,
	blt	.L953		//,
	add	x1, x0, 15	// D.11109, iftmp.467,
	and	x1, x1, -8	// D.11110, D.11109,
	str	x1, [x19]	// D.11110, argv.__stack
	b	.L954		//
.L953:
	add	w2, w1, 16	// D.11112, D.11104,
	str	w2, [x19, 28]	// D.11112, argv.__vr_offs
	ldr	w2, [x19, 28]	// D.11114, argv.__vr_offs
	cmp	w2, 0	// D.11114,
	ble	.L955		//,
	add	x1, x0, 15	// D.11117, iftmp.467,
	and	x1, x1, -8	// D.11118, D.11117,
	str	x1, [x19]	// D.11118, argv.__stack
	b	.L954		//
.L955:
	ldr	x2, [x19, 16]	// D.11120, argv.__vr_top
	sxtw	x0, w1	// D.11121, D.11104
	add	x0, x2, x0	// iftmp.467, D.11120, D.11121
.L954:
	ldr	d0, [x0]	// tmp296, *iftmp.466_117
	str	d0, [sp, 160]	// tmp296, p
// varargs-dll.c:435:   double q = va_arg (argv, double);
	ldr	w1, [x19, 28]	// D.11122, argv.__vr_offs
	ldr	x0, [x19]	// iftmp.469, argv.__stack
	cmp	w1, 0	// D.11122,
	blt	.L957		//,
	add	x1, x0, 15	// D.11127, iftmp.469,
	and	x1, x1, -8	// D.11128, D.11127,
	str	x1, [x19]	// D.11128, argv.__stack
	b	.L958		//
.L957:
	add	w2, w1, 16	// D.11130, D.11122,
	str	w2, [x19, 28]	// D.11130, argv.__vr_offs
	ldr	w2, [x19, 28]	// D.11132, argv.__vr_offs
	cmp	w2, 0	// D.11132,
	ble	.L959		//,
	add	x1, x0, 15	// D.11135, iftmp.469,
	and	x1, x1, -8	// D.11136, D.11135,
	str	x1, [x19]	// D.11136, argv.__stack
	b	.L958		//
.L959:
	ldr	x2, [x19, 16]	// D.11138, argv.__vr_top
	sxtw	x0, w1	// D.11139, D.11122
	add	x0, x2, x0	// iftmp.469, D.11138, D.11139
.L958:
	ldr	d0, [x0]	// tmp297, *iftmp.468_119
	str	d0, [sp, 168]	// tmp297, q
// varargs-dll.c:436:   return a + b + c + d + e + f + g + h + i + j + k + l + m + n + o + p + q;
	ldr	d1, [sp, 40]	// tmp298, a
	ldr	d0, [sp, 48]	// tmp299, b
	fadd	d1, d1, d0	// _1, tmp298, tmp299
// varargs-dll.c:436:   return a + b + c + d + e + f + g + h + i + j + k + l + m + n + o + p + q;
	ldr	d0, [sp, 56]	// tmp300, c
	fadd	d1, d1, d0	// _2, _1, tmp300
// varargs-dll.c:436:   return a + b + c + d + e + f + g + h + i + j + k + l + m + n + o + p + q;
	ldr	d0, [sp, 64]	// tmp301, d
	fadd	d1, d1, d0	// _3, _2, tmp301
// varargs-dll.c:436:   return a + b + c + d + e + f + g + h + i + j + k + l + m + n + o + p + q;
	ldr	d0, [sp, 72]	// tmp302, e
	fadd	d1, d1, d0	// _4, _3, tmp302
// varargs-dll.c:436:   return a + b + c + d + e + f + g + h + i + j + k + l + m + n + o + p + q;
	ldr	d0, [sp, 80]	// tmp303, f
	fadd	d1, d1, d0	// _5, _4, tmp303
// varargs-dll.c:436:   return a + b + c + d + e + f + g + h + i + j + k + l + m + n + o + p + q;
	ldr	d0, [sp, 88]	// tmp304, g
	fadd	d1, d1, d0	// _6, _5, tmp304
// varargs-dll.c:436:   return a + b + c + d + e + f + g + h + i + j + k + l + m + n + o + p + q;
	ldr	d0, [sp, 96]	// tmp305, h
	fadd	d1, d1, d0	// _7, _6, tmp305
// varargs-dll.c:436:   return a + b + c + d + e + f + g + h + i + j + k + l + m + n + o + p + q;
	ldr	d0, [sp, 104]	// tmp306, i
	fadd	d1, d1, d0	// _8, _7, tmp306
// varargs-dll.c:436:   return a + b + c + d + e + f + g + h + i + j + k + l + m + n + o + p + q;
	ldr	d0, [sp, 112]	// tmp307, j
	fadd	d1, d1, d0	// _9, _8, tmp307
// varargs-dll.c:436:   return a + b + c + d + e + f + g + h + i + j + k + l + m + n + o + p + q;
	ldr	d0, [sp, 120]	// tmp308, k
	fadd	d1, d1, d0	// _10, _9, tmp308
// varargs-dll.c:436:   return a + b + c + d + e + f + g + h + i + j + k + l + m + n + o + p + q;
	ldr	d0, [sp, 128]	// tmp309, l
	fadd	d1, d1, d0	// _11, _10, tmp309
// varargs-dll.c:436:   return a + b + c + d + e + f + g + h + i + j + k + l + m + n + o + p + q;
	ldr	d0, [sp, 136]	// tmp310, m
	fadd	d1, d1, d0	// _12, _11, tmp310
// varargs-dll.c:436:   return a + b + c + d + e + f + g + h + i + j + k + l + m + n + o + p + q;
	ldr	d0, [sp, 144]	// tmp311, n
	fadd	d1, d1, d0	// _13, _12, tmp311
// varargs-dll.c:436:   return a + b + c + d + e + f + g + h + i + j + k + l + m + n + o + p + q;
	ldr	d0, [sp, 152]	// tmp312, o
	fadd	d1, d1, d0	// _14, _13, tmp312
// varargs-dll.c:436:   return a + b + c + d + e + f + g + h + i + j + k + l + m + n + o + p + q;
	ldr	d0, [sp, 160]	// tmp313, p
	fadd	d1, d1, d0	// _15, _14, tmp313
// varargs-dll.c:436:   return a + b + c + d + e + f + g + h + i + j + k + l + m + n + o + p + q;
	ldr	d0, [sp, 168]	// tmp314, q
	fadd	d0, d1, d0	// _16, _15, tmp314
	fcvtzs	w0, d0	// _52, _16
// varargs-dll.c:437: }
	ldr	x19, [sp], 176	//,
	.cfi_restore 19
	.cfi_def_cfa_offset 0
	ret	
	.cfi_endproc
.LFE31:
	.size	use_va_list_many_floats, .-use_va_list_many_floats
	.align	2
	.global	use_va_args_few_strings
	.type	use_va_args_few_strings, %function
use_va_args_few_strings:
.LFB32:
	.cfi_startproc
	stp	x29, x30, [sp, -272]!	//,,,
	.cfi_def_cfa_offset 272
	.cfi_offset 29, -272
	.cfi_offset 30, -264
	mov	x29, sp	//,
	str	x0, [sp, 24]	// format, format
	str	x1, [sp, 216]	//,
	str	x2, [sp, 224]	//,
	str	x3, [sp, 232]	//,
	str	x4, [sp, 240]	//,
	str	x5, [sp, 248]	//,
	str	x6, [sp, 256]	//,
	str	x7, [sp, 264]	//,
	str	q0, [sp, 80]	//,
	str	q1, [sp, 96]	//,
	str	q2, [sp, 112]	//,
	str	q3, [sp, 128]	//,
	str	q4, [sp, 144]	//,
	str	q5, [sp, 160]	//,
	str	q6, [sp, 176]	//,
	str	q7, [sp, 192]	//,
// varargs-dll.c:441: {
	adrp	x0, :got:__stack_chk_guard	// tmp117,
	ldr	x0, [x0, #:got_lo12:__stack_chk_guard]	// tmp116, tmp117,
	ldr	x1, [x0]	// tmp127,
	str	x1, [sp, 72]	// tmp127, D.11176
	mov	x1, 0	// tmp127
// varargs-dll.c:443:   va_start (argv, format);
	add	x0, sp, 272	// tmp132,,
	str	x0, [sp, 40]	// tmp132, MEM[(struct  *)&argv].__stack
	add	x0, sp, 272	// tmp133,,
	str	x0, [sp, 48]	// tmp133, MEM[(struct  *)&argv].__gr_top
	add	x0, sp, 208	// tmp119,,
	str	x0, [sp, 56]	// tmp119, MEM[(struct  *)&argv].__vr_top
	mov	w0, -56	// tmp120,
	str	w0, [sp, 64]	// tmp120, MEM[(struct  *)&argv].__gr_offs
	mov	w0, -128	// tmp121,
	str	w0, [sp, 68]	// tmp121, MEM[(struct  *)&argv].__vr_offs
// varargs-dll.c:444:   int a = atoi (va_arg (argv, const char *));
	ldr	w1, [sp, 64]	// D.11140, argv.__gr_offs
	ldr	x0, [sp, 40]	// iftmp.471, argv.__stack
	cmp	w1, 0	// D.11140,
	blt	.L963		//,
	add	x1, x0, 15	// D.11145, iftmp.471,
	and	x1, x1, -8	// D.11146, D.11145,
	str	x1, [sp, 40]	// D.11146, argv.__stack
	b	.L964		//
.L963:
	add	w2, w1, 8	// D.11148, D.11140,
	str	w2, [sp, 64]	// D.11148, argv.__gr_offs
	ldr	w2, [sp, 64]	// D.11150, argv.__gr_offs
	cmp	w2, 0	// D.11150,
	ble	.L965		//,
	add	x1, x0, 15	// D.11153, iftmp.471,
	and	x1, x1, -8	// D.11154, D.11153,
	str	x1, [sp, 40]	// D.11154, argv.__stack
	b	.L964		//
.L965:
	ldr	x2, [sp, 48]	// D.11156, argv.__gr_top
	sxtw	x0, w1	// D.11157, D.11140
	add	x0, x2, x0	// iftmp.471, D.11156, D.11157
.L964:
	ldr	x0, [x0]	// _1, *iftmp.470_16
	bl	atoi		//
	str	w0, [sp, 32]	//, a
// varargs-dll.c:445:   int b = atoi (va_arg (argv, const char *));
	ldr	w1, [sp, 64]	// D.11158, argv.__gr_offs
	ldr	x0, [sp, 40]	// iftmp.473, argv.__stack
	cmp	w1, 0	// D.11158,
	blt	.L967		//,
	add	x1, x0, 15	// D.11163, iftmp.473,
	and	x1, x1, -8	// D.11164, D.11163,
	str	x1, [sp, 40]	// D.11164, argv.__stack
	b	.L968		//
.L967:
	add	w2, w1, 8	// D.11166, D.11158,
	str	w2, [sp, 64]	// D.11166, argv.__gr_offs
	ldr	w2, [sp, 64]	// D.11168, argv.__gr_offs
	cmp	w2, 0	// D.11168,
	ble	.L969		//,
	add	x1, x0, 15	// D.11171, iftmp.473,
	and	x1, x1, -8	// D.11172, D.11171,
	str	x1, [sp, 40]	// D.11172, argv.__stack
	b	.L968		//
.L969:
	ldr	x2, [sp, 48]	// D.11174, argv.__gr_top
	sxtw	x0, w1	// D.11175, D.11158
	add	x0, x2, x0	// iftmp.473, D.11174, D.11175
.L968:
	ldr	x0, [x0]	// _2, *iftmp.472_18
	bl	atoi		//
	str	w0, [sp, 36]	//, b
// varargs-dll.c:447:   return a + b;
	ldr	w1, [sp, 32]	// tmp122, a
	ldr	w0, [sp, 36]	// tmp123, b
	add	w0, w1, w0	// _10, tmp122, tmp123
	mov	w1, w0	// <retval>, _10
// varargs-dll.c:448: }
	adrp	x0, :got:__stack_chk_guard	// tmp126,
	ldr	x0, [x0, #:got_lo12:__stack_chk_guard]	// tmp125, tmp126,
	ldr	x3, [sp, 72]	// tmp128, D.11176
	ldr	x2, [x0]	// tmp129,
	subs	x3, x3, x2	// tmp128, tmp129
	mov	x2, 0	// tmp129
	beq	.L972		//,
	bl	__stack_chk_fail		//
.L972:
	mov	w0, w1	//, <retval>
	ldp	x29, x30, [sp], 272	//,,,
	.cfi_restore 30
	.cfi_restore 29
	.cfi_def_cfa_offset 0
	ret	
	.cfi_endproc
.LFE32:
	.size	use_va_args_few_strings, .-use_va_args_few_strings
	.align	2
	.global	use_va_list_few_strings
	.type	use_va_list_few_strings, %function
use_va_list_few_strings:
.LFB33:
	.cfi_startproc
	stp	x29, x30, [sp, -64]!	//,,,
	.cfi_def_cfa_offset 64
	.cfi_offset 29, -64
	.cfi_offset 30, -56
	mov	x29, sp	//,
	str	x19, [sp, 16]	//,
	.cfi_offset 19, -48
	str	x0, [sp, 40]	// format, format
	mov	x19, x1	// tmp116,
// varargs-dll.c:453:   int a = atoi (va_arg (argv, const char *));
	ldr	w1, [x19, 24]	// D.11180, argv.__gr_offs
	ldr	x0, [x19]	// iftmp.475, argv.__stack
	cmp	w1, 0	// D.11180,
	blt	.L974		//,
	add	x1, x0, 15	// D.11185, iftmp.475,
	and	x1, x1, -8	// D.11186, D.11185,
	str	x1, [x19]	// D.11186, argv.__stack
	b	.L975		//
.L974:
	add	w2, w1, 8	// D.11188, D.11180,
	str	w2, [x19, 24]	// D.11188, argv.__gr_offs
	ldr	w2, [x19, 24]	// D.11190, argv.__gr_offs
	cmp	w2, 0	// D.11190,
	ble	.L976		//,
	add	x1, x0, 15	// D.11193, iftmp.475,
	and	x1, x1, -8	// D.11194, D.11193,
	str	x1, [x19]	// D.11194, argv.__stack
	b	.L975		//
.L976:
	ldr	x2, [x19, 8]	// D.11196, argv.__gr_top
	sxtw	x0, w1	// D.11197, D.11180
	add	x0, x2, x0	// iftmp.475, D.11196, D.11197
.L975:
	ldr	x0, [x0]	// _1, *iftmp.474_13
	bl	atoi		//
	str	w0, [sp, 56]	//, a
// varargs-dll.c:454:   int b = atoi (va_arg (argv, const char *));
	ldr	w1, [x19, 24]	// D.11198, argv.__gr_offs
	ldr	x0, [x19]	// iftmp.477, argv.__stack
	cmp	w1, 0	// D.11198,
	blt	.L978		//,
	add	x1, x0, 15	// D.11203, iftmp.477,
	and	x1, x1, -8	// D.11204, D.11203,
	str	x1, [x19]	// D.11204, argv.__stack
	b	.L979		//
.L978:
	add	w2, w1, 8	// D.11206, D.11198,
	str	w2, [x19, 24]	// D.11206, argv.__gr_offs
	ldr	w2, [x19, 24]	// D.11208, argv.__gr_offs
	cmp	w2, 0	// D.11208,
	ble	.L980		//,
	add	x1, x0, 15	// D.11211, iftmp.477,
	and	x1, x1, -8	// D.11212, D.11211,
	str	x1, [x19]	// D.11212, argv.__stack
	b	.L979		//
.L980:
	ldr	x2, [x19, 8]	// D.11214, argv.__gr_top
	sxtw	x0, w1	// D.11215, D.11198
	add	x0, x2, x0	// iftmp.477, D.11214, D.11215
.L979:
	ldr	x0, [x0]	// _2, *iftmp.476_15
	bl	atoi		//
	str	w0, [sp, 60]	//, b
// varargs-dll.c:455:   return a + b;
	ldr	w1, [sp, 56]	// tmp117, a
	ldr	w0, [sp, 60]	// tmp118, b
	add	w0, w1, w0	// _8, tmp117, tmp118
// varargs-dll.c:456: }
	ldr	x19, [sp, 16]	//,
