	.arch armv8-a
	.file	"varargs-use-dll.c"
// GNU C17 (Ubuntu 11.4.0-1ubuntu1~22.04) version 11.4.0 (aarch64-linux-gnu)
//	compiled by GNU C version 11.4.0, GMP version 6.2.1, MPFR version 4.1.0, MPC version 1.2.1, isl version isl-0.24-GMP

// GGC heuristics: --param ggc-min-expand=100 --param ggc-min-heapsize=131072
// options passed: -mlittle-endian -mabi=lp64 -O0 -fasynchronous-unwind-tables -fstack-protector-strong -fstack-clash-protection
	.text
	.align	2
	.global	__chkstk
	.type	__chkstk, %function
__chkstk:
.LFB0:
	.cfi_startproc
// varargs-use-dll.c:9: }
	nop	
	ret	
	.cfi_endproc
.LFE0:
	.size	__chkstk, .-__chkstk
	.section	.rodata
	.align	3
.LC0:
	.string	"no_arguments"
	.align	3
.LC1:
	.string	"\tuse_va_list_%s, result: %d\n"
	.text
	.align	2
	.global	test_va_list_no_arguments
	.type	test_va_list_no_arguments, %function
test_va_list_no_arguments:
.LFB1:
	.cfi_startproc
	stp	x29, x30, [sp, -304]!	//,,,
	.cfi_def_cfa_offset 304
	.cfi_offset 29, -304
	.cfi_offset 30, -296
	mov	x29, sp	//,
	str	x0, [sp, 56]	// func, func
	str	x1, [sp, 248]	//,
	str	x2, [sp, 256]	//,
	str	x3, [sp, 264]	//,
	str	x4, [sp, 272]	//,
	str	x5, [sp, 280]	//,
	str	x6, [sp, 288]	//,
	str	x7, [sp, 296]	//,
	str	q0, [sp, 112]	//,
	str	q1, [sp, 128]	//,
	str	q2, [sp, 144]	//,
	str	q3, [sp, 160]	//,
	str	q4, [sp, 176]	//,
	str	q5, [sp, 192]	//,
	str	q6, [sp, 208]	//,
	str	q7, [sp, 224]	//,
// varargs-use-dll.c:90: DECLARE_TEST (no_arguments);
	adrp	x0, :got:__stack_chk_guard	// tmp95,
	ldr	x0, [x0, #:got_lo12:__stack_chk_guard]	// tmp94, tmp95,
	ldr	x1, [x0]	// tmp112,
	str	x1, [sp, 104]	// tmp112, D.6672
	mov	x1, 0	// tmp112
	add	x0, sp, 304	// tmp117,,
	str	x0, [sp, 72]	// tmp117, MEM[(struct  *)&argv].__stack
	add	x0, sp, 304	// tmp118,,
	str	x0, [sp, 80]	// tmp118, MEM[(struct  *)&argv].__gr_top
	add	x0, sp, 240	// tmp97,,
	str	x0, [sp, 88]	// tmp97, MEM[(struct  *)&argv].__vr_top
	mov	w0, -56	// tmp98,
	str	w0, [sp, 96]	// tmp98, MEM[(struct  *)&argv].__gr_offs
	mov	w0, -128	// tmp99,
	str	w0, [sp, 100]	// tmp99, MEM[(struct  *)&argv].__vr_offs
	add	x0, sp, 16	// tmp100,,
	add	x1, sp, 72	// tmp101,,
	ldp	q0, q1, [x1]	// tmp102, tmp103, argv
	stp	q0, q1, [x0]	// tmp102, tmp103,
	add	x0, sp, 16	// tmp104,,
	ldr	x2, [sp, 56]	// tmp105, func
	mov	x1, x0	//, tmp104
	adrp	x0, .LC0	// tmp106,
	add	x0, x0, :lo12:.LC0	//, tmp106,
	blr	x2		// tmp105
	str	w0, [sp, 68]	//, retval
	ldr	w2, [sp, 68]	//, retval
	adrp	x0, .LC0	// tmp107,
	add	x1, x0, :lo12:.LC0	//, tmp107,
	adrp	x0, .LC1	// tmp108,
	add	x0, x0, :lo12:.LC1	//, tmp108,
	bl	printf		//
	ldr	w0, [sp, 68]	// _8, retval
	mov	w1, w0	// <retval>, _8
	adrp	x0, :got:__stack_chk_guard	// tmp111,
	ldr	x0, [x0, #:got_lo12:__stack_chk_guard]	// tmp110, tmp111,
	ldr	x3, [sp, 104]	// tmp113, D.6672
	ldr	x2, [x0]	// tmp114,
	subs	x3, x3, x2	// tmp113, tmp114
	mov	x2, 0	// tmp114
	beq	.L4		//,
	bl	__stack_chk_fail		//
.L4:
	mov	w0, w1	//, <retval>
	ldp	x29, x30, [sp], 304	//,,,
	.cfi_restore 30
	.cfi_restore 29
	.cfi_def_cfa_offset 0
	ret	
	.cfi_endproc
.LFE1:
	.size	test_va_list_no_arguments, .-test_va_list_no_arguments
	.section	.rodata
	.align	3
.LC2:
	.string	"\tuse_va_list_%s_indirect, result: %d\n"
	.text
	.align	2
	.global	use_indirect_va_list_no_arguments
	.type	use_indirect_va_list_no_arguments, %function
use_indirect_va_list_no_arguments:
.LFB2:
	.cfi_startproc
	stp	x29, x30, [sp, -96]!	//,,,
	.cfi_def_cfa_offset 96
	.cfi_offset 29, -96
	.cfi_offset 30, -88
	mov	x29, sp	//,
	str	x19, [sp, 16]	//,
	.cfi_offset 19, -80
	str	x0, [sp, 72]	// func, func
	mov	x19, x1	// tmp94,
// varargs-use-dll.c:90: DECLARE_TEST (no_arguments);
	add	x0, sp, 32	// tmp95,,
	mov	x1, x19	// tmp96, tmp94
	ldp	q0, q1, [x1]	// tmp97, tmp98, argv
	stp	q0, q1, [x0]	// tmp97, tmp98,
	add	x0, sp, 32	// tmp99,,
	ldr	x2, [sp, 72]	// tmp100, func
	mov	x1, x0	//, tmp99
	adrp	x0, .LC0	// tmp101,
	add	x0, x0, :lo12:.LC0	//, tmp101,
	blr	x2		// tmp100
	str	w0, [sp, 92]	//, retval
	ldr	w2, [sp, 92]	//, retval
	adrp	x0, .LC0	// tmp102,
	add	x1, x0, :lo12:.LC0	//, tmp102,
	adrp	x0, .LC2	// tmp103,
	add	x0, x0, :lo12:.LC2	//, tmp103,
	bl	printf		//
	ldr	w0, [sp, 92]	// _6, retval
	ldr	x19, [sp, 16]	//,
	ldp	x29, x30, [sp], 96	//,,,
	.cfi_restore 30
	.cfi_restore 29
	.cfi_restore 19
	.cfi_def_cfa_offset 0
	ret	
	.cfi_endproc
.LFE2:
	.size	use_indirect_va_list_no_arguments, .-use_indirect_va_list_no_arguments
	.align	2
	.global	test_indirect_va_list_no_arguments
	.type	test_indirect_va_list_no_arguments, %function
test_indirect_va_list_no_arguments:
.LFB3:
	.cfi_startproc
	stp	x29, x30, [sp, -304]!	//,,,
	.cfi_def_cfa_offset 304
	.cfi_offset 29, -304
	.cfi_offset 30, -296
	mov	x29, sp	//,
	str	x0, [sp, 56]	// func, func
	str	x1, [sp, 248]	//,
	str	x2, [sp, 256]	//,
	str	x3, [sp, 264]	//,
	str	x4, [sp, 272]	//,
	str	x5, [sp, 280]	//,
	str	x6, [sp, 288]	//,
	str	x7, [sp, 296]	//,
	str	q0, [sp, 112]	//,
	str	q1, [sp, 128]	//,
	str	q2, [sp, 144]	//,
	str	q3, [sp, 160]	//,
	str	q4, [sp, 176]	//,
	str	q5, [sp, 192]	//,
	str	q6, [sp, 208]	//,
	str	q7, [sp, 224]	//,
// varargs-use-dll.c:90: DECLARE_TEST (no_arguments);
	adrp	x0, :got:__stack_chk_guard	// tmp95,
	ldr	x0, [x0, #:got_lo12:__stack_chk_guard]	// tmp94, tmp95,
	ldr	x1, [x0]	// tmp108,
	str	x1, [sp, 104]	// tmp108, D.6683
	mov	x1, 0	// tmp108
	add	x0, sp, 304	// tmp113,,
	str	x0, [sp, 72]	// tmp113, MEM[(struct  *)&argv].__stack
	add	x0, sp, 304	// tmp114,,
	str	x0, [sp, 80]	// tmp114, MEM[(struct  *)&argv].__gr_top
	add	x0, sp, 240	// tmp97,,
	str	x0, [sp, 88]	// tmp97, MEM[(struct  *)&argv].__vr_top
	mov	w0, -56	// tmp98,
	str	w0, [sp, 96]	// tmp98, MEM[(struct  *)&argv].__gr_offs
	mov	w0, -128	// tmp99,
	str	w0, [sp, 100]	// tmp99, MEM[(struct  *)&argv].__vr_offs
	add	x0, sp, 16	// tmp100,,
	add	x1, sp, 72	// tmp101,,
	ldp	q0, q1, [x1]	// tmp102, tmp103, argv
	stp	q0, q1, [x0]	// tmp102, tmp103,
	add	x0, sp, 16	// tmp104,,
	mov	x1, x0	//, tmp104
	ldr	x0, [sp, 56]	//, func
	bl	use_indirect_va_list_no_arguments		//
	str	w0, [sp, 68]	//, retval
	ldr	w0, [sp, 68]	// _7, retval
	mov	w1, w0	// <retval>, _7
	adrp	x0, :got:__stack_chk_guard	// tmp107,
	ldr	x0, [x0, #:got_lo12:__stack_chk_guard]	// tmp106, tmp107,
	ldr	x3, [sp, 104]	// tmp109, D.6683
	ldr	x2, [x0]	// tmp110,
	subs	x3, x3, x2	// tmp109, tmp110
	mov	x2, 0	// tmp110
	beq	.L9		//,
	bl	__stack_chk_fail		//
.L9:
	mov	w0, w1	//, <retval>
	ldp	x29, x30, [sp], 304	//,,,
	.cfi_restore 30
	.cfi_restore 29
	.cfi_def_cfa_offset 0
	ret	
	.cfi_endproc
.LFE3:
	.size	test_indirect_va_list_no_arguments, .-test_indirect_va_list_no_arguments
	.section	.rodata
	.align	3
.LC3:
	.string	"few_longs"
	.text
	.align	2
	.global	test_va_list_few_longs
	.type	test_va_list_few_longs, %function
test_va_list_few_longs:
.LFB4:
	.cfi_startproc
	stp	x29, x30, [sp, -304]!	//,,,
	.cfi_def_cfa_offset 304
	.cfi_offset 29, -304
	.cfi_offset 30, -296
	mov	x29, sp	//,
	str	x0, [sp, 56]	// func, func
	str	x1, [sp, 248]	//,
	str	x2, [sp, 256]	//,
	str	x3, [sp, 264]	//,
	str	x4, [sp, 272]	//,
	str	x5, [sp, 280]	//,
	str	x6, [sp, 288]	//,
	str	x7, [sp, 296]	//,
	str	q0, [sp, 112]	//,
	str	q1, [sp, 128]	//,
	str	q2, [sp, 144]	//,
	str	q3, [sp, 160]	//,
	str	q4, [sp, 176]	//,
	str	q5, [sp, 192]	//,
	str	q6, [sp, 208]	//,
	str	q7, [sp, 224]	//,
// varargs-use-dll.c:92: DECLARE_TEST (few_longs);
	adrp	x0, :got:__stack_chk_guard	// tmp95,
	ldr	x0, [x0, #:got_lo12:__stack_chk_guard]	// tmp94, tmp95,
	ldr	x1, [x0]	// tmp112,
	str	x1, [sp, 104]	// tmp112, D.6688
	mov	x1, 0	// tmp112
	add	x0, sp, 304	// tmp117,,
	str	x0, [sp, 72]	// tmp117, MEM[(struct  *)&argv].__stack
	add	x0, sp, 304	// tmp118,,
	str	x0, [sp, 80]	// tmp118, MEM[(struct  *)&argv].__gr_top
	add	x0, sp, 240	// tmp97,,
	str	x0, [sp, 88]	// tmp97, MEM[(struct  *)&argv].__vr_top
	mov	w0, -56	// tmp98,
	str	w0, [sp, 96]	// tmp98, MEM[(struct  *)&argv].__gr_offs
	mov	w0, -128	// tmp99,
	str	w0, [sp, 100]	// tmp99, MEM[(struct  *)&argv].__vr_offs
	add	x0, sp, 16	// tmp100,,
	add	x1, sp, 72	// tmp101,,
	ldp	q0, q1, [x1]	// tmp102, tmp103, argv
	stp	q0, q1, [x0]	// tmp102, tmp103,
	add	x0, sp, 16	// tmp104,,
	ldr	x2, [sp, 56]	// tmp105, func
	mov	x1, x0	//, tmp104
	adrp	x0, .LC3	// tmp106,
	add	x0, x0, :lo12:.LC3	//, tmp106,
	blr	x2		// tmp105
	str	w0, [sp, 68]	//, retval
	ldr	w2, [sp, 68]	//, retval
	adrp	x0, .LC3	// tmp107,
	add	x1, x0, :lo12:.LC3	//, tmp107,
	adrp	x0, .LC1	// tmp108,
	add	x0, x0, :lo12:.LC1	//, tmp108,
	bl	printf		//
	ldr	w0, [sp, 68]	// _8, retval
	mov	w1, w0	// <retval>, _8
	adrp	x0, :got:__stack_chk_guard	// tmp111,
	ldr	x0, [x0, #:got_lo12:__stack_chk_guard]	// tmp110, tmp111,
	ldr	x3, [sp, 104]	// tmp113, D.6688
	ldr	x2, [x0]	// tmp114,
	subs	x3, x3, x2	// tmp113, tmp114
	mov	x2, 0	// tmp114
	beq	.L12		//,
	bl	__stack_chk_fail		//
.L12:
	mov	w0, w1	//, <retval>
	ldp	x29, x30, [sp], 304	//,,,
	.cfi_restore 30
	.cfi_restore 29
	.cfi_def_cfa_offset 0
	ret	
	.cfi_endproc
.LFE4:
	.size	test_va_list_few_longs, .-test_va_list_few_longs
	.align	2
	.global	use_indirect_va_list_few_longs
	.type	use_indirect_va_list_few_longs, %function
use_indirect_va_list_few_longs:
.LFB5:
	.cfi_startproc
	stp	x29, x30, [sp, -96]!	//,,,
	.cfi_def_cfa_offset 96
	.cfi_offset 29, -96
	.cfi_offset 30, -88
	mov	x29, sp	//,
	str	x19, [sp, 16]	//,
	.cfi_offset 19, -80
	str	x0, [sp, 72]	// func, func
	mov	x19, x1	// tmp94,
// varargs-use-dll.c:92: DECLARE_TEST (few_longs);
	add	x0, sp, 32	// tmp95,,
	mov	x1, x19	// tmp96, tmp94
	ldp	q0, q1, [x1]	// tmp97, tmp98, argv
	stp	q0, q1, [x0]	// tmp97, tmp98,
	add	x0, sp, 32	// tmp99,,
	ldr	x2, [sp, 72]	// tmp100, func
	mov	x1, x0	//, tmp99
	adrp	x0, .LC3	// tmp101,
	add	x0, x0, :lo12:.LC3	//, tmp101,
	blr	x2		// tmp100
	str	w0, [sp, 92]	//, retval
	ldr	w2, [sp, 92]	//, retval
	adrp	x0, .LC3	// tmp102,
	add	x1, x0, :lo12:.LC3	//, tmp102,
	adrp	x0, .LC2	// tmp103,
	add	x0, x0, :lo12:.LC2	//, tmp103,
	bl	printf		//
	ldr	w0, [sp, 92]	// _6, retval
	ldr	x19, [sp, 16]	//,
	ldp	x29, x30, [sp], 96	//,,,
	.cfi_restore 30
	.cfi_restore 29
	.cfi_restore 19
	.cfi_def_cfa_offset 0
	ret	
	.cfi_endproc
.LFE5:
	.size	use_indirect_va_list_few_longs, .-use_indirect_va_list_few_longs
	.align	2
	.global	test_indirect_va_list_few_longs
	.type	test_indirect_va_list_few_longs, %function
test_indirect_va_list_few_longs:
.LFB6:
	.cfi_startproc
	stp	x29, x30, [sp, -304]!	//,,,
	.cfi_def_cfa_offset 304
	.cfi_offset 29, -304
	.cfi_offset 30, -296
	mov	x29, sp	//,
	str	x0, [sp, 56]	// func, func
	str	x1, [sp, 248]	//,
	str	x2, [sp, 256]	//,
	str	x3, [sp, 264]	//,
	str	x4, [sp, 272]	//,
	str	x5, [sp, 280]	//,
	str	x6, [sp, 288]	//,
	str	x7, [sp, 296]	//,
	str	q0, [sp, 112]	//,
	str	q1, [sp, 128]	//,
	str	q2, [sp, 144]	//,
	str	q3, [sp, 160]	//,
	str	q4, [sp, 176]	//,
	str	q5, [sp, 192]	//,
	str	q6, [sp, 208]	//,
	str	q7, [sp, 224]	//,
// varargs-use-dll.c:92: DECLARE_TEST (few_longs);
	adrp	x0, :got:__stack_chk_guard	// tmp95,
	ldr	x0, [x0, #:got_lo12:__stack_chk_guard]	// tmp94, tmp95,
	ldr	x1, [x0]	// tmp108,
	str	x1, [sp, 104]	// tmp108, D.6695
	mov	x1, 0	// tmp108
	add	x0, sp, 304	// tmp113,,
	str	x0, [sp, 72]	// tmp113, MEM[(struct  *)&argv].__stack
	add	x0, sp, 304	// tmp114,,
	str	x0, [sp, 80]	// tmp114, MEM[(struct  *)&argv].__gr_top
	add	x0, sp, 240	// tmp97,,
	str	x0, [sp, 88]	// tmp97, MEM[(struct  *)&argv].__vr_top
	mov	w0, -56	// tmp98,
	str	w0, [sp, 96]	// tmp98, MEM[(struct  *)&argv].__gr_offs
	mov	w0, -128	// tmp99,
	str	w0, [sp, 100]	// tmp99, MEM[(struct  *)&argv].__vr_offs
	add	x0, sp, 16	// tmp100,,
	add	x1, sp, 72	// tmp101,,
	ldp	q0, q1, [x1]	// tmp102, tmp103, argv
	stp	q0, q1, [x0]	// tmp102, tmp103,
	add	x0, sp, 16	// tmp104,,
	mov	x1, x0	//, tmp104
	ldr	x0, [sp, 56]	//, func
	bl	use_indirect_va_list_few_longs		//
	str	w0, [sp, 68]	//, retval
	ldr	w0, [sp, 68]	// _7, retval
	mov	w1, w0	// <retval>, _7
	adrp	x0, :got:__stack_chk_guard	// tmp107,
	ldr	x0, [x0, #:got_lo12:__stack_chk_guard]	// tmp106, tmp107,
	ldr	x3, [sp, 104]	// tmp109, D.6695
	ldr	x2, [x0]	// tmp110,
	subs	x3, x3, x2	// tmp109, tmp110
	mov	x2, 0	// tmp110
	beq	.L17		//,
	bl	__stack_chk_fail		//
.L17:
	mov	w0, w1	//, <retval>
	ldp	x29, x30, [sp], 304	//,,,
	.cfi_restore 30
	.cfi_restore 29
	.cfi_def_cfa_offset 0
	ret	
	.cfi_endproc
.LFE6:
	.size	test_indirect_va_list_few_longs, .-test_indirect_va_list_few_longs
	.section	.rodata
	.align	3
.LC4:
	.string	"several_longs"
	.text
	.align	2
	.global	test_va_list_several_longs
	.type	test_va_list_several_longs, %function
test_va_list_several_longs:
.LFB7:
	.cfi_startproc
	stp	x29, x30, [sp, -304]!	//,,,
	.cfi_def_cfa_offset 304
	.cfi_offset 29, -304
	.cfi_offset 30, -296
	mov	x29, sp	//,
	str	x0, [sp, 56]	// func, func
	str	x1, [sp, 248]	//,
	str	x2, [sp, 256]	//,
	str	x3, [sp, 264]	//,
	str	x4, [sp, 272]	//,
	str	x5, [sp, 280]	//,
	str	x6, [sp, 288]	//,
	str	x7, [sp, 296]	//,
	str	q0, [sp, 112]	//,
	str	q1, [sp, 128]	//,
	str	q2, [sp, 144]	//,
	str	q3, [sp, 160]	//,
	str	q4, [sp, 176]	//,
	str	q5, [sp, 192]	//,
	str	q6, [sp, 208]	//,
	str	q7, [sp, 224]	//,
// varargs-use-dll.c:93: DECLARE_TEST (several_longs);
	adrp	x0, :got:__stack_chk_guard	// tmp95,
	ldr	x0, [x0, #:got_lo12:__stack_chk_guard]	// tmp94, tmp95,
	ldr	x1, [x0]	// tmp112,
	str	x1, [sp, 104]	// tmp112, D.6700
	mov	x1, 0	// tmp112
	add	x0, sp, 304	// tmp117,,
	str	x0, [sp, 72]	// tmp117, MEM[(struct  *)&argv].__stack
	add	x0, sp, 304	// tmp118,,
	str	x0, [sp, 80]	// tmp118, MEM[(struct  *)&argv].__gr_top
	add	x0, sp, 240	// tmp97,,
	str	x0, [sp, 88]	// tmp97, MEM[(struct  *)&argv].__vr_top
	mov	w0, -56	// tmp98,
	str	w0, [sp, 96]	// tmp98, MEM[(struct  *)&argv].__gr_offs
	mov	w0, -128	// tmp99,
	str	w0, [sp, 100]	// tmp99, MEM[(struct  *)&argv].__vr_offs
	add	x0, sp, 16	// tmp100,,
	add	x1, sp, 72	// tmp101,,
	ldp	q0, q1, [x1]	// tmp102, tmp103, argv
	stp	q0, q1, [x0]	// tmp102, tmp103,
	add	x0, sp, 16	// tmp104,,
	ldr	x2, [sp, 56]	// tmp105, func
	mov	x1, x0	//, tmp104
	adrp	x0, .LC4	// tmp106,
	add	x0, x0, :lo12:.LC4	//, tmp106,
	blr	x2		// tmp105
	str	w0, [sp, 68]	//, retval
	ldr	w2, [sp, 68]	//, retval
	adrp	x0, .LC4	// tmp107,
	add	x1, x0, :lo12:.LC4	//, tmp107,
	adrp	x0, .LC1	// tmp108,
	add	x0, x0, :lo12:.LC1	//, tmp108,
	bl	printf		//
	ldr	w0, [sp, 68]	// _8, retval
	mov	w1, w0	// <retval>, _8
	adrp	x0, :got:__stack_chk_guard	// tmp111,
	ldr	x0, [x0, #:got_lo12:__stack_chk_guard]	// tmp110, tmp111,
	ldr	x3, [sp, 104]	// tmp113, D.6700
	ldr	x2, [x0]	// tmp114,
	subs	x3, x3, x2	// tmp113, tmp114
	mov	x2, 0	// tmp114
	beq	.L20		//,
	bl	__stack_chk_fail		//
.L20:
	mov	w0, w1	//, <retval>
	ldp	x29, x30, [sp], 304	//,,,
	.cfi_restore 30
	.cfi_restore 29
	.cfi_def_cfa_offset 0
	ret	
	.cfi_endproc
.LFE7:
	.size	test_va_list_several_longs, .-test_va_list_several_longs
	.align	2
	.global	use_indirect_va_list_several_longs
	.type	use_indirect_va_list_several_longs, %function
use_indirect_va_list_several_longs:
.LFB8:
	.cfi_startproc
	stp	x29, x30, [sp, -96]!	//,,,
	.cfi_def_cfa_offset 96
	.cfi_offset 29, -96
	.cfi_offset 30, -88
	mov	x29, sp	//,
	str	x19, [sp, 16]	//,
	.cfi_offset 19, -80
	str	x0, [sp, 72]	// func, func
	mov	x19, x1	// tmp94,
// varargs-use-dll.c:93: DECLARE_TEST (several_longs);
	add	x0, sp, 32	// tmp95,,
	mov	x1, x19	// tmp96, tmp94
	ldp	q0, q1, [x1]	// tmp97, tmp98, argv
	stp	q0, q1, [x0]	// tmp97, tmp98,
	add	x0, sp, 32	// tmp99,,
	ldr	x2, [sp, 72]	// tmp100, func
	mov	x1, x0	//, tmp99
	adrp	x0, .LC4	// tmp101,
	add	x0, x0, :lo12:.LC4	//, tmp101,
	blr	x2		// tmp100
	str	w0, [sp, 92]	//, retval
	ldr	w2, [sp, 92]	//, retval
	adrp	x0, .LC4	// tmp102,
	add	x1, x0, :lo12:.LC4	//, tmp102,
	adrp	x0, .LC2	// tmp103,
	add	x0, x0, :lo12:.LC2	//, tmp103,
	bl	printf		//
	ldr	w0, [sp, 92]	// _6, retval
	ldr	x19, [sp, 16]	//,
	ldp	x29, x30, [sp], 96	//,,,
	.cfi_restore 30
	.cfi_restore 29
	.cfi_restore 19
	.cfi_def_cfa_offset 0
	ret	
	.cfi_endproc
.LFE8:
	.size	use_indirect_va_list_several_longs, .-use_indirect_va_list_several_longs
	.align	2
	.global	test_indirect_va_list_several_longs
	.type	test_indirect_va_list_several_longs, %function
test_indirect_va_list_several_longs:
.LFB9:
	.cfi_startproc
	stp	x29, x30, [sp, -304]!	//,,,
	.cfi_def_cfa_offset 304
	.cfi_offset 29, -304
	.cfi_offset 30, -296
	mov	x29, sp	//,
	str	x0, [sp, 56]	// func, func
	str	x1, [sp, 248]	//,
	str	x2, [sp, 256]	//,
	str	x3, [sp, 264]	//,
	str	x4, [sp, 272]	//,
	str	x5, [sp, 280]	//,
	str	x6, [sp, 288]	//,
	str	x7, [sp, 296]	//,
	str	q0, [sp, 112]	//,
	str	q1, [sp, 128]	//,
	str	q2, [sp, 144]	//,
	str	q3, [sp, 160]	//,
	str	q4, [sp, 176]	//,
	str	q5, [sp, 192]	//,
	str	q6, [sp, 208]	//,
	str	q7, [sp, 224]	//,
// varargs-use-dll.c:93: DECLARE_TEST (several_longs);
	adrp	x0, :got:__stack_chk_guard	// tmp95,
	ldr	x0, [x0, #:got_lo12:__stack_chk_guard]	// tmp94, tmp95,
	ldr	x1, [x0]	// tmp108,
	str	x1, [sp, 104]	// tmp108, D.6707
	mov	x1, 0	// tmp108
	add	x0, sp, 304	// tmp113,,
	str	x0, [sp, 72]	// tmp113, MEM[(struct  *)&argv].__stack
	add	x0, sp, 304	// tmp114,,
	str	x0, [sp, 80]	// tmp114, MEM[(struct  *)&argv].__gr_top
	add	x0, sp, 240	// tmp97,,
	str	x0, [sp, 88]	// tmp97, MEM[(struct  *)&argv].__vr_top
	mov	w0, -56	// tmp98,
	str	w0, [sp, 96]	// tmp98, MEM[(struct  *)&argv].__gr_offs
	mov	w0, -128	// tmp99,
	str	w0, [sp, 100]	// tmp99, MEM[(struct  *)&argv].__vr_offs
	add	x0, sp, 16	// tmp100,,
	add	x1, sp, 72	// tmp101,,
	ldp	q0, q1, [x1]	// tmp102, tmp103, argv
	stp	q0, q1, [x0]	// tmp102, tmp103,
	add	x0, sp, 16	// tmp104,,
	mov	x1, x0	//, tmp104
	ldr	x0, [sp, 56]	//, func
	bl	use_indirect_va_list_several_longs		//
	str	w0, [sp, 68]	//, retval
	ldr	w0, [sp, 68]	// _7, retval
	mov	w1, w0	// <retval>, _7
	adrp	x0, :got:__stack_chk_guard	// tmp107,
	ldr	x0, [x0, #:got_lo12:__stack_chk_guard]	// tmp106, tmp107,
	ldr	x3, [sp, 104]	// tmp109, D.6707
	ldr	x2, [x0]	// tmp110,
	subs	x3, x3, x2	// tmp109, tmp110
	mov	x2, 0	// tmp110
	beq	.L25		//,
	bl	__stack_chk_fail		//
.L25:
	mov	w0, w1	//, <retval>
	ldp	x29, x30, [sp], 304	//,,,
	.cfi_restore 30
	.cfi_restore 29
	.cfi_def_cfa_offset 0
	ret	
	.cfi_endproc
.LFE9:
	.size	test_indirect_va_list_several_longs, .-test_indirect_va_list_several_longs
	.section	.rodata
	.align	3
.LC5:
	.string	"many_longs"
	.text
	.align	2
	.global	test_va_list_many_longs
	.type	test_va_list_many_longs, %function
test_va_list_many_longs:
.LFB10:
	.cfi_startproc
	stp	x29, x30, [sp, -304]!	//,,,
	.cfi_def_cfa_offset 304
	.cfi_offset 29, -304
	.cfi_offset 30, -296
	mov	x29, sp	//,
	str	x0, [sp, 56]	// func, func
	str	x1, [sp, 248]	//,
	str	x2, [sp, 256]	//,
	str	x3, [sp, 264]	//,
	str	x4, [sp, 272]	//,
	str	x5, [sp, 280]	//,
	str	x6, [sp, 288]	//,
	str	x7, [sp, 296]	//,
	str	q0, [sp, 112]	//,
	str	q1, [sp, 128]	//,
	str	q2, [sp, 144]	//,
	str	q3, [sp, 160]	//,
	str	q4, [sp, 176]	//,
	str	q5, [sp, 192]	//,
	str	q6, [sp, 208]	//,
	str	q7, [sp, 224]	//,
// varargs-use-dll.c:94: DECLARE_TEST (many_longs);
	adrp	x0, :got:__stack_chk_guard	// tmp95,
	ldr	x0, [x0, #:got_lo12:__stack_chk_guard]	// tmp94, tmp95,
	ldr	x1, [x0]	// tmp112,
	str	x1, [sp, 104]	// tmp112, D.6712
	mov	x1, 0	// tmp112
	add	x0, sp, 304	// tmp117,,
	str	x0, [sp, 72]	// tmp117, MEM[(struct  *)&argv].__stack
	add	x0, sp, 304	// tmp118,,
	str	x0, [sp, 80]	// tmp118, MEM[(struct  *)&argv].__gr_top
	add	x0, sp, 240	// tmp97,,
	str	x0, [sp, 88]	// tmp97, MEM[(struct  *)&argv].__vr_top
	mov	w0, -56	// tmp98,
	str	w0, [sp, 96]	// tmp98, MEM[(struct  *)&argv].__gr_offs
	mov	w0, -128	// tmp99,
	str	w0, [sp, 100]	// tmp99, MEM[(struct  *)&argv].__vr_offs
	add	x0, sp, 16	// tmp100,,
	add	x1, sp, 72	// tmp101,,
	ldp	q0, q1, [x1]	// tmp102, tmp103, argv
	stp	q0, q1, [x0]	// tmp102, tmp103,
	add	x0, sp, 16	// tmp104,,
	ldr	x2, [sp, 56]	// tmp105, func
	mov	x1, x0	//, tmp104
	adrp	x0, .LC5	// tmp106,
	add	x0, x0, :lo12:.LC5	//, tmp106,
	blr	x2		// tmp105
	str	w0, [sp, 68]	//, retval
	ldr	w2, [sp, 68]	//, retval
	adrp	x0, .LC5	// tmp107,
	add	x1, x0, :lo12:.LC5	//, tmp107,
	adrp	x0, .LC1	// tmp108,
	add	x0, x0, :lo12:.LC1	//, tmp108,
	bl	printf		//
	ldr	w0, [sp, 68]	// _8, retval
	mov	w1, w0	// <retval>, _8
	adrp	x0, :got:__stack_chk_guard	// tmp111,
	ldr	x0, [x0, #:got_lo12:__stack_chk_guard]	// tmp110, tmp111,
	ldr	x3, [sp, 104]	// tmp113, D.6712
	ldr	x2, [x0]	// tmp114,
	subs	x3, x3, x2	// tmp113, tmp114
	mov	x2, 0	// tmp114
	beq	.L28		//,
	bl	__stack_chk_fail		//
.L28:
	mov	w0, w1	//, <retval>
	ldp	x29, x30, [sp], 304	//,,,
	.cfi_restore 30
	.cfi_restore 29
	.cfi_def_cfa_offset 0
	ret	
	.cfi_endproc
.LFE10:
	.size	test_va_list_many_longs, .-test_va_list_many_longs
	.align	2
	.global	use_indirect_va_list_many_longs
	.type	use_indirect_va_list_many_longs, %function
use_indirect_va_list_many_longs:
.LFB11:
	.cfi_startproc
	stp	x29, x30, [sp, -96]!	//,,,
	.cfi_def_cfa_offset 96
	.cfi_offset 29, -96
	.cfi_offset 30, -88
	mov	x29, sp	//,
	str	x19, [sp, 16]	//,
	.cfi_offset 19, -80
	str	x0, [sp, 72]	// func, func
	mov	x19, x1	// tmp94,
// varargs-use-dll.c:94: DECLARE_TEST (many_longs);
	add	x0, sp, 32	// tmp95,,
	mov	x1, x19	// tmp96, tmp94
	ldp	q0, q1, [x1]	// tmp97, tmp98, argv
	stp	q0, q1, [x0]	// tmp97, tmp98,
	add	x0, sp, 32	// tmp99,,
	ldr	x2, [sp, 72]	// tmp100, func
	mov	x1, x0	//, tmp99
	adrp	x0, .LC5	// tmp101,
	add	x0, x0, :lo12:.LC5	//, tmp101,
	blr	x2		// tmp100
	str	w0, [sp, 92]	//, retval
	ldr	w2, [sp, 92]	//, retval
	adrp	x0, .LC5	// tmp102,
	add	x1, x0, :lo12:.LC5	//, tmp102,
	adrp	x0, .LC2	// tmp103,
	add	x0, x0, :lo12:.LC2	//, tmp103,
	bl	printf		//
	ldr	w0, [sp, 92]	// _6, retval
	ldr	x19, [sp, 16]	//,
	ldp	x29, x30, [sp], 96	//,,,
	.cfi_restore 30
	.cfi_restore 29
	.cfi_restore 19
	.cfi_def_cfa_offset 0
	ret	
	.cfi_endproc
.LFE11:
	.size	use_indirect_va_list_many_longs, .-use_indirect_va_list_many_longs
	.align	2
	.global	test_indirect_va_list_many_longs
	.type	test_indirect_va_list_many_longs, %function
test_indirect_va_list_many_longs:
.LFB12:
	.cfi_startproc
	stp	x29, x30, [sp, -304]!	//,,,
	.cfi_def_cfa_offset 304
	.cfi_offset 29, -304
	.cfi_offset 30, -296
	mov	x29, sp	//,
	str	x0, [sp, 56]	// func, func
	str	x1, [sp, 248]	//,
	str	x2, [sp, 256]	//,
	str	x3, [sp, 264]	//,
	str	x4, [sp, 272]	//,
	str	x5, [sp, 280]	//,
	str	x6, [sp, 288]	//,
	str	x7, [sp, 296]	//,
	str	q0, [sp, 112]	//,
	str	q1, [sp, 128]	//,
	str	q2, [sp, 144]	//,
	str	q3, [sp, 160]	//,
	str	q4, [sp, 176]	//,
	str	q5, [sp, 192]	//,
	str	q6, [sp, 208]	//,
	str	q7, [sp, 224]	//,
// varargs-use-dll.c:94: DECLARE_TEST (many_longs);
	adrp	x0, :got:__stack_chk_guard	// tmp95,
	ldr	x0, [x0, #:got_lo12:__stack_chk_guard]	// tmp94, tmp95,
	ldr	x1, [x0]	// tmp108,
	str	x1, [sp, 104]	// tmp108, D.6719
	mov	x1, 0	// tmp108
	add	x0, sp, 304	// tmp113,,
	str	x0, [sp, 72]	// tmp113, MEM[(struct  *)&argv].__stack
	add	x0, sp, 304	// tmp114,,
	str	x0, [sp, 80]	// tmp114, MEM[(struct  *)&argv].__gr_top
	add	x0, sp, 240	// tmp97,,
	str	x0, [sp, 88]	// tmp97, MEM[(struct  *)&argv].__vr_top
	mov	w0, -56	// tmp98,
	str	w0, [sp, 96]	// tmp98, MEM[(struct  *)&argv].__gr_offs
	mov	w0, -128	// tmp99,
	str	w0, [sp, 100]	// tmp99, MEM[(struct  *)&argv].__vr_offs
	add	x0, sp, 16	// tmp100,,
	add	x1, sp, 72	// tmp101,,
	ldp	q0, q1, [x1]	// tmp102, tmp103, argv
	stp	q0, q1, [x0]	// tmp102, tmp103,
	add	x0, sp, 16	// tmp104,,
	mov	x1, x0	//, tmp104
	ldr	x0, [sp, 56]	//, func
	bl	use_indirect_va_list_many_longs		//
	str	w0, [sp, 68]	//, retval
	ldr	w0, [sp, 68]	// _7, retval
	mov	w1, w0	// <retval>, _7
	adrp	x0, :got:__stack_chk_guard	// tmp107,
	ldr	x0, [x0, #:got_lo12:__stack_chk_guard]	// tmp106, tmp107,
	ldr	x3, [sp, 104]	// tmp109, D.6719
	ldr	x2, [x0]	// tmp110,
	subs	x3, x3, x2	// tmp109, tmp110
	mov	x2, 0	// tmp110
	beq	.L33		//,
	bl	__stack_chk_fail		//
.L33:
	mov	w0, w1	//, <retval>
	ldp	x29, x30, [sp], 304	//,,,
	.cfi_restore 30
	.cfi_restore 29
	.cfi_def_cfa_offset 0
	ret	
	.cfi_endproc
.LFE12:
	.size	test_indirect_va_list_many_longs, .-test_indirect_va_list_many_longs
	.section	.rodata
	.align	3
.LC6:
	.string	"few_ints"
	.text
	.align	2
	.global	test_va_list_few_ints
	.type	test_va_list_few_ints, %function
test_va_list_few_ints:
.LFB13:
	.cfi_startproc
	stp	x29, x30, [sp, -304]!	//,,,
	.cfi_def_cfa_offset 304
	.cfi_offset 29, -304
	.cfi_offset 30, -296
	mov	x29, sp	//,
	str	x0, [sp, 56]	// func, func
	str	x1, [sp, 248]	//,
	str	x2, [sp, 256]	//,
	str	x3, [sp, 264]	//,
	str	x4, [sp, 272]	//,
	str	x5, [sp, 280]	//,
	str	x6, [sp, 288]	//,
	str	x7, [sp, 296]	//,
	str	q0, [sp, 112]	//,
	str	q1, [sp, 128]	//,
	str	q2, [sp, 144]	//,
	str	q3, [sp, 160]	//,
	str	q4, [sp, 176]	//,
	str	q5, [sp, 192]	//,
	str	q6, [sp, 208]	//,
	str	q7, [sp, 224]	//,
// varargs-use-dll.c:96: DECLARE_TEST (few_ints);
	adrp	x0, :got:__stack_chk_guard	// tmp95,
	ldr	x0, [x0, #:got_lo12:__stack_chk_guard]	// tmp94, tmp95,
	ldr	x1, [x0]	// tmp112,
	str	x1, [sp, 104]	// tmp112, D.6724
	mov	x1, 0	// tmp112
	add	x0, sp, 304	// tmp117,,
	str	x0, [sp, 72]	// tmp117, MEM[(struct  *)&argv].__stack
	add	x0, sp, 304	// tmp118,,
	str	x0, [sp, 80]	// tmp118, MEM[(struct  *)&argv].__gr_top
	add	x0, sp, 240	// tmp97,,
	str	x0, [sp, 88]	// tmp97, MEM[(struct  *)&argv].__vr_top
	mov	w0, -56	// tmp98,
	str	w0, [sp, 96]	// tmp98, MEM[(struct  *)&argv].__gr_offs
	mov	w0, -128	// tmp99,
	str	w0, [sp, 100]	// tmp99, MEM[(struct  *)&argv].__vr_offs
	add	x0, sp, 16	// tmp100,,
	add	x1, sp, 72	// tmp101,,
	ldp	q0, q1, [x1]	// tmp102, tmp103, argv
	stp	q0, q1, [x0]	// tmp102, tmp103,
	add	x0, sp, 16	// tmp104,,
	ldr	x2, [sp, 56]	// tmp105, func
	mov	x1, x0	//, tmp104
	adrp	x0, .LC6	// tmp106,
	add	x0, x0, :lo12:.LC6	//, tmp106,
	blr	x2		// tmp105
	str	w0, [sp, 68]	//, retval
	ldr	w2, [sp, 68]	//, retval
	adrp	x0, .LC6	// tmp107,
	add	x1, x0, :lo12:.LC6	//, tmp107,
	adrp	x0, .LC1	// tmp108,
	add	x0, x0, :lo12:.LC1	//, tmp108,
	bl	printf		//
	ldr	w0, [sp, 68]	// _8, retval
	mov	w1, w0	// <retval>, _8
	adrp	x0, :got:__stack_chk_guard	// tmp111,
	ldr	x0, [x0, #:got_lo12:__stack_chk_guard]	// tmp110, tmp111,
	ldr	x3, [sp, 104]	// tmp113, D.6724
	ldr	x2, [x0]	// tmp114,
	subs	x3, x3, x2	// tmp113, tmp114
	mov	x2, 0	// tmp114
	beq	.L36		//,
	bl	__stack_chk_fail		//
.L36:
	mov	w0, w1	//, <retval>
	ldp	x29, x30, [sp], 304	//,,,
	.cfi_restore 30
	.cfi_restore 29
	.cfi_def_cfa_offset 0
	ret	
	.cfi_endproc
.LFE13:
	.size	test_va_list_few_ints, .-test_va_list_few_ints
	.align	2
	.global	use_indirect_va_list_few_ints
	.type	use_indirect_va_list_few_ints, %function
use_indirect_va_list_few_ints:
.LFB14:
	.cfi_startproc
	stp	x29, x30, [sp, -96]!	//,,,
	.cfi_def_cfa_offset 96
	.cfi_offset 29, -96
	.cfi_offset 30, -88
	mov	x29, sp	//,
	str	x19, [sp, 16]	//,
	.cfi_offset 19, -80
	str	x0, [sp, 72]	// func, func
	mov	x19, x1	// tmp94,
// varargs-use-dll.c:96: DECLARE_TEST (few_ints);
	add	x0, sp, 32	// tmp95,,
	mov	x1, x19	// tmp96, tmp94
	ldp	q0, q1, [x1]	// tmp97, tmp98, argv
	stp	q0, q1, [x0]	// tmp97, tmp98,
	add	x0, sp, 32	// tmp99,,
	ldr	x2, [sp, 72]	// tmp100, func
	mov	x1, x0	//, tmp99
	adrp	x0, .LC6	// tmp101,
	add	x0, x0, :lo12:.LC6	//, tmp101,
	blr	x2		// tmp100
	str	w0, [sp, 92]	//, retval
	ldr	w2, [sp, 92]	//, retval
	adrp	x0, .LC6	// tmp102,
	add	x1, x0, :lo12:.LC6	//, tmp102,
	adrp	x0, .LC2	// tmp103,
	add	x0, x0, :lo12:.LC2	//, tmp103,
	bl	printf		//
	ldr	w0, [sp, 92]	// _6, retval
	ldr	x19, [sp, 16]	//,
	ldp	x29, x30, [sp], 96	//,,,
	.cfi_restore 30
	.cfi_restore 29
	.cfi_restore 19
	.cfi_def_cfa_offset 0
	ret	
	.cfi_endproc
.LFE14:
	.size	use_indirect_va_list_few_ints, .-use_indirect_va_list_few_ints
	.align	2
	.global	test_indirect_va_list_few_ints
	.type	test_indirect_va_list_few_ints, %function
test_indirect_va_list_few_ints:
.LFB15:
	.cfi_startproc
	stp	x29, x30, [sp, -304]!	//,,,
	.cfi_def_cfa_offset 304
	.cfi_offset 29, -304
	.cfi_offset 30, -296
	mov	x29, sp	//,
	str	x0, [sp, 56]	// func, func
	str	x1, [sp, 248]	//,
	str	x2, [sp, 256]	//,
	str	x3, [sp, 264]	//,
	str	x4, [sp, 272]	//,
	str	x5, [sp, 280]	//,
	str	x6, [sp, 288]	//,
	str	x7, [sp, 296]	//,
	str	q0, [sp, 112]	//,
	str	q1, [sp, 128]	//,
	str	q2, [sp, 144]	//,
	str	q3, [sp, 160]	//,
	str	q4, [sp, 176]	//,
	str	q5, [sp, 192]	//,
	str	q6, [sp, 208]	//,
	str	q7, [sp, 224]	//,
// varargs-use-dll.c:96: DECLARE_TEST (few_ints);
	adrp	x0, :got:__stack_chk_guard	// tmp95,
	ldr	x0, [x0, #:got_lo12:__stack_chk_guard]	// tmp94, tmp95,
	ldr	x1, [x0]	// tmp108,
	str	x1, [sp, 104]	// tmp108, D.6731
	mov	x1, 0	// tmp108
	add	x0, sp, 304	// tmp113,,
	str	x0, [sp, 72]	// tmp113, MEM[(struct  *)&argv].__stack
	add	x0, sp, 304	// tmp114,,
	str	x0, [sp, 80]	// tmp114, MEM[(struct  *)&argv].__gr_top
	add	x0, sp, 240	// tmp97,,
	str	x0, [sp, 88]	// tmp97, MEM[(struct  *)&argv].__vr_top
	mov	w0, -56	// tmp98,
	str	w0, [sp, 96]	// tmp98, MEM[(struct  *)&argv].__gr_offs
	mov	w0, -128	// tmp99,
	str	w0, [sp, 100]	// tmp99, MEM[(struct  *)&argv].__vr_offs
	add	x0, sp, 16	// tmp100,,
	add	x1, sp, 72	// tmp101,,
	ldp	q0, q1, [x1]	// tmp102, tmp103, argv
	stp	q0, q1, [x0]	// tmp102, tmp103,
	add	x0, sp, 16	// tmp104,,
	mov	x1, x0	//, tmp104
	ldr	x0, [sp, 56]	//, func
	bl	use_indirect_va_list_few_ints		//
	str	w0, [sp, 68]	//, retval
	ldr	w0, [sp, 68]	// _7, retval
	mov	w1, w0	// <retval>, _7
	adrp	x0, :got:__stack_chk_guard	// tmp107,
	ldr	x0, [x0, #:got_lo12:__stack_chk_guard]	// tmp106, tmp107,
	ldr	x3, [sp, 104]	// tmp109, D.6731
	ldr	x2, [x0]	// tmp110,
	subs	x3, x3, x2	// tmp109, tmp110
	mov	x2, 0	// tmp110
	beq	.L41		//,
	bl	__stack_chk_fail		//
.L41:
	mov	w0, w1	//, <retval>
	ldp	x29, x30, [sp], 304	//,,,
	.cfi_restore 30
	.cfi_restore 29
	.cfi_def_cfa_offset 0
	ret	
	.cfi_endproc
.LFE15:
	.size	test_indirect_va_list_few_ints, .-test_indirect_va_list_few_ints
	.section	.rodata
	.align	3
.LC7:
	.string	"several_ints"
	.text
	.align	2
	.global	test_va_list_several_ints
	.type	test_va_list_several_ints, %function
test_va_list_several_ints:
.LFB16:
	.cfi_startproc
	stp	x29, x30, [sp, -304]!	//,,,
	.cfi_def_cfa_offset 304
	.cfi_offset 29, -304
	.cfi_offset 30, -296
	mov	x29, sp	//,
	str	x0, [sp, 56]	// func, func
	str	x1, [sp, 248]	//,
	str	x2, [sp, 256]	//,
	str	x3, [sp, 264]	//,
	str	x4, [sp, 272]	//,
	str	x5, [sp, 280]	//,
	str	x6, [sp, 288]	//,
	str	x7, [sp, 296]	//,
	str	q0, [sp, 112]	//,
	str	q1, [sp, 128]	//,
	str	q2, [sp, 144]	//,
	str	q3, [sp, 160]	//,
	str	q4, [sp, 176]	//,
	str	q5, [sp, 192]	//,
	str	q6, [sp, 208]	//,
	str	q7, [sp, 224]	//,
// varargs-use-dll.c:97: DECLARE_TEST (several_ints);
	adrp	x0, :got:__stack_chk_guard	// tmp95,
	ldr	x0, [x0, #:got_lo12:__stack_chk_guard]	// tmp94, tmp95,
	ldr	x1, [x0]	// tmp112,
	str	x1, [sp, 104]	// tmp112, D.6736
	mov	x1, 0	// tmp112
	add	x0, sp, 304	// tmp117,,
	str	x0, [sp, 72]	// tmp117, MEM[(struct  *)&argv].__stack
	add	x0, sp, 304	// tmp118,,
	str	x0, [sp, 80]	// tmp118, MEM[(struct  *)&argv].__gr_top
	add	x0, sp, 240	// tmp97,,
	str	x0, [sp, 88]	// tmp97, MEM[(struct  *)&argv].__vr_top
	mov	w0, -56	// tmp98,
	str	w0, [sp, 96]	// tmp98, MEM[(struct  *)&argv].__gr_offs
	mov	w0, -128	// tmp99,
	str	w0, [sp, 100]	// tmp99, MEM[(struct  *)&argv].__vr_offs
	add	x0, sp, 16	// tmp100,,
	add	x1, sp, 72	// tmp101,,
	ldp	q0, q1, [x1]	// tmp102, tmp103, argv
	stp	q0, q1, [x0]	// tmp102, tmp103,
	add	x0, sp, 16	// tmp104,,
	ldr	x2, [sp, 56]	// tmp105, func
	mov	x1, x0	//, tmp104
	adrp	x0, .LC7	// tmp106,
	add	x0, x0, :lo12:.LC7	//, tmp106,
	blr	x2		// tmp105
	str	w0, [sp, 68]	//, retval
	ldr	w2, [sp, 68]	//, retval
	adrp	x0, .LC7	// tmp107,
	add	x1, x0, :lo12:.LC7	//, tmp107,
	adrp	x0, .LC1	// tmp108,
	add	x0, x0, :lo12:.LC1	//, tmp108,
	bl	printf		//
	ldr	w0, [sp, 68]	// _8, retval
	mov	w1, w0	// <retval>, _8
	adrp	x0, :got:__stack_chk_guard	// tmp111,
	ldr	x0, [x0, #:got_lo12:__stack_chk_guard]	// tmp110, tmp111,
	ldr	x3, [sp, 104]	// tmp113, D.6736
	ldr	x2, [x0]	// tmp114,
	subs	x3, x3, x2	// tmp113, tmp114
	mov	x2, 0	// tmp114
	beq	.L44		//,
	bl	__stack_chk_fail		//
.L44:
	mov	w0, w1	//, <retval>
	ldp	x29, x30, [sp], 304	//,,,
	.cfi_restore 30
	.cfi_restore 29
	.cfi_def_cfa_offset 0
	ret	
	.cfi_endproc
.LFE16:
	.size	test_va_list_several_ints, .-test_va_list_several_ints
	.align	2
	.global	use_indirect_va_list_several_ints
	.type	use_indirect_va_list_several_ints, %function
use_indirect_va_list_several_ints:
.LFB17:
	.cfi_startproc
	stp	x29, x30, [sp, -96]!	//,,,
	.cfi_def_cfa_offset 96
	.cfi_offset 29, -96
	.cfi_offset 30, -88
	mov	x29, sp	//,
	str	x19, [sp, 16]	//,
	.cfi_offset 19, -80
	str	x0, [sp, 72]	// func, func
	mov	x19, x1	// tmp94,
// varargs-use-dll.c:97: DECLARE_TEST (several_ints);
	add	x0, sp, 32	// tmp95,,
	mov	x1, x19	// tmp96, tmp94
	ldp	q0, q1, [x1]	// tmp97, tmp98, argv
	stp	q0, q1, [x0]	// tmp97, tmp98,
	add	x0, sp, 32	// tmp99,,
	ldr	x2, [sp, 72]	// tmp100, func
	mov	x1, x0	//, tmp99
	adrp	x0, .LC7	// tmp101,
	add	x0, x0, :lo12:.LC7	//, tmp101,
	blr	x2		// tmp100
	str	w0, [sp, 92]	//, retval
	ldr	w2, [sp, 92]	//, retval
	adrp	x0, .LC7	// tmp102,
	add	x1, x0, :lo12:.LC7	//, tmp102,
	adrp	x0, .LC2	// tmp103,
	add	x0, x0, :lo12:.LC2	//, tmp103,
	bl	printf		//
	ldr	w0, [sp, 92]	// _6, retval
	ldr	x19, [sp, 16]	//,
	ldp	x29, x30, [sp], 96	//,,,
	.cfi_restore 30
	.cfi_restore 29
	.cfi_restore 19
	.cfi_def_cfa_offset 0
	ret	
	.cfi_endproc
.LFE17:
	.size	use_indirect_va_list_several_ints, .-use_indirect_va_list_several_ints
	.align	2
	.global	test_indirect_va_list_several_ints
	.type	test_indirect_va_list_several_ints, %function
test_indirect_va_list_several_ints:
.LFB18:
	.cfi_startproc
	stp	x29, x30, [sp, -304]!	//,,,
	.cfi_def_cfa_offset 304
	.cfi_offset 29, -304
	.cfi_offset 30, -296
	mov	x29, sp	//,
	str	x0, [sp, 56]	// func, func
	str	x1, [sp, 248]	//,
	str	x2, [sp, 256]	//,
	str	x3, [sp, 264]	//,
	str	x4, [sp, 272]	//,
	str	x5, [sp, 280]	//,
	str	x6, [sp, 288]	//,
	str	x7, [sp, 296]	//,
	str	q0, [sp, 112]	//,
	str	q1, [sp, 128]	//,
	str	q2, [sp, 144]	//,
	str	q3, [sp, 160]	//,
	str	q4, [sp, 176]	//,
	str	q5, [sp, 192]	//,
	str	q6, [sp, 208]	//,
	str	q7, [sp, 224]	//,
// varargs-use-dll.c:97: DECLARE_TEST (several_ints);
	adrp	x0, :got:__stack_chk_guard	// tmp95,
	ldr	x0, [x0, #:got_lo12:__stack_chk_guard]	// tmp94, tmp95,
	ldr	x1, [x0]	// tmp108,
	str	x1, [sp, 104]	// tmp108, D.6743
	mov	x1, 0	// tmp108
	add	x0, sp, 304	// tmp113,,
	str	x0, [sp, 72]	// tmp113, MEM[(struct  *)&argv].__stack
	add	x0, sp, 304	// tmp114,,
	str	x0, [sp, 80]	// tmp114, MEM[(struct  *)&argv].__gr_top
	add	x0, sp, 240	// tmp97,,
	str	x0, [sp, 88]	// tmp97, MEM[(struct  *)&argv].__vr_top
	mov	w0, -56	// tmp98,
	str	w0, [sp, 96]	// tmp98, MEM[(struct  *)&argv].__gr_offs
	mov	w0, -128	// tmp99,
	str	w0, [sp, 100]	// tmp99, MEM[(struct  *)&argv].__vr_offs
	add	x0, sp, 16	// tmp100,,
	add	x1, sp, 72	// tmp101,,
	ldp	q0, q1, [x1]	// tmp102, tmp103, argv
	stp	q0, q1, [x0]	// tmp102, tmp103,
	add	x0, sp, 16	// tmp104,,
	mov	x1, x0	//, tmp104
	ldr	x0, [sp, 56]	//, func
	bl	use_indirect_va_list_several_ints		//
	str	w0, [sp, 68]	//, retval
	ldr	w0, [sp, 68]	// _7, retval
	mov	w1, w0	// <retval>, _7
	adrp	x0, :got:__stack_chk_guard	// tmp107,
	ldr	x0, [x0, #:got_lo12:__stack_chk_guard]	// tmp106, tmp107,
	ldr	x3, [sp, 104]	// tmp109, D.6743
	ldr	x2, [x0]	// tmp110,
	subs	x3, x3, x2	// tmp109, tmp110
	mov	x2, 0	// tmp110
	beq	.L49		//,
	bl	__stack_chk_fail		//
.L49:
	mov	w0, w1	//, <retval>
	ldp	x29, x30, [sp], 304	//,,,
	.cfi_restore 30
	.cfi_restore 29
	.cfi_def_cfa_offset 0
	ret	
	.cfi_endproc
.LFE18:
	.size	test_indirect_va_list_several_ints, .-test_indirect_va_list_several_ints
	.section	.rodata
	.align	3
.LC8:
	.string	"many_ints"
	.text
	.align	2
	.global	test_va_list_many_ints
	.type	test_va_list_many_ints, %function
test_va_list_many_ints:
.LFB19:
	.cfi_startproc
	stp	x29, x30, [sp, -304]!	//,,,
	.cfi_def_cfa_offset 304
	.cfi_offset 29, -304
	.cfi_offset 30, -296
	mov	x29, sp	//,
	str	x0, [sp, 56]	// func, func
	str	x1, [sp, 248]	//,
	str	x2, [sp, 256]	//,
	str	x3, [sp, 264]	//,
	str	x4, [sp, 272]	//,
	str	x5, [sp, 280]	//,
	str	x6, [sp, 288]	//,
	str	x7, [sp, 296]	//,
	str	q0, [sp, 112]	//,
	str	q1, [sp, 128]	//,
	str	q2, [sp, 144]	//,
	str	q3, [sp, 160]	//,
	str	q4, [sp, 176]	//,
	str	q5, [sp, 192]	//,
	str	q6, [sp, 208]	//,
	str	q7, [sp, 224]	//,
// varargs-use-dll.c:98: DECLARE_TEST (many_ints);
	adrp	x0, :got:__stack_chk_guard	// tmp95,
	ldr	x0, [x0, #:got_lo12:__stack_chk_guard]	// tmp94, tmp95,
	ldr	x1, [x0]	// tmp112,
	str	x1, [sp, 104]	// tmp112, D.6748
	mov	x1, 0	// tmp112
	add	x0, sp, 304	// tmp117,,
	str	x0, [sp, 72]	// tmp117, MEM[(struct  *)&argv].__stack
	add	x0, sp, 304	// tmp118,,
	str	x0, [sp, 80]	// tmp118, MEM[(struct  *)&argv].__gr_top
	add	x0, sp, 240	// tmp97,,
	str	x0, [sp, 88]	// tmp97, MEM[(struct  *)&argv].__vr_top
	mov	w0, -56	// tmp98,
	str	w0, [sp, 96]	// tmp98, MEM[(struct  *)&argv].__gr_offs
	mov	w0, -128	// tmp99,
	str	w0, [sp, 100]	// tmp99, MEM[(struct  *)&argv].__vr_offs
	add	x0, sp, 16	// tmp100,,
	add	x1, sp, 72	// tmp101,,
	ldp	q0, q1, [x1]	// tmp102, tmp103, argv
	stp	q0, q1, [x0]	// tmp102, tmp103,
	add	x0, sp, 16	// tmp104,,
	ldr	x2, [sp, 56]	// tmp105, func
	mov	x1, x0	//, tmp104
	adrp	x0, .LC8	// tmp106,
	add	x0, x0, :lo12:.LC8	//, tmp106,
	blr	x2		// tmp105
	str	w0, [sp, 68]	//, retval
	ldr	w2, [sp, 68]	//, retval
	adrp	x0, .LC8	// tmp107,
	add	x1, x0, :lo12:.LC8	//, tmp107,
	adrp	x0, .LC1	// tmp108,
	add	x0, x0, :lo12:.LC1	//, tmp108,
	bl	printf		//
	ldr	w0, [sp, 68]	// _8, retval
	mov	w1, w0	// <retval>, _8
	adrp	x0, :got:__stack_chk_guard	// tmp111,
	ldr	x0, [x0, #:got_lo12:__stack_chk_guard]	// tmp110, tmp111,
	ldr	x3, [sp, 104]	// tmp113, D.6748
	ldr	x2, [x0]	// tmp114,
	subs	x3, x3, x2	// tmp113, tmp114
	mov	x2, 0	// tmp114
	beq	.L52		//,
	bl	__stack_chk_fail		//
.L52:
	mov	w0, w1	//, <retval>
	ldp	x29, x30, [sp], 304	//,,,
	.cfi_restore 30
	.cfi_restore 29
	.cfi_def_cfa_offset 0
	ret	
	.cfi_endproc
.LFE19:
	.size	test_va_list_many_ints, .-test_va_list_many_ints
	.align	2
	.global	use_indirect_va_list_many_ints
	.type	use_indirect_va_list_many_ints, %function
use_indirect_va_list_many_ints:
.LFB20:
	.cfi_startproc
	stp	x29, x30, [sp, -96]!	//,,,
	.cfi_def_cfa_offset 96
	.cfi_offset 29, -96
	.cfi_offset 30, -88
	mov	x29, sp	//,
	str	x19, [sp, 16]	//,
	.cfi_offset 19, -80
	str	x0, [sp, 72]	// func, func
	mov	x19, x1	// tmp94,
// varargs-use-dll.c:98: DECLARE_TEST (many_ints);
	add	x0, sp, 32	// tmp95,,
	mov	x1, x19	// tmp96, tmp94
	ldp	q0, q1, [x1]	// tmp97, tmp98, argv
	stp	q0, q1, [x0]	// tmp97, tmp98,
	add	x0, sp, 32	// tmp99,,
	ldr	x2, [sp, 72]	// tmp100, func
	mov	x1, x0	//, tmp99
	adrp	x0, .LC8	// tmp101,
	add	x0, x0, :lo12:.LC8	//, tmp101,
	blr	x2		// tmp100
	str	w0, [sp, 92]	//, retval
	ldr	w2, [sp, 92]	//, retval
	adrp	x0, .LC8	// tmp102,
	add	x1, x0, :lo12:.LC8	//, tmp102,
	adrp	x0, .LC2	// tmp103,
	add	x0, x0, :lo12:.LC2	//, tmp103,
	bl	printf		//
	ldr	w0, [sp, 92]	// _6, retval
	ldr	x19, [sp, 16]	//,
	ldp	x29, x30, [sp], 96	//,,,
	.cfi_restore 30
	.cfi_restore 29
	.cfi_restore 19
	.cfi_def_cfa_offset 0
	ret	
	.cfi_endproc
.LFE20:
	.size	use_indirect_va_list_many_ints, .-use_indirect_va_list_many_ints
	.align	2
	.global	test_indirect_va_list_many_ints
	.type	test_indirect_va_list_many_ints, %function
test_indirect_va_list_many_ints:
.LFB21:
	.cfi_startproc
	stp	x29, x30, [sp, -304]!	//,,,
	.cfi_def_cfa_offset 304
	.cfi_offset 29, -304
	.cfi_offset 30, -296
	mov	x29, sp	//,
	str	x0, [sp, 56]	// func, func
	str	x1, [sp, 248]	//,
	str	x2, [sp, 256]	//,
	str	x3, [sp, 264]	//,
	str	x4, [sp, 272]	//,
	str	x5, [sp, 280]	//,
	str	x6, [sp, 288]	//,
	str	x7, [sp, 296]	//,
	str	q0, [sp, 112]	//,
	str	q1, [sp, 128]	//,
	str	q2, [sp, 144]	//,
	str	q3, [sp, 160]	//,
	str	q4, [sp, 176]	//,
	str	q5, [sp, 192]	//,
	str	q6, [sp, 208]	//,
	str	q7, [sp, 224]	//,
// varargs-use-dll.c:98: DECLARE_TEST (many_ints);
	adrp	x0, :got:__stack_chk_guard	// tmp95,
	ldr	x0, [x0, #:got_lo12:__stack_chk_guard]	// tmp94, tmp95,
	ldr	x1, [x0]	// tmp108,
	str	x1, [sp, 104]	// tmp108, D.6755
	mov	x1, 0	// tmp108
	add	x0, sp, 304	// tmp113,,
	str	x0, [sp, 72]	// tmp113, MEM[(struct  *)&argv].__stack
	add	x0, sp, 304	// tmp114,,
	str	x0, [sp, 80]	// tmp114, MEM[(struct  *)&argv].__gr_top
	add	x0, sp, 240	// tmp97,,
	str	x0, [sp, 88]	// tmp97, MEM[(struct  *)&argv].__vr_top
	mov	w0, -56	// tmp98,
	str	w0, [sp, 96]	// tmp98, MEM[(struct  *)&argv].__gr_offs
	mov	w0, -128	// tmp99,
	str	w0, [sp, 100]	// tmp99, MEM[(struct  *)&argv].__vr_offs
	add	x0, sp, 16	// tmp100,,
	add	x1, sp, 72	// tmp101,,
	ldp	q0, q1, [x1]	// tmp102, tmp103, argv
	stp	q0, q1, [x0]	// tmp102, tmp103,
	add	x0, sp, 16	// tmp104,,
	mov	x1, x0	//, tmp104
	ldr	x0, [sp, 56]	//, func
	bl	use_indirect_va_list_many_ints		//
	str	w0, [sp, 68]	//, retval
	ldr	w0, [sp, 68]	// _7, retval
	mov	w1, w0	// <retval>, _7
	adrp	x0, :got:__stack_chk_guard	// tmp107,
	ldr	x0, [x0, #:got_lo12:__stack_chk_guard]	// tmp106, tmp107,
	ldr	x3, [sp, 104]	// tmp109, D.6755
	ldr	x2, [x0]	// tmp110,
	subs	x3, x3, x2	// tmp109, tmp110
	mov	x2, 0	// tmp110
	beq	.L57		//,
	bl	__stack_chk_fail		//
.L57:
	mov	w0, w1	//, <retval>
	ldp	x29, x30, [sp], 304	//,,,
	.cfi_restore 30
	.cfi_restore 29
	.cfi_def_cfa_offset 0
	ret	
	.cfi_endproc
.LFE21:
	.size	test_indirect_va_list_many_ints, .-test_indirect_va_list_many_ints
	.section	.rodata
	.align	3
.LC9:
	.string	"few_doubles"
	.text
	.align	2
	.global	test_va_list_few_doubles
	.type	test_va_list_few_doubles, %function
test_va_list_few_doubles:
.LFB22:
	.cfi_startproc
	stp	x29, x30, [sp, -304]!	//,,,
	.cfi_def_cfa_offset 304
	.cfi_offset 29, -304
	.cfi_offset 30, -296
	mov	x29, sp	//,
	str	x0, [sp, 56]	// func, func
	str	x1, [sp, 248]	//,
	str	x2, [sp, 256]	//,
	str	x3, [sp, 264]	//,
	str	x4, [sp, 272]	//,
	str	x5, [sp, 280]	//,
	str	x6, [sp, 288]	//,
	str	x7, [sp, 296]	//,
	str	q0, [sp, 112]	//,
	str	q1, [sp, 128]	//,
	str	q2, [sp, 144]	//,
	str	q3, [sp, 160]	//,
	str	q4, [sp, 176]	//,
	str	q5, [sp, 192]	//,
	str	q6, [sp, 208]	//,
	str	q7, [sp, 224]	//,
// varargs-use-dll.c:100: DECLARE_TEST (few_doubles);
	adrp	x0, :got:__stack_chk_guard	// tmp95,
	ldr	x0, [x0, #:got_lo12:__stack_chk_guard]	// tmp94, tmp95,
	ldr	x1, [x0]	// tmp112,
	str	x1, [sp, 104]	// tmp112, D.6760
	mov	x1, 0	// tmp112
	add	x0, sp, 304	// tmp117,,
	str	x0, [sp, 72]	// tmp117, MEM[(struct  *)&argv].__stack
	add	x0, sp, 304	// tmp118,,
	str	x0, [sp, 80]	// tmp118, MEM[(struct  *)&argv].__gr_top
	add	x0, sp, 240	// tmp97,,
	str	x0, [sp, 88]	// tmp97, MEM[(struct  *)&argv].__vr_top
	mov	w0, -56	// tmp98,
	str	w0, [sp, 96]	// tmp98, MEM[(struct  *)&argv].__gr_offs
	mov	w0, -128	// tmp99,
	str	w0, [sp, 100]	// tmp99, MEM[(struct  *)&argv].__vr_offs
	add	x0, sp, 16	// tmp100,,
	add	x1, sp, 72	// tmp101,,
	ldp	q0, q1, [x1]	// tmp102, tmp103, argv
	stp	q0, q1, [x0]	// tmp102, tmp103,
	add	x0, sp, 16	// tmp104,,
	ldr	x2, [sp, 56]	// tmp105, func
	mov	x1, x0	//, tmp104
	adrp	x0, .LC9	// tmp106,
	add	x0, x0, :lo12:.LC9	//, tmp106,
	blr	x2		// tmp105
	str	w0, [sp, 68]	//, retval
	ldr	w2, [sp, 68]	//, retval
	adrp	x0, .LC9	// tmp107,
	add	x1, x0, :lo12:.LC9	//, tmp107,
	adrp	x0, .LC1	// tmp108,
	add	x0, x0, :lo12:.LC1	//, tmp108,
	bl	printf		//
	ldr	w0, [sp, 68]	// _8, retval
	mov	w1, w0	// <retval>, _8
	adrp	x0, :got:__stack_chk_guard	// tmp111,
	ldr	x0, [x0, #:got_lo12:__stack_chk_guard]	// tmp110, tmp111,
	ldr	x3, [sp, 104]	// tmp113, D.6760
	ldr	x2, [x0]	// tmp114,
	subs	x3, x3, x2	// tmp113, tmp114
	mov	x2, 0	// tmp114
	beq	.L60		//,
	bl	__stack_chk_fail		//
.L60:
	mov	w0, w1	//, <retval>
	ldp	x29, x30, [sp], 304	//,,,
	.cfi_restore 30
	.cfi_restore 29
	.cfi_def_cfa_offset 0
	ret	
	.cfi_endproc
.LFE22:
	.size	test_va_list_few_doubles, .-test_va_list_few_doubles
	.align	2
	.global	use_indirect_va_list_few_doubles
	.type	use_indirect_va_list_few_doubles, %function
use_indirect_va_list_few_doubles:
.LFB23:
	.cfi_startproc
	stp	x29, x30, [sp, -96]!	//,,,
	.cfi_def_cfa_offset 96
	.cfi_offset 29, -96
	.cfi_offset 30, -88
	mov	x29, sp	//,
	str	x19, [sp, 16]	//,
	.cfi_offset 19, -80
	str	x0, [sp, 72]	// func, func
	mov	x19, x1	// tmp94,
// varargs-use-dll.c:100: DECLARE_TEST (few_doubles);
	add	x0, sp, 32	// tmp95,,
	mov	x1, x19	// tmp96, tmp94
	ldp	q0, q1, [x1]	// tmp97, tmp98, argv
	stp	q0, q1, [x0]	// tmp97, tmp98,
	add	x0, sp, 32	// tmp99,,
	ldr	x2, [sp, 72]	// tmp100, func
	mov	x1, x0	//, tmp99
	adrp	x0, .LC9	// tmp101,
	add	x0, x0, :lo12:.LC9	//, tmp101,
	blr	x2		// tmp100
	str	w0, [sp, 92]	//, retval
	ldr	w2, [sp, 92]	//, retval
	adrp	x0, .LC9	// tmp102,
	add	x1, x0, :lo12:.LC9	//, tmp102,
	adrp	x0, .LC2	// tmp103,
	add	x0, x0, :lo12:.LC2	//, tmp103,
	bl	printf		//
	ldr	w0, [sp, 92]	// _6, retval
	ldr	x19, [sp, 16]	//,
	ldp	x29, x30, [sp], 96	//,,,
	.cfi_restore 30
	.cfi_restore 29
	.cfi_restore 19
	.cfi_def_cfa_offset 0
	ret	
	.cfi_endproc
.LFE23:
	.size	use_indirect_va_list_few_doubles, .-use_indirect_va_list_few_doubles
	.align	2
	.global	test_indirect_va_list_few_doubles
	.type	test_indirect_va_list_few_doubles, %function
test_indirect_va_list_few_doubles:
.LFB24:
	.cfi_startproc
	stp	x29, x30, [sp, -304]!	//,,,
	.cfi_def_cfa_offset 304
	.cfi_offset 29, -304
	.cfi_offset 30, -296
	mov	x29, sp	//,
	str	x0, [sp, 56]	// func, func
	str	x1, [sp, 248]	//,
	str	x2, [sp, 256]	//,
	str	x3, [sp, 264]	//,
	str	x4, [sp, 272]	//,
	str	x5, [sp, 280]	//,
	str	x6, [sp, 288]	//,
	str	x7, [sp, 296]	//,
	str	q0, [sp, 112]	//,
	str	q1, [sp, 128]	//,
	str	q2, [sp, 144]	//,
	str	q3, [sp, 160]	//,
	str	q4, [sp, 176]	//,
	str	q5, [sp, 192]	//,
	str	q6, [sp, 208]	//,
	str	q7, [sp, 224]	//,
// varargs-use-dll.c:100: DECLARE_TEST (few_doubles);
	adrp	x0, :got:__stack_chk_guard	// tmp95,
	ldr	x0, [x0, #:got_lo12:__stack_chk_guard]	// tmp94, tmp95,
	ldr	x1, [x0]	// tmp108,
	str	x1, [sp, 104]	// tmp108, D.6767
	mov	x1, 0	// tmp108
	add	x0, sp, 304	// tmp113,,
	str	x0, [sp, 72]	// tmp113, MEM[(struct  *)&argv].__stack
	add	x0, sp, 304	// tmp114,,
	str	x0, [sp, 80]	// tmp114, MEM[(struct  *)&argv].__gr_top
	add	x0, sp, 240	// tmp97,,
	str	x0, [sp, 88]	// tmp97, MEM[(struct  *)&argv].__vr_top
	mov	w0, -56	// tmp98,
	str	w0, [sp, 96]	// tmp98, MEM[(struct  *)&argv].__gr_offs
	mov	w0, -128	// tmp99,
	str	w0, [sp, 100]	// tmp99, MEM[(struct  *)&argv].__vr_offs
	add	x0, sp, 16	// tmp100,,
	add	x1, sp, 72	// tmp101,,
	ldp	q0, q1, [x1]	// tmp102, tmp103, argv
	stp	q0, q1, [x0]	// tmp102, tmp103,
	add	x0, sp, 16	// tmp104,,
	mov	x1, x0	//, tmp104
	ldr	x0, [sp, 56]	//, func
	bl	use_indirect_va_list_few_doubles		//
	str	w0, [sp, 68]	//, retval
	ldr	w0, [sp, 68]	// _7, retval
	mov	w1, w0	// <retval>, _7
	adrp	x0, :got:__stack_chk_guard	// tmp107,
	ldr	x0, [x0, #:got_lo12:__stack_chk_guard]	// tmp106, tmp107,
	ldr	x3, [sp, 104]	// tmp109, D.6767
	ldr	x2, [x0]	// tmp110,
	subs	x3, x3, x2	// tmp109, tmp110
	mov	x2, 0	// tmp110
	beq	.L65		//,
	bl	__stack_chk_fail		//
.L65:
	mov	w0, w1	//, <retval>
	ldp	x29, x30, [sp], 304	//,,,
	.cfi_restore 30
	.cfi_restore 29
	.cfi_def_cfa_offset 0
	ret	
	.cfi_endproc
.LFE24:
	.size	test_indirect_va_list_few_doubles, .-test_indirect_va_list_few_doubles
	.section	.rodata
	.align	3
.LC10:
	.string	"several_doubles"
	.text
	.align	2
	.global	test_va_list_several_doubles
	.type	test_va_list_several_doubles, %function
test_va_list_several_doubles:
.LFB25:
	.cfi_startproc
	stp	x29, x30, [sp, -304]!	//,,,
	.cfi_def_cfa_offset 304
	.cfi_offset 29, -304
	.cfi_offset 30, -296
	mov	x29, sp	//,
	str	x0, [sp, 56]	// func, func
	str	x1, [sp, 248]	//,
	str	x2, [sp, 256]	//,
	str	x3, [sp, 264]	//,
	str	x4, [sp, 272]	//,
	str	x5, [sp, 280]	//,
	str	x6, [sp, 288]	//,
	str	x7, [sp, 296]	//,
	str	q0, [sp, 112]	//,
	str	q1, [sp, 128]	//,
	str	q2, [sp, 144]	//,
	str	q3, [sp, 160]	//,
	str	q4, [sp, 176]	//,
	str	q5, [sp, 192]	//,
	str	q6, [sp, 208]	//,
	str	q7, [sp, 224]	//,
// varargs-use-dll.c:101: DECLARE_TEST (several_doubles);
	adrp	x0, :got:__stack_chk_guard	// tmp95,
	ldr	x0, [x0, #:got_lo12:__stack_chk_guard]	// tmp94, tmp95,
	ldr	x1, [x0]	// tmp112,
	str	x1, [sp, 104]	// tmp112, D.6772
	mov	x1, 0	// tmp112
	add	x0, sp, 304	// tmp117,,
	str	x0, [sp, 72]	// tmp117, MEM[(struct  *)&argv].__stack
	add	x0, sp, 304	// tmp118,,
	str	x0, [sp, 80]	// tmp118, MEM[(struct  *)&argv].__gr_top
	add	x0, sp, 240	// tmp97,,
	str	x0, [sp, 88]	// tmp97, MEM[(struct  *)&argv].__vr_top
	mov	w0, -56	// tmp98,
	str	w0, [sp, 96]	// tmp98, MEM[(struct  *)&argv].__gr_offs
	mov	w0, -128	// tmp99,
	str	w0, [sp, 100]	// tmp99, MEM[(struct  *)&argv].__vr_offs
	add	x0, sp, 16	// tmp100,,
	add	x1, sp, 72	// tmp101,,
	ldp	q0, q1, [x1]	// tmp102, tmp103, argv
	stp	q0, q1, [x0]	// tmp102, tmp103,
	add	x0, sp, 16	// tmp104,,
	ldr	x2, [sp, 56]	// tmp105, func
	mov	x1, x0	//, tmp104
	adrp	x0, .LC10	// tmp106,
	add	x0, x0, :lo12:.LC10	//, tmp106,
	blr	x2		// tmp105
	str	w0, [sp, 68]	//, retval
	ldr	w2, [sp, 68]	//, retval
	adrp	x0, .LC10	// tmp107,
	add	x1, x0, :lo12:.LC10	//, tmp107,
	adrp	x0, .LC1	// tmp108,
	add	x0, x0, :lo12:.LC1	//, tmp108,
	bl	printf		//
	ldr	w0, [sp, 68]	// _8, retval
	mov	w1, w0	// <retval>, _8
	adrp	x0, :got:__stack_chk_guard	// tmp111,
	ldr	x0, [x0, #:got_lo12:__stack_chk_guard]	// tmp110, tmp111,
	ldr	x3, [sp, 104]	// tmp113, D.6772
	ldr	x2, [x0]	// tmp114,
	subs	x3, x3, x2	// tmp113, tmp114
	mov	x2, 0	// tmp114
	beq	.L68		//,
	bl	__stack_chk_fail		//
.L68:
	mov	w0, w1	//, <retval>
	ldp	x29, x30, [sp], 304	//,,,
	.cfi_restore 30
	.cfi_restore 29
	.cfi_def_cfa_offset 0
	ret	
	.cfi_endproc
.LFE25:
	.size	test_va_list_several_doubles, .-test_va_list_several_doubles
	.align	2
	.global	use_indirect_va_list_several_doubles
	.type	use_indirect_va_list_several_doubles, %function
use_indirect_va_list_several_doubles:
.LFB26:
	.cfi_startproc
	stp	x29, x30, [sp, -96]!	//,,,
	.cfi_def_cfa_offset 96
	.cfi_offset 29, -96
	.cfi_offset 30, -88
	mov	x29, sp	//,
	str	x19, [sp, 16]	//,
	.cfi_offset 19, -80
	str	x0, [sp, 72]	// func, func
	mov	x19, x1	// tmp94,
// varargs-use-dll.c:101: DECLARE_TEST (several_doubles);
	add	x0, sp, 32	// tmp95,,
	mov	x1, x19	// tmp96, tmp94
	ldp	q0, q1, [x1]	// tmp97, tmp98, argv
	stp	q0, q1, [x0]	// tmp97, tmp98,
	add	x0, sp, 32	// tmp99,,
	ldr	x2, [sp, 72]	// tmp100, func
	mov	x1, x0	//, tmp99
	adrp	x0, .LC10	// tmp101,
	add	x0, x0, :lo12:.LC10	//, tmp101,
	blr	x2		// tmp100
	str	w0, [sp, 92]	//, retval
	ldr	w2, [sp, 92]	//, retval
	adrp	x0, .LC10	// tmp102,
	add	x1, x0, :lo12:.LC10	//, tmp102,
	adrp	x0, .LC2	// tmp103,
	add	x0, x0, :lo12:.LC2	//, tmp103,
	bl	printf		//
	ldr	w0, [sp, 92]	// _6, retval
	ldr	x19, [sp, 16]	//,
	ldp	x29, x30, [sp], 96	//,,,
	.cfi_restore 30
	.cfi_restore 29
	.cfi_restore 19
	.cfi_def_cfa_offset 0
	ret	
	.cfi_endproc
.LFE26:
	.size	use_indirect_va_list_several_doubles, .-use_indirect_va_list_several_doubles
	.align	2
	.global	test_indirect_va_list_several_doubles
	.type	test_indirect_va_list_several_doubles, %function
test_indirect_va_list_several_doubles:
.LFB27:
	.cfi_startproc
	stp	x29, x30, [sp, -304]!	//,,,
	.cfi_def_cfa_offset 304
	.cfi_offset 29, -304
	.cfi_offset 30, -296
	mov	x29, sp	//,
	str	x0, [sp, 56]	// func, func
	str	x1, [sp, 248]	//,
	str	x2, [sp, 256]	//,
	str	x3, [sp, 264]	//,
	str	x4, [sp, 272]	//,
	str	x5, [sp, 280]	//,
	str	x6, [sp, 288]	//,
	str	x7, [sp, 296]	//,
	str	q0, [sp, 112]	//,
	str	q1, [sp, 128]	//,
	str	q2, [sp, 144]	//,
	str	q3, [sp, 160]	//,
	str	q4, [sp, 176]	//,
	str	q5, [sp, 192]	//,
	str	q6, [sp, 208]	//,
	str	q7, [sp, 224]	//,
// varargs-use-dll.c:101: DECLARE_TEST (several_doubles);
	adrp	x0, :got:__stack_chk_guard	// tmp95,
	ldr	x0, [x0, #:got_lo12:__stack_chk_guard]	// tmp94, tmp95,
	ldr	x1, [x0]	// tmp108,
	str	x1, [sp, 104]	// tmp108, D.6779
	mov	x1, 0	// tmp108
	add	x0, sp, 304	// tmp113,,
	str	x0, [sp, 72]	// tmp113, MEM[(struct  *)&argv].__stack
	add	x0, sp, 304	// tmp114,,
	str	x0, [sp, 80]	// tmp114, MEM[(struct  *)&argv].__gr_top
	add	x0, sp, 240	// tmp97,,
	str	x0, [sp, 88]	// tmp97, MEM[(struct  *)&argv].__vr_top
	mov	w0, -56	// tmp98,
	str	w0, [sp, 96]	// tmp98, MEM[(struct  *)&argv].__gr_offs
	mov	w0, -128	// tmp99,
	str	w0, [sp, 100]	// tmp99, MEM[(struct  *)&argv].__vr_offs
	add	x0, sp, 16	// tmp100,,
	add	x1, sp, 72	// tmp101,,
	ldp	q0, q1, [x1]	// tmp102, tmp103, argv
	stp	q0, q1, [x0]	// tmp102, tmp103,
	add	x0, sp, 16	// tmp104,,
	mov	x1, x0	//, tmp104
	ldr	x0, [sp, 56]	//, func
	bl	use_indirect_va_list_several_doubles		//
	str	w0, [sp, 68]	//, retval
	ldr	w0, [sp, 68]	// _7, retval
	mov	w1, w0	// <retval>, _7
	adrp	x0, :got:__stack_chk_guard	// tmp107,
	ldr	x0, [x0, #:got_lo12:__stack_chk_guard]	// tmp106, tmp107,
	ldr	x3, [sp, 104]	// tmp109, D.6779
	ldr	x2, [x0]	// tmp110,
	subs	x3, x3, x2	// tmp109, tmp110
	mov	x2, 0	// tmp110
	beq	.L73		//,
	bl	__stack_chk_fail		//
.L73:
	mov	w0, w1	//, <retval>
	ldp	x29, x30, [sp], 304	//,,,
	.cfi_restore 30
	.cfi_restore 29
	.cfi_def_cfa_offset 0
	ret	
	.cfi_endproc
.LFE27:
	.size	test_indirect_va_list_several_doubles, .-test_indirect_va_list_several_doubles
	.section	.rodata
	.align	3
.LC11:
	.string	"many_doubles"
	.text
	.align	2
	.global	test_va_list_many_doubles
	.type	test_va_list_many_doubles, %function
test_va_list_many_doubles:
.LFB28:
	.cfi_startproc
	stp	x29, x30, [sp, -304]!	//,,,
	.cfi_def_cfa_offset 304
	.cfi_offset 29, -304
	.cfi_offset 30, -296
	mov	x29, sp	//,
	str	x0, [sp, 56]	// func, func
	str	x1, [sp, 248]	//,
	str	x2, [sp, 256]	//,
	str	x3, [sp, 264]	//,
	str	x4, [sp, 272]	//,
	str	x5, [sp, 280]	//,
	str	x6, [sp, 288]	//,
	str	x7, [sp, 296]	//,
	str	q0, [sp, 112]	//,
	str	q1, [sp, 128]	//,
	str	q2, [sp, 144]	//,
	str	q3, [sp, 160]	//,
	str	q4, [sp, 176]	//,
	str	q5, [sp, 192]	//,
	str	q6, [sp, 208]	//,
	str	q7, [sp, 224]	//,
// varargs-use-dll.c:102: DECLARE_TEST (many_doubles);
	adrp	x0, :got:__stack_chk_guard	// tmp95,
	ldr	x0, [x0, #:got_lo12:__stack_chk_guard]	// tmp94, tmp95,
	ldr	x1, [x0]	// tmp112,
	str	x1, [sp, 104]	// tmp112, D.6784
	mov	x1, 0	// tmp112
	add	x0, sp, 304	// tmp117,,
	str	x0, [sp, 72]	// tmp117, MEM[(struct  *)&argv].__stack
	add	x0, sp, 304	// tmp118,,
	str	x0, [sp, 80]	// tmp118, MEM[(struct  *)&argv].__gr_top
	add	x0, sp, 240	// tmp97,,
	str	x0, [sp, 88]	// tmp97, MEM[(struct  *)&argv].__vr_top
	mov	w0, -56	// tmp98,
	str	w0, [sp, 96]	// tmp98, MEM[(struct  *)&argv].__gr_offs
	mov	w0, -128	// tmp99,
	str	w0, [sp, 100]	// tmp99, MEM[(struct  *)&argv].__vr_offs
	add	x0, sp, 16	// tmp100,,
	add	x1, sp, 72	// tmp101,,
	ldp	q0, q1, [x1]	// tmp102, tmp103, argv
	stp	q0, q1, [x0]	// tmp102, tmp103,
	add	x0, sp, 16	// tmp104,,
	ldr	x2, [sp, 56]	// tmp105, func
	mov	x1, x0	//, tmp104
	adrp	x0, .LC11	// tmp106,
	add	x0, x0, :lo12:.LC11	//, tmp106,
	blr	x2		// tmp105
	str	w0, [sp, 68]	//, retval
	ldr	w2, [sp, 68]	//, retval
	adrp	x0, .LC11	// tmp107,
	add	x1, x0, :lo12:.LC11	//, tmp107,
	adrp	x0, .LC1	// tmp108,
	add	x0, x0, :lo12:.LC1	//, tmp108,
	bl	printf		//
	ldr	w0, [sp, 68]	// _8, retval
	mov	w1, w0	// <retval>, _8
	adrp	x0, :got:__stack_chk_guard	// tmp111,
	ldr	x0, [x0, #:got_lo12:__stack_chk_guard]	// tmp110, tmp111,
	ldr	x3, [sp, 104]	// tmp113, D.6784
	ldr	x2, [x0]	// tmp114,
	subs	x3, x3, x2	// tmp113, tmp114
	mov	x2, 0	// tmp114
	beq	.L76		//,
	bl	__stack_chk_fail		//
.L76:
	mov	w0, w1	//, <retval>
	ldp	x29, x30, [sp], 304	//,,,
	.cfi_restore 30
	.cfi_restore 29
	.cfi_def_cfa_offset 0
	ret	
	.cfi_endproc
.LFE28:
	.size	test_va_list_many_doubles, .-test_va_list_many_doubles
	.align	2
	.global	use_indirect_va_list_many_doubles
	.type	use_indirect_va_list_many_doubles, %function
use_indirect_va_list_many_doubles:
.LFB29:
	.cfi_startproc
	stp	x29, x30, [sp, -96]!	//,,,
	.cfi_def_cfa_offset 96
	.cfi_offset 29, -96
	.cfi_offset 30, -88
	mov	x29, sp	//,
	str	x19, [sp, 16]	//,
	.cfi_offset 19, -80
	str	x0, [sp, 72]	// func, func
	mov	x19, x1	// tmp94,
// varargs-use-dll.c:102: DECLARE_TEST (many_doubles);
	add	x0, sp, 32	// tmp95,,
	mov	x1, x19	// tmp96, tmp94
	ldp	q0, q1, [x1]	// tmp97, tmp98, argv
	stp	q0, q1, [x0]	// tmp97, tmp98,
	add	x0, sp, 32	// tmp99,,
	ldr	x2, [sp, 72]	// tmp100, func
	mov	x1, x0	//, tmp99
	adrp	x0, .LC11	// tmp101,
	add	x0, x0, :lo12:.LC11	//, tmp101,
	blr	x2		// tmp100
	str	w0, [sp, 92]	//, retval
	ldr	w2, [sp, 92]	//, retval
	adrp	x0, .LC11	// tmp102,
	add	x1, x0, :lo12:.LC11	//, tmp102,
	adrp	x0, .LC2	// tmp103,
	add	x0, x0, :lo12:.LC2	//, tmp103,
	bl	printf		//
	ldr	w0, [sp, 92]	// _6, retval
	ldr	x19, [sp, 16]	//,
	ldp	x29, x30, [sp], 96	//,,,
	.cfi_restore 30
	.cfi_restore 29
	.cfi_restore 19
	.cfi_def_cfa_offset 0
	ret	
	.cfi_endproc
.LFE29:
	.size	use_indirect_va_list_many_doubles, .-use_indirect_va_list_many_doubles
	.align	2
	.global	test_indirect_va_list_many_doubles
	.type	test_indirect_va_list_many_doubles, %function
test_indirect_va_list_many_doubles:
.LFB30:
	.cfi_startproc
	stp	x29, x30, [sp, -304]!	//,,,
	.cfi_def_cfa_offset 304
	.cfi_offset 29, -304
	.cfi_offset 30, -296
	mov	x29, sp	//,
	str	x0, [sp, 56]	// func, func
	str	x1, [sp, 248]	//,
	str	x2, [sp, 256]	//,
	str	x3, [sp, 264]	//,
	str	x4, [sp, 272]	//,
	str	x5, [sp, 280]	//,
	str	x6, [sp, 288]	//,
	str	x7, [sp, 296]	//,
	str	q0, [sp, 112]	//,
	str	q1, [sp, 128]	//,
	str	q2, [sp, 144]	//,
	str	q3, [sp, 160]	//,
	str	q4, [sp, 176]	//,
	str	q5, [sp, 192]	//,
	str	q6, [sp, 208]	//,
	str	q7, [sp, 224]	//,
// varargs-use-dll.c:102: DECLARE_TEST (many_doubles);
	adrp	x0, :got:__stack_chk_guard	// tmp95,
	ldr	x0, [x0, #:got_lo12:__stack_chk_guard]	// tmp94, tmp95,
	ldr	x1, [x0]	// tmp108,
	str	x1, [sp, 104]	// tmp108, D.6791
	mov	x1, 0	// tmp108
	add	x0, sp, 304	// tmp113,,
	str	x0, [sp, 72]	// tmp113, MEM[(struct  *)&argv].__stack
	add	x0, sp, 304	// tmp114,,
	str	x0, [sp, 80]	// tmp114, MEM[(struct  *)&argv].__gr_top
	add	x0, sp, 240	// tmp97,,
	str	x0, [sp, 88]	// tmp97, MEM[(struct  *)&argv].__vr_top
	mov	w0, -56	// tmp98,
	str	w0, [sp, 96]	// tmp98, MEM[(struct  *)&argv].__gr_offs
	mov	w0, -128	// tmp99,
	str	w0, [sp, 100]	// tmp99, MEM[(struct  *)&argv].__vr_offs
	add	x0, sp, 16	// tmp100,,
	add	x1, sp, 72	// tmp101,,
	ldp	q0, q1, [x1]	// tmp102, tmp103, argv
	stp	q0, q1, [x0]	// tmp102, tmp103,
	add	x0, sp, 16	// tmp104,,
	mov	x1, x0	//, tmp104
	ldr	x0, [sp, 56]	//, func
	bl	use_indirect_va_list_many_doubles		//
	str	w0, [sp, 68]	//, retval
	ldr	w0, [sp, 68]	// _7, retval
	mov	w1, w0	// <retval>, _7
	adrp	x0, :got:__stack_chk_guard	// tmp107,
	ldr	x0, [x0, #:got_lo12:__stack_chk_guard]	// tmp106, tmp107,
	ldr	x3, [sp, 104]	// tmp109, D.6791
	ldr	x2, [x0]	// tmp110,
	subs	x3, x3, x2	// tmp109, tmp110
	mov	x2, 0	// tmp110
	beq	.L81		//,
	bl	__stack_chk_fail		//
.L81:
	mov	w0, w1	//, <retval>
	ldp	x29, x30, [sp], 304	//,,,
	.cfi_restore 30
	.cfi_restore 29
	.cfi_def_cfa_offset 0
	ret	
	.cfi_endproc
.LFE30:
	.size	test_indirect_va_list_many_doubles, .-test_indirect_va_list_many_doubles
	.section	.rodata
	.align	3
.LC12:
	.string	"few_floats"
	.text
	.align	2
	.global	test_va_list_few_floats
	.type	test_va_list_few_floats, %function
test_va_list_few_floats:
.LFB31:
	.cfi_startproc
	stp	x29, x30, [sp, -304]!	//,,,
	.cfi_def_cfa_offset 304
	.cfi_offset 29, -304
	.cfi_offset 30, -296
	mov	x29, sp	//,
	str	x0, [sp, 56]	// func, func
	str	x1, [sp, 248]	//,
	str	x2, [sp, 256]	//,
	str	x3, [sp, 264]	//,
	str	x4, [sp, 272]	//,
	str	x5, [sp, 280]	//,
	str	x6, [sp, 288]	//,
	str	x7, [sp, 296]	//,
	str	q0, [sp, 112]	//,
	str	q1, [sp, 128]	//,
	str	q2, [sp, 144]	//,
	str	q3, [sp, 160]	//,
	str	q4, [sp, 176]	//,
	str	q5, [sp, 192]	//,
	str	q6, [sp, 208]	//,
	str	q7, [sp, 224]	//,
// varargs-use-dll.c:104: DECLARE_TEST (few_floats);
	adrp	x0, :got:__stack_chk_guard	// tmp95,
	ldr	x0, [x0, #:got_lo12:__stack_chk_guard]	// tmp94, tmp95,
	ldr	x1, [x0]	// tmp112,
	str	x1, [sp, 104]	// tmp112, D.6796
	mov	x1, 0	// tmp112
	add	x0, sp, 304	// tmp117,,
	str	x0, [sp, 72]	// tmp117, MEM[(struct  *)&argv].__stack
	add	x0, sp, 304	// tmp118,,
	str	x0, [sp, 80]	// tmp118, MEM[(struct  *)&argv].__gr_top
	add	x0, sp, 240	// tmp97,,
	str	x0, [sp, 88]	// tmp97, MEM[(struct  *)&argv].__vr_top
	mov	w0, -56	// tmp98,
	str	w0, [sp, 96]	// tmp98, MEM[(struct  *)&argv].__gr_offs
	mov	w0, -128	// tmp99,
	str	w0, [sp, 100]	// tmp99, MEM[(struct  *)&argv].__vr_offs
	add	x0, sp, 16	// tmp100,,
	add	x1, sp, 72	// tmp101,,
	ldp	q0, q1, [x1]	// tmp102, tmp103, argv
	stp	q0, q1, [x0]	// tmp102, tmp103,
	add	x0, sp, 16	// tmp104,,
	ldr	x2, [sp, 56]	// tmp105, func
	mov	x1, x0	//, tmp104
	adrp	x0, .LC12	// tmp106,
	add	x0, x0, :lo12:.LC12	//, tmp106,
	blr	x2		// tmp105
	str	w0, [sp, 68]	//, retval
	ldr	w2, [sp, 68]	//, retval
	adrp	x0, .LC12	// tmp107,
	add	x1, x0, :lo12:.LC12	//, tmp107,
	adrp	x0, .LC1	// tmp108,
	add	x0, x0, :lo12:.LC1	//, tmp108,
	bl	printf		//
	ldr	w0, [sp, 68]	// _8, retval
	mov	w1, w0	// <retval>, _8
	adrp	x0, :got:__stack_chk_guard	// tmp111,
	ldr	x0, [x0, #:got_lo12:__stack_chk_guard]	// tmp110, tmp111,
	ldr	x3, [sp, 104]	// tmp113, D.6796
	ldr	x2, [x0]	// tmp114,
	subs	x3, x3, x2	// tmp113, tmp114
	mov	x2, 0	// tmp114
	beq	.L84		//,
	bl	__stack_chk_fail		//
.L84:
	mov	w0, w1	//, <retval>
	ldp	x29, x30, [sp], 304	//,,,
	.cfi_restore 30
	.cfi_restore 29
	.cfi_def_cfa_offset 0
	ret	
	.cfi_endproc
.LFE31:
	.size	test_va_list_few_floats, .-test_va_list_few_floats
	.align	2
	.global	use_indirect_va_list_few_floats
	.type	use_indirect_va_list_few_floats, %function
use_indirect_va_list_few_floats:
.LFB32:
	.cfi_startproc
	stp	x29, x30, [sp, -96]!	//,,,
	.cfi_def_cfa_offset 96
	.cfi_offset 29, -96
	.cfi_offset 30, -88
	mov	x29, sp	//,
	str	x19, [sp, 16]	//,
	.cfi_offset 19, -80
	str	x0, [sp, 72]	// func, func
	mov	x19, x1	// tmp94,
// varargs-use-dll.c:104: DECLARE_TEST (few_floats);
	add	x0, sp, 32	// tmp95,,
	mov	x1, x19	// tmp96, tmp94
	ldp	q0, q1, [x1]	// tmp97, tmp98, argv
	stp	q0, q1, [x0]	// tmp97, tmp98,
	add	x0, sp, 32	// tmp99,,
	ldr	x2, [sp, 72]	// tmp100, func
	mov	x1, x0	//, tmp99
	adrp	x0, .LC12	// tmp101,
	add	x0, x0, :lo12:.LC12	//, tmp101,
	blr	x2		// tmp100
	str	w0, [sp, 92]	//, retval
	ldr	w2, [sp, 92]	//, retval
	adrp	x0, .LC12	// tmp102,
	add	x1, x0, :lo12:.LC12	//, tmp102,
	adrp	x0, .LC2	// tmp103,
	add	x0, x0, :lo12:.LC2	//, tmp103,
	bl	printf		//
	ldr	w0, [sp, 92]	// _6, retval
	ldr	x19, [sp, 16]	//,
	ldp	x29, x30, [sp], 96	//,,,
	.cfi_restore 30
	.cfi_restore 29
	.cfi_restore 19
	.cfi_def_cfa_offset 0
	ret	
	.cfi_endproc
.LFE32:
	.size	use_indirect_va_list_few_floats, .-use_indirect_va_list_few_floats
	.align	2
	.global	test_indirect_va_list_few_floats
	.type	test_indirect_va_list_few_floats, %function
test_indirect_va_list_few_floats:
.LFB33:
	.cfi_startproc
	stp	x29, x30, [sp, -304]!	//,,,
	.cfi_def_cfa_offset 304
	.cfi_offset 29, -304
	.cfi_offset 30, -296
	mov	x29, sp	//,
	str	x0, [sp, 56]	// func, func
	str	x1, [sp, 248]	//,
	str	x2, [sp, 256]	//,
	str	x3, [sp, 264]	//,
	str	x4, [sp, 272]	//,
	str	x5, [sp, 280]	//,
	str	x6, [sp, 288]	//,
	str	x7, [sp, 296]	//,
	str	q0, [sp, 112]	//,
	str	q1, [sp, 128]	//,
	str	q2, [sp, 144]	//,
	str	q3, [sp, 160]	//,
	str	q4, [sp, 176]	//,
	str	q5, [sp, 192]	//,
	str	q6, [sp, 208]	//,
	str	q7, [sp, 224]	//,
// varargs-use-dll.c:104: DECLARE_TEST (few_floats);
	adrp	x0, :got:__stack_chk_guard	// tmp95,
	ldr	x0, [x0, #:got_lo12:__stack_chk_guard]	// tmp94, tmp95,
	ldr	x1, [x0]	// tmp108,
	str	x1, [sp, 104]	// tmp108, D.6803
	mov	x1, 0	// tmp108
	add	x0, sp, 304	// tmp113,,
	str	x0, [sp, 72]	// tmp113, MEM[(struct  *)&argv].__stack
	add	x0, sp, 304	// tmp114,,
	str	x0, [sp, 80]	// tmp114, MEM[(struct  *)&argv].__gr_top
	add	x0, sp, 240	// tmp97,,
	str	x0, [sp, 88]	// tmp97, MEM[(struct  *)&argv].__vr_top
	mov	w0, -56	// tmp98,
	str	w0, [sp, 96]	// tmp98, MEM[(struct  *)&argv].__gr_offs
	mov	w0, -128	// tmp99,
	str	w0, [sp, 100]	// tmp99, MEM[(struct  *)&argv].__vr_offs
	add	x0, sp, 16	// tmp100,,
	add	x1, sp, 72	// tmp101,,
	ldp	q0, q1, [x1]	// tmp102, tmp103, argv
	stp	q0, q1, [x0]	// tmp102, tmp103,
	add	x0, sp, 16	// tmp104,,
	mov	x1, x0	//, tmp104
	ldr	x0, [sp, 56]	//, func
	bl	use_indirect_va_list_few_floats		//
	str	w0, [sp, 68]	//, retval
	ldr	w0, [sp, 68]	// _7, retval
	mov	w1, w0	// <retval>, _7
	adrp	x0, :got:__stack_chk_guard	// tmp107,
	ldr	x0, [x0, #:got_lo12:__stack_chk_guard]	// tmp106, tmp107,
	ldr	x3, [sp, 104]	// tmp109, D.6803
	ldr	x2, [x0]	// tmp110,
	subs	x3, x3, x2	// tmp109, tmp110
	mov	x2, 0	// tmp110
	beq	.L89		//,
	bl	__stack_chk_fail		//
.L89:
	mov	w0, w1	//, <retval>
	ldp	x29, x30, [sp], 304	//,,,
	.cfi_restore 30
	.cfi_restore 29
	.cfi_def_cfa_offset 0
	ret	
	.cfi_endproc
.LFE33:
	.size	test_indirect_va_list_few_floats, .-test_indirect_va_list_few_floats
	.section	.rodata
	.align	3
.LC13:
	.string	"several_floats"
	.text
	.align	2
	.global	test_va_list_several_floats
	.type	test_va_list_several_floats, %function
test_va_list_several_floats:
.LFB34:
	.cfi_startproc
	stp	x29, x30, [sp, -304]!	//,,,
	.cfi_def_cfa_offset 304
	.cfi_offset 29, -304
	.cfi_offset 30, -296
	mov	x29, sp	//,
	str	x0, [sp, 56]	// func, func
	str	x1, [sp, 248]	//,
	str	x2, [sp, 256]	//,
	str	x3, [sp, 264]	//,
	str	x4, [sp, 272]	//,
	str	x5, [sp, 280]	//,
	str	x6, [sp, 288]	//,
	str	x7, [sp, 296]	//,
	str	q0, [sp, 112]	//,
	str	q1, [sp, 128]	//,
	str	q2, [sp, 144]	//,
	str	q3, [sp, 160]	//,
	str	q4, [sp, 176]	//,
	str	q5, [sp, 192]	//,
	str	q6, [sp, 208]	//,
	str	q7, [sp, 224]	//,
// varargs-use-dll.c:105: DECLARE_TEST (several_floats);
	adrp	x0, :got:__stack_chk_guard	// tmp95,
	ldr	x0, [x0, #:got_lo12:__stack_chk_guard]	// tmp94, tmp95,
	ldr	x1, [x0]	// tmp112,
	str	x1, [sp, 104]	// tmp112, D.6808
	mov	x1, 0	// tmp112
	add	x0, sp, 304	// tmp117,,
	str	x0, [sp, 72]	// tmp117, MEM[(struct  *)&argv].__stack
	add	x0, sp, 304	// tmp118,,
	str	x0, [sp, 80]	// tmp118, MEM[(struct  *)&argv].__gr_top
	add	x0, sp, 240	// tmp97,,
	str	x0, [sp, 88]	// tmp97, MEM[(struct  *)&argv].__vr_top
	mov	w0, -56	// tmp98,
	str	w0, [sp, 96]	// tmp98, MEM[(struct  *)&argv].__gr_offs
	mov	w0, -128	// tmp99,
	str	w0, [sp, 100]	// tmp99, MEM[(struct  *)&argv].__vr_offs
	add	x0, sp, 16	// tmp100,,
	add	x1, sp, 72	// tmp101,,
	ldp	q0, q1, [x1]	// tmp102, tmp103, argv
	stp	q0, q1, [x0]	// tmp102, tmp103,
	add	x0, sp, 16	// tmp104,,
	ldr	x2, [sp, 56]	// tmp105, func
	mov	x1, x0	//, tmp104
	adrp	x0, .LC13	// tmp106,
	add	x0, x0, :lo12:.LC13	//, tmp106,
	blr	x2		// tmp105
	str	w0, [sp, 68]	//, retval
	ldr	w2, [sp, 68]	//, retval
	adrp	x0, .LC13	// tmp107,
	add	x1, x0, :lo12:.LC13	//, tmp107,
	adrp	x0, .LC1	// tmp108,
	add	x0, x0, :lo12:.LC1	//, tmp108,
	bl	printf		//
	ldr	w0, [sp, 68]	// _8, retval
	mov	w1, w0	// <retval>, _8
	adrp	x0, :got:__stack_chk_guard	// tmp111,
	ldr	x0, [x0, #:got_lo12:__stack_chk_guard]	// tmp110, tmp111,
	ldr	x3, [sp, 104]	// tmp113, D.6808
	ldr	x2, [x0]	// tmp114,
	subs	x3, x3, x2	// tmp113, tmp114
	mov	x2, 0	// tmp114
	beq	.L92		//,
	bl	__stack_chk_fail		//
.L92:
	mov	w0, w1	//, <retval>
	ldp	x29, x30, [sp], 304	//,,,
	.cfi_restore 30
	.cfi_restore 29
	.cfi_def_cfa_offset 0
	ret	
	.cfi_endproc
.LFE34:
	.size	test_va_list_several_floats, .-test_va_list_several_floats
	.align	2
	.global	use_indirect_va_list_several_floats
	.type	use_indirect_va_list_several_floats, %function
use_indirect_va_list_several_floats:
.LFB35:
	.cfi_startproc
	stp	x29, x30, [sp, -96]!	//,,,
	.cfi_def_cfa_offset 96
	.cfi_offset 29, -96
	.cfi_offset 30, -88
	mov	x29, sp	//,
	str	x19, [sp, 16]	//,
	.cfi_offset 19, -80
	str	x0, [sp, 72]	// func, func
	mov	x19, x1	// tmp94,
// varargs-use-dll.c:105: DECLARE_TEST (several_floats);
	add	x0, sp, 32	// tmp95,,
	mov	x1, x19	// tmp96, tmp94
	ldp	q0, q1, [x1]	// tmp97, tmp98, argv
	stp	q0, q1, [x0]	// tmp97, tmp98,
	add	x0, sp, 32	// tmp99,,
	ldr	x2, [sp, 72]	// tmp100, func
	mov	x1, x0	//, tmp99
	adrp	x0, .LC13	// tmp101,
	add	x0, x0, :lo12:.LC13	//, tmp101,
	blr	x2		// tmp100
	str	w0, [sp, 92]	//, retval
	ldr	w2, [sp, 92]	//, retval
	adrp	x0, .LC13	// tmp102,
	add	x1, x0, :lo12:.LC13	//, tmp102,
	adrp	x0, .LC2	// tmp103,
	add	x0, x0, :lo12:.LC2	//, tmp103,
	bl	printf		//
	ldr	w0, [sp, 92]	// _6, retval
	ldr	x19, [sp, 16]	//,
	ldp	x29, x30, [sp], 96	//,,,
	.cfi_restore 30
	.cfi_restore 29
	.cfi_restore 19
	.cfi_def_cfa_offset 0
	ret	
	.cfi_endproc
.LFE35:
	.size	use_indirect_va_list_several_floats, .-use_indirect_va_list_several_floats
	.align	2
	.global	test_indirect_va_list_several_floats
	.type	test_indirect_va_list_several_floats, %function
test_indirect_va_list_several_floats:
.LFB36:
	.cfi_startproc
	stp	x29, x30, [sp, -304]!	//,,,
	.cfi_def_cfa_offset 304
	.cfi_offset 29, -304
	.cfi_offset 30, -296
	mov	x29, sp	//,
	str	x0, [sp, 56]	// func, func
	str	x1, [sp, 248]	//,
	str	x2, [sp, 256]	//,
	str	x3, [sp, 264]	//,
	str	x4, [sp, 272]	//,
	str	x5, [sp, 280]	//,
	str	x6, [sp, 288]	//,
	str	x7, [sp, 296]	//,
	str	q0, [sp, 112]	//,
	str	q1, [sp, 128]	//,
	str	q2, [sp, 144]	//,
	str	q3, [sp, 160]	//,
	str	q4, [sp, 176]	//,
	str	q5, [sp, 192]	//,
	str	q6, [sp, 208]	//,
	str	q7, [sp, 224]	//,
// varargs-use-dll.c:105: DECLARE_TEST (several_floats);
	adrp	x0, :got:__stack_chk_guard	// tmp95,
	ldr	x0, [x0, #:got_lo12:__stack_chk_guard]	// tmp94, tmp95,
	ldr	x1, [x0]	// tmp108,
	str	x1, [sp, 104]	// tmp108, D.6815
	mov	x1, 0	// tmp108
	add	x0, sp, 304	// tmp113,,
	str	x0, [sp, 72]	// tmp113, MEM[(struct  *)&argv].__stack
	add	x0, sp, 304	// tmp114,,
	str	x0, [sp, 80]	// tmp114, MEM[(struct  *)&argv].__gr_top
	add	x0, sp, 240	// tmp97,,
	str	x0, [sp, 88]	// tmp97, MEM[(struct  *)&argv].__vr_top
	mov	w0, -56	// tmp98,
	str	w0, [sp, 96]	// tmp98, MEM[(struct  *)&argv].__gr_offs
	mov	w0, -128	// tmp99,
	str	w0, [sp, 100]	// tmp99, MEM[(struct  *)&argv].__vr_offs
	add	x0, sp, 16	// tmp100,,
	add	x1, sp, 72	// tmp101,,
	ldp	q0, q1, [x1]	// tmp102, tmp103, argv
	stp	q0, q1, [x0]	// tmp102, tmp103,
	add	x0, sp, 16	// tmp104,,
	mov	x1, x0	//, tmp104
	ldr	x0, [sp, 56]	//, func
	bl	use_indirect_va_list_several_floats		//
	str	w0, [sp, 68]	//, retval
	ldr	w0, [sp, 68]	// _7, retval
	mov	w1, w0	// <retval>, _7
	adrp	x0, :got:__stack_chk_guard	// tmp107,
	ldr	x0, [x0, #:got_lo12:__stack_chk_guard]	// tmp106, tmp107,
	ldr	x3, [sp, 104]	// tmp109, D.6815
	ldr	x2, [x0]	// tmp110,
	subs	x3, x3, x2	// tmp109, tmp110
	mov	x2, 0	// tmp110
	beq	.L97		//,
	bl	__stack_chk_fail		//
.L97:
	mov	w0, w1	//, <retval>
	ldp	x29, x30, [sp], 304	//,,,
	.cfi_restore 30
	.cfi_restore 29
	.cfi_def_cfa_offset 0
	ret	
	.cfi_endproc
.LFE36:
	.size	test_indirect_va_list_several_floats, .-test_indirect_va_list_several_floats
	.section	.rodata
	.align	3
.LC14:
	.string	"many_floats"
	.text
	.align	2
	.global	test_va_list_many_floats
	.type	test_va_list_many_floats, %function
test_va_list_many_floats:
.LFB37:
	.cfi_startproc
	stp	x29, x30, [sp, -304]!	//,,,
	.cfi_def_cfa_offset 304
	.cfi_offset 29, -304
	.cfi_offset 30, -296
	mov	x29, sp	//,
	str	x0, [sp, 56]	// func, func
	str	x1, [sp, 248]	//,
	str	x2, [sp, 256]	//,
	str	x3, [sp, 264]	//,
	str	x4, [sp, 272]	//,
	str	x5, [sp, 280]	//,
	str	x6, [sp, 288]	//,
	str	x7, [sp, 296]	//,
	str	q0, [sp, 112]	//,
	str	q1, [sp, 128]	//,
	str	q2, [sp, 144]	//,
	str	q3, [sp, 160]	//,
	str	q4, [sp, 176]	//,
	str	q5, [sp, 192]	//,
	str	q6, [sp, 208]	//,
	str	q7, [sp, 224]	//,
// varargs-use-dll.c:106: DECLARE_TEST (many_floats);
	adrp	x0, :got:__stack_chk_guard	// tmp95,
	ldr	x0, [x0, #:got_lo12:__stack_chk_guard]	// tmp94, tmp95,
	ldr	x1, [x0]	// tmp112,
	str	x1, [sp, 104]	// tmp112, D.6820
	mov	x1, 0	// tmp112
	add	x0, sp, 304	// tmp117,,
	str	x0, [sp, 72]	// tmp117, MEM[(struct  *)&argv].__stack
	add	x0, sp, 304	// tmp118,,
	str	x0, [sp, 80]	// tmp118, MEM[(struct  *)&argv].__gr_top
	add	x0, sp, 240	// tmp97,,
	str	x0, [sp, 88]	// tmp97, MEM[(struct  *)&argv].__vr_top
	mov	w0, -56	// tmp98,
	str	w0, [sp, 96]	// tmp98, MEM[(struct  *)&argv].__gr_offs
	mov	w0, -128	// tmp99,
	str	w0, [sp, 100]	// tmp99, MEM[(struct  *)&argv].__vr_offs
	add	x0, sp, 16	// tmp100,,
	add	x1, sp, 72	// tmp101,,
	ldp	q0, q1, [x1]	// tmp102, tmp103, argv
	stp	q0, q1, [x0]	// tmp102, tmp103,
	add	x0, sp, 16	// tmp104,,
	ldr	x2, [sp, 56]	// tmp105, func
	mov	x1, x0	//, tmp104
	adrp	x0, .LC14	// tmp106,
	add	x0, x0, :lo12:.LC14	//, tmp106,
	blr	x2		// tmp105
	str	w0, [sp, 68]	//, retval
	ldr	w2, [sp, 68]	//, retval
	adrp	x0, .LC14	// tmp107,
	add	x1, x0, :lo12:.LC14	//, tmp107,
	adrp	x0, .LC1	// tmp108,
	add	x0, x0, :lo12:.LC1	//, tmp108,
	bl	printf		//
	ldr	w0, [sp, 68]	// _8, retval
	mov	w1, w0	// <retval>, _8
	adrp	x0, :got:__stack_chk_guard	// tmp111,
	ldr	x0, [x0, #:got_lo12:__stack_chk_guard]	// tmp110, tmp111,
	ldr	x3, [sp, 104]	// tmp113, D.6820
	ldr	x2, [x0]	// tmp114,
	subs	x3, x3, x2	// tmp113, tmp114
	mov	x2, 0	// tmp114
	beq	.L100		//,
	bl	__stack_chk_fail		//
.L100:
	mov	w0, w1	//, <retval>
	ldp	x29, x30, [sp], 304	//,,,
	.cfi_restore 30
	.cfi_restore 29
	.cfi_def_cfa_offset 0
	ret	
	.cfi_endproc
.LFE37:
	.size	test_va_list_many_floats, .-test_va_list_many_floats
	.align	2
	.global	use_indirect_va_list_many_floats
	.type	use_indirect_va_list_many_floats, %function
use_indirect_va_list_many_floats:
.LFB38:
	.cfi_startproc
	stp	x29, x30, [sp, -96]!	//,,,
	.cfi_def_cfa_offset 96
	.cfi_offset 29, -96
	.cfi_offset 30, -88
	mov	x29, sp	//,
	str	x19, [sp, 16]	//,
	.cfi_offset 19, -80
	str	x0, [sp, 72]	// func, func
	mov	x19, x1	// tmp94,
// varargs-use-dll.c:106: DECLARE_TEST (many_floats);
	add	x0, sp, 32	// tmp95,,
	mov	x1, x19	// tmp96, tmp94
	ldp	q0, q1, [x1]	// tmp97, tmp98, argv
	stp	q0, q1, [x0]	// tmp97, tmp98,
	add	x0, sp, 32	// tmp99,,
	ldr	x2, [sp, 72]	// tmp100, func
	mov	x1, x0	//, tmp99
	adrp	x0, .LC14	// tmp101,
	add	x0, x0, :lo12:.LC14	//, tmp101,
	blr	x2		// tmp100
	str	w0, [sp, 92]	//, retval
	ldr	w2, [sp, 92]	//, retval
	adrp	x0, .LC14	// tmp102,
	add	x1, x0, :lo12:.LC14	//, tmp102,
	adrp	x0, .LC2	// tmp103,
	add	x0, x0, :lo12:.LC2	//, tmp103,
	bl	printf		//
	ldr	w0, [sp, 92]	// _6, retval
	ldr	x19, [sp, 16]	//,
	ldp	x29, x30, [sp], 96	//,,,
	.cfi_restore 30
	.cfi_restore 29
	.cfi_restore 19
	.cfi_def_cfa_offset 0
	ret	
	.cfi_endproc
.LFE38:
	.size	use_indirect_va_list_many_floats, .-use_indirect_va_list_many_floats
	.align	2
	.global	test_indirect_va_list_many_floats
	.type	test_indirect_va_list_many_floats, %function
test_indirect_va_list_many_floats:
.LFB39:
	.cfi_startproc
	stp	x29, x30, [sp, -304]!	//,,,
	.cfi_def_cfa_offset 304
	.cfi_offset 29, -304
	.cfi_offset 30, -296
	mov	x29, sp	//,
	str	x0, [sp, 56]	// func, func
	str	x1, [sp, 248]	//,
	str	x2, [sp, 256]	//,
	str	x3, [sp, 264]	//,
	str	x4, [sp, 272]	//,
	str	x5, [sp, 280]	//,
	str	x6, [sp, 288]	//,
	str	x7, [sp, 296]	//,
	str	q0, [sp, 112]	//,
	str	q1, [sp, 128]	//,
	str	q2, [sp, 144]	//,
	str	q3, [sp, 160]	//,
	str	q4, [sp, 176]	//,
	str	q5, [sp, 192]	//,
	str	q6, [sp, 208]	//,
	str	q7, [sp, 224]	//,
// varargs-use-dll.c:106: DECLARE_TEST (many_floats);
	adrp	x0, :got:__stack_chk_guard	// tmp95,
	ldr	x0, [x0, #:got_lo12:__stack_chk_guard]	// tmp94, tmp95,
	ldr	x1, [x0]	// tmp108,
	str	x1, [sp, 104]	// tmp108, D.6827
	mov	x1, 0	// tmp108
	add	x0, sp, 304	// tmp113,,
	str	x0, [sp, 72]	// tmp113, MEM[(struct  *)&argv].__stack
	add	x0, sp, 304	// tmp114,,
	str	x0, [sp, 80]	// tmp114, MEM[(struct  *)&argv].__gr_top
	add	x0, sp, 240	// tmp97,,
	str	x0, [sp, 88]	// tmp97, MEM[(struct  *)&argv].__vr_top
	mov	w0, -56	// tmp98,
	str	w0, [sp, 96]	// tmp98, MEM[(struct  *)&argv].__gr_offs
	mov	w0, -128	// tmp99,
	str	w0, [sp, 100]	// tmp99, MEM[(struct  *)&argv].__vr_offs
	add	x0, sp, 16	// tmp100,,
	add	x1, sp, 72	// tmp101,,
	ldp	q0, q1, [x1]	// tmp102, tmp103, argv
	stp	q0, q1, [x0]	// tmp102, tmp103,
	add	x0, sp, 16	// tmp104,,
	mov	x1, x0	//, tmp104
	ldr	x0, [sp, 56]	//, func
	bl	use_indirect_va_list_many_floats		//
	str	w0, [sp, 68]	//, retval
	ldr	w0, [sp, 68]	// _7, retval
	mov	w1, w0	// <retval>, _7
	adrp	x0, :got:__stack_chk_guard	// tmp107,
	ldr	x0, [x0, #:got_lo12:__stack_chk_guard]	// tmp106, tmp107,
	ldr	x3, [sp, 104]	// tmp109, D.6827
	ldr	x2, [x0]	// tmp110,
	subs	x3, x3, x2	// tmp109, tmp110
	mov	x2, 0	// tmp110
	beq	.L105		//,
	bl	__stack_chk_fail		//
.L105:
	mov	w0, w1	//, <retval>
	ldp	x29, x30, [sp], 304	//,,,
	.cfi_restore 30
	.cfi_restore 29
	.cfi_def_cfa_offset 0
	ret	
	.cfi_endproc
.LFE39:
	.size	test_indirect_va_list_many_floats, .-test_indirect_va_list_many_floats
	.section	.rodata
	.align	3
.LC15:
	.string	"few_strings"
	.text
	.align	2
	.global	test_va_list_few_strings
	.type	test_va_list_few_strings, %function
test_va_list_few_strings:
.LFB40:
	.cfi_startproc
	stp	x29, x30, [sp, -304]!	//,,,
	.cfi_def_cfa_offset 304
	.cfi_offset 29, -304
	.cfi_offset 30, -296
	mov	x29, sp	//,
	str	x0, [sp, 56]	// func, func
	str	x1, [sp, 248]	//,
	str	x2, [sp, 256]	//,
	str	x3, [sp, 264]	//,
	str	x4, [sp, 272]	//,
	str	x5, [sp, 280]	//,
	str	x6, [sp, 288]	//,
	str	x7, [sp, 296]	//,
	str	q0, [sp, 112]	//,
	str	q1, [sp, 128]	//,
	str	q2, [sp, 144]	//,
	str	q3, [sp, 160]	//,
	str	q4, [sp, 176]	//,
	str	q5, [sp, 192]	//,
	str	q6, [sp, 208]	//,
	str	q7, [sp, 224]	//,
// varargs-use-dll.c:108: DECLARE_TEST (few_strings);
	adrp	x0, :got:__stack_chk_guard	// tmp95,
	ldr	x0, [x0, #:got_lo12:__stack_chk_guard]	// tmp94, tmp95,
	ldr	x1, [x0]	// tmp112,
	str	x1, [sp, 104]	// tmp112, D.6832
	mov	x1, 0	// tmp112
	add	x0, sp, 304	// tmp117,,
	str	x0, [sp, 72]	// tmp117, MEM[(struct  *)&argv].__stack
	add	x0, sp, 304	// tmp118,,
	str	x0, [sp, 80]	// tmp118, MEM[(struct  *)&argv].__gr_top
	add	x0, sp, 240	// tmp97,,
	str	x0, [sp, 88]	// tmp97, MEM[(struct  *)&argv].__vr_top
	mov	w0, -56	// tmp98,
	str	w0, [sp, 96]	// tmp98, MEM[(struct  *)&argv].__gr_offs
	mov	w0, -128	// tmp99,
	str	w0, [sp, 100]	// tmp99, MEM[(struct  *)&argv].__vr_offs
	add	x0, sp, 16	// tmp100,,
	add	x1, sp, 72	// tmp101,,
	ldp	q0, q1, [x1]	// tmp102, tmp103, argv
	stp	q0, q1, [x0]	// tmp102, tmp103,
	add	x0, sp, 16	// tmp104,,
	ldr	x2, [sp, 56]	// tmp105, func
	mov	x1, x0	//, tmp104
	adrp	x0, .LC15	// tmp106,
	add	x0, x0, :lo12:.LC15	//, tmp106,
	blr	x2		// tmp105
	str	w0, [sp, 68]	//, retval
	ldr	w2, [sp, 68]	//, retval
	adrp	x0, .LC15	// tmp107,
	add	x1, x0, :lo12:.LC15	//, tmp107,
	adrp	x0, .LC1	// tmp108,
	add	x0, x0, :lo12:.LC1	//, tmp108,
	bl	printf		//
	ldr	w0, [sp, 68]	// _8, retval
	mov	w1, w0	// <retval>, _8
	adrp	x0, :got:__stack_chk_guard	// tmp111,
	ldr	x0, [x0, #:got_lo12:__stack_chk_guard]	// tmp110, tmp111,
	ldr	x3, [sp, 104]	// tmp113, D.6832
	ldr	x2, [x0]	// tmp114,
	subs	x3, x3, x2	// tmp113, tmp114
	mov	x2, 0	// tmp114
	beq	.L108		//,
	bl	__stack_chk_fail		//
.L108:
	mov	w0, w1	//, <retval>
	ldp	x29, x30, [sp], 304	//,,,
	.cfi_restore 30
	.cfi_restore 29
	.cfi_def_cfa_offset 0
	ret	
	.cfi_endproc
.LFE40:
	.size	test_va_list_few_strings, .-test_va_list_few_strings
	.align	2
	.global	use_indirect_va_list_few_strings
	.type	use_indirect_va_list_few_strings, %function
use_indirect_va_list_few_strings:
.LFB41:
	.cfi_startproc
	stp	x29, x30, [sp, -96]!	//,,,
	.cfi_def_cfa_offset 96
	.cfi_offset 29, -96
	.cfi_offset 30, -88
	mov	x29, sp	//,
	str	x19, [sp, 16]	//,
	.cfi_offset 19, -80
	str	x0, [sp, 72]	// func, func
	mov	x19, x1	// tmp94,
// varargs-use-dll.c:108: DECLARE_TEST (few_strings);
	add	x0, sp, 32	// tmp95,,
	mov	x1, x19	// tmp96, tmp94
	ldp	q0, q1, [x1]	// tmp97, tmp98, argv
	stp	q0, q1, [x0]	// tmp97, tmp98,
	add	x0, sp, 32	// tmp99,,
	ldr	x2, [sp, 72]	// tmp100, func
	mov	x1, x0	//, tmp99
	adrp	x0, .LC15	// tmp101,
	add	x0, x0, :lo12:.LC15	//, tmp101,
	blr	x2		// tmp100
	str	w0, [sp, 92]	//, retval
	ldr	w2, [sp, 92]	//, retval
	adrp	x0, .LC15	// tmp102,
	add	x1, x0, :lo12:.LC15	//, tmp102,
	adrp	x0, .LC2	// tmp103,
	add	x0, x0, :lo12:.LC2	//, tmp103,
	bl	printf		//
	ldr	w0, [sp, 92]	// _6, retval
	ldr	x19, [sp, 16]	//,
	ldp	x29, x30, [sp], 96	//,,,
	.cfi_restore 30
	.cfi_restore 29
	.cfi_restore 19
	.cfi_def_cfa_offset 0
	ret	
	.cfi_endproc
.LFE41:
	.size	use_indirect_va_list_few_strings, .-use_indirect_va_list_few_strings
	.align	2
	.global	test_indirect_va_list_few_strings
	.type	test_indirect_va_list_few_strings, %function
test_indirect_va_list_few_strings:
.LFB42:
	.cfi_startproc
	stp	x29, x30, [sp, -304]!	//,,,
	.cfi_def_cfa_offset 304
	.cfi_offset 29, -304
	.cfi_offset 30, -296
	mov	x29, sp	//,
	str	x0, [sp, 56]	// func, func
	str	x1, [sp, 248]	//,
	str	x2, [sp, 256]	//,
	str	x3, [sp, 264]	//,
	str	x4, [sp, 272]	//,
	str	x5, [sp, 280]	//,
	str	x6, [sp, 288]	//,
	str	x7, [sp, 296]	//,
	str	q0, [sp, 112]	//,
	str	q1, [sp, 128]	//,
	str	q2, [sp, 144]	//,
	str	q3, [sp, 160]	//,
	str	q4, [sp, 176]	//,
	str	q5, [sp, 192]	//,
	str	q6, [sp, 208]	//,
	str	q7, [sp, 224]	//,
// varargs-use-dll.c:108: DECLARE_TEST (few_strings);
	adrp	x0, :got:__stack_chk_guard	// tmp95,
	ldr	x0, [x0, #:got_lo12:__stack_chk_guard]	// tmp94, tmp95,
	ldr	x1, [x0]	// tmp108,
	str	x1, [sp, 104]	// tmp108, D.6839
	mov	x1, 0	// tmp108
	add	x0, sp, 304	// tmp113,,
	str	x0, [sp, 72]	// tmp113, MEM[(struct  *)&argv].__stack
	add	x0, sp, 304	// tmp114,,
	str	x0, [sp, 80]	// tmp114, MEM[(struct  *)&argv].__gr_top
	add	x0, sp, 240	// tmp97,,
	str	x0, [sp, 88]	// tmp97, MEM[(struct  *)&argv].__vr_top
	mov	w0, -56	// tmp98,
	str	w0, [sp, 96]	// tmp98, MEM[(struct  *)&argv].__gr_offs
	mov	w0, -128	// tmp99,
	str	w0, [sp, 100]	// tmp99, MEM[(struct  *)&argv].__vr_offs
	add	x0, sp, 16	// tmp100,,
	add	x1, sp, 72	// tmp101,,
	ldp	q0, q1, [x1]	// tmp102, tmp103, argv
	stp	q0, q1, [x0]	// tmp102, tmp103,
	add	x0, sp, 16	// tmp104,,
	mov	x1, x0	//, tmp104
	ldr	x0, [sp, 56]	//, func
	bl	use_indirect_va_list_few_strings		//
	str	w0, [sp, 68]	//, retval
	ldr	w0, [sp, 68]	// _7, retval
	mov	w1, w0	// <retval>, _7
	adrp	x0, :got:__stack_chk_guard	// tmp107,
	ldr	x0, [x0, #:got_lo12:__stack_chk_guard]	// tmp106, tmp107,
	ldr	x3, [sp, 104]	// tmp109, D.6839
	ldr	x2, [x0]	// tmp110,
	subs	x3, x3, x2	// tmp109, tmp110
	mov	x2, 0	// tmp110
	beq	.L113		//,
	bl	__stack_chk_fail		//
.L113:
	mov	w0, w1	//, <retval>
	ldp	x29, x30, [sp], 304	//,,,
	.cfi_restore 30
	.cfi_restore 29
	.cfi_def_cfa_offset 0
	ret	
	.cfi_endproc
.LFE42:
	.size	test_indirect_va_list_few_strings, .-test_indirect_va_list_few_strings
	.section	.rodata
	.align	3
.LC16:
	.string	"several_strings"
	.text
	.align	2
	.global	test_va_list_several_strings
	.type	test_va_list_several_strings, %function
test_va_list_several_strings:
.LFB43:
	.cfi_startproc
	stp	x29, x30, [sp, -304]!	//,,,
	.cfi_def_cfa_offset 304
	.cfi_offset 29, -304
	.cfi_offset 30, -296
	mov	x29, sp	//,
	str	x0, [sp, 56]	// func, func
	str	x1, [sp, 248]	//,
	str	x2, [sp, 256]	//,
	str	x3, [sp, 264]	//,
	str	x4, [sp, 272]	//,
	str	x5, [sp, 280]	//,
	str	x6, [sp, 288]	//,
	str	x7, [sp, 296]	//,
	str	q0, [sp, 112]	//,
	str	q1, [sp, 128]	//,
	str	q2, [sp, 144]	//,
	str	q3, [sp, 160]	//,
	str	q4, [sp, 176]	//,
	str	q5, [sp, 192]	//,
	str	q6, [sp, 208]	//,
	str	q7, [sp, 224]	//,
// varargs-use-dll.c:109: DECLARE_TEST (several_strings);
	adrp	x0, :got:__stack_chk_guard	// tmp95,
	ldr	x0, [x0, #:got_lo12:__stack_chk_guard]	// tmp94, tmp95,
	ldr	x1, [x0]	// tmp112,
	str	x1, [sp, 104]	// tmp112, D.6844
	mov	x1, 0	// tmp112
	add	x0, sp, 304	// tmp117,,
	str	x0, [sp, 72]	// tmp117, MEM[(struct  *)&argv].__stack
	add	x0, sp, 304	// tmp118,,
	str	x0, [sp, 80]	// tmp118, MEM[(struct  *)&argv].__gr_top
	add	x0, sp, 240	// tmp97,,
	str	x0, [sp, 88]	// tmp97, MEM[(struct  *)&argv].__vr_top
	mov	w0, -56	// tmp98,
	str	w0, [sp, 96]	// tmp98, MEM[(struct  *)&argv].__gr_offs
	mov	w0, -128	// tmp99,
	str	w0, [sp, 100]	// tmp99, MEM[(struct  *)&argv].__vr_offs
	add	x0, sp, 16	// tmp100,,
	add	x1, sp, 72	// tmp101,,
	ldp	q0, q1, [x1]	// tmp102, tmp103, argv
	stp	q0, q1, [x0]	// tmp102, tmp103,
	add	x0, sp, 16	// tmp104,,
	ldr	x2, [sp, 56]	// tmp105, func
	mov	x1, x0	//, tmp104
	adrp	x0, .LC16	// tmp106,
	add	x0, x0, :lo12:.LC16	//, tmp106,
	blr	x2		// tmp105
	str	w0, [sp, 68]	//, retval
	ldr	w2, [sp, 68]	//, retval
	adrp	x0, .LC16	// tmp107,
	add	x1, x0, :lo12:.LC16	//, tmp107,
	adrp	x0, .LC1	// tmp108,
	add	x0, x0, :lo12:.LC1	//, tmp108,
	bl	printf		//
	ldr	w0, [sp, 68]	// _8, retval
	mov	w1, w0	// <retval>, _8
	adrp	x0, :got:__stack_chk_guard	// tmp111,
	ldr	x0, [x0, #:got_lo12:__stack_chk_guard]	// tmp110, tmp111,
	ldr	x3, [sp, 104]	// tmp113, D.6844
	ldr	x2, [x0]	// tmp114,
	subs	x3, x3, x2	// tmp113, tmp114
	mov	x2, 0	// tmp114
	beq	.L116		//,
	bl	__stack_chk_fail		//
.L116:
	mov	w0, w1	//, <retval>
	ldp	x29, x30, [sp], 304	//,,,
	.cfi_restore 30
	.cfi_restore 29
	.cfi_def_cfa_offset 0
	ret	
	.cfi_endproc
.LFE43:
	.size	test_va_list_several_strings, .-test_va_list_several_strings
	.align	2
	.global	use_indirect_va_list_several_strings
	.type	use_indirect_va_list_several_strings, %function
use_indirect_va_list_several_strings:
.LFB44:
	.cfi_startproc
	stp	x29, x30, [sp, -96]!	//,,,
	.cfi_def_cfa_offset 96
	.cfi_offset 29, -96
	.cfi_offset 30, -88
	mov	x29, sp	//,
	str	x19, [sp, 16]	//,
	.cfi_offset 19, -80
	str	x0, [sp, 72]	// func, func
	mov	x19, x1	// tmp94,
// varargs-use-dll.c:109: DECLARE_TEST (several_strings);
	add	x0, sp, 32	// tmp95,,
	mov	x1, x19	// tmp96, tmp94
	ldp	q0, q1, [x1]	// tmp97, tmp98, argv
	stp	q0, q1, [x0]	// tmp97, tmp98,
	add	x0, sp, 32	// tmp99,,
	ldr	x2, [sp, 72]	// tmp100, func
	mov	x1, x0	//, tmp99
	adrp	x0, .LC16	// tmp101,
	add	x0, x0, :lo12:.LC16	//, tmp101,
	blr	x2		// tmp100
	str	w0, [sp, 92]	//, retval
	ldr	w2, [sp, 92]	//, retval
	adrp	x0, .LC16	// tmp102,
	add	x1, x0, :lo12:.LC16	//, tmp102,
	adrp	x0, .LC2	// tmp103,
	add	x0, x0, :lo12:.LC2	//, tmp103,
	bl	printf		//
	ldr	w0, [sp, 92]	// _6, retval
	ldr	x19, [sp, 16]	//,
	ldp	x29, x30, [sp], 96	//,,,
	.cfi_restore 30
	.cfi_restore 29
	.cfi_restore 19
	.cfi_def_cfa_offset 0
	ret	
	.cfi_endproc
.LFE44:
	.size	use_indirect_va_list_several_strings, .-use_indirect_va_list_several_strings
	.align	2
	.global	test_indirect_va_list_several_strings
	.type	test_indirect_va_list_several_strings, %function
test_indirect_va_list_several_strings:
.LFB45:
	.cfi_startproc
	stp	x29, x30, [sp, -304]!	//,,,
	.cfi_def_cfa_offset 304
	.cfi_offset 29, -304
	.cfi_offset 30, -296
	mov	x29, sp	//,
	str	x0, [sp, 56]	// func, func
	str	x1, [sp, 248]	//,
	str	x2, [sp, 256]	//,
	str	x3, [sp, 264]	//,
	str	x4, [sp, 272]	//,
	str	x5, [sp, 280]	//,
	str	x6, [sp, 288]	//,
	str	x7, [sp, 296]	//,
	str	q0, [sp, 112]	//,
	str	q1, [sp, 128]	//,
	str	q2, [sp, 144]	//,
	str	q3, [sp, 160]	//,
	str	q4, [sp, 176]	//,
	str	q5, [sp, 192]	//,
	str	q6, [sp, 208]	//,
	str	q7, [sp, 224]	//,
// varargs-use-dll.c:109: DECLARE_TEST (several_strings);
	adrp	x0, :got:__stack_chk_guard	// tmp95,
	ldr	x0, [x0, #:got_lo12:__stack_chk_guard]	// tmp94, tmp95,
	ldr	x1, [x0]	// tmp108,
	str	x1, [sp, 104]	// tmp108, D.6851
	mov	x1, 0	// tmp108
	add	x0, sp, 304	// tmp113,,
	str	x0, [sp, 72]	// tmp113, MEM[(struct  *)&argv].__stack
	add	x0, sp, 304	// tmp114,,
	str	x0, [sp, 80]	// tmp114, MEM[(struct  *)&argv].__gr_top
	add	x0, sp, 240	// tmp97,,
	str	x0, [sp, 88]	// tmp97, MEM[(struct  *)&argv].__vr_top
	mov	w0, -56	// tmp98,
	str	w0, [sp, 96]	// tmp98, MEM[(struct  *)&argv].__gr_offs
	mov	w0, -128	// tmp99,
	str	w0, [sp, 100]	// tmp99, MEM[(struct  *)&argv].__vr_offs
	add	x0, sp, 16	// tmp100,,
	add	x1, sp, 72	// tmp101,,
	ldp	q0, q1, [x1]	// tmp102, tmp103, argv
	stp	q0, q1, [x0]	// tmp102, tmp103,
	add	x0, sp, 16	// tmp104,,
	mov	x1, x0	//, tmp104
	ldr	x0, [sp, 56]	//, func
	bl	use_indirect_va_list_several_strings		//
	str	w0, [sp, 68]	//, retval
	ldr	w0, [sp, 68]	// _7, retval
	mov	w1, w0	// <retval>, _7
	adrp	x0, :got:__stack_chk_guard	// tmp107,
	ldr	x0, [x0, #:got_lo12:__stack_chk_guard]	// tmp106, tmp107,
	ldr	x3, [sp, 104]	// tmp109, D.6851
	ldr	x2, [x0]	// tmp110,
	subs	x3, x3, x2	// tmp109, tmp110
	mov	x2, 0	// tmp110
	beq	.L121		//,
	bl	__stack_chk_fail		//
.L121:
	mov	w0, w1	//, <retval>
	ldp	x29, x30, [sp], 304	//,,,
	.cfi_restore 30
	.cfi_restore 29
	.cfi_def_cfa_offset 0
	ret	
	.cfi_endproc
.LFE45:
	.size	test_indirect_va_list_several_strings, .-test_indirect_va_list_several_strings
	.section	.rodata
	.align	3
.LC17:
	.string	"many_strings"
	.text
	.align	2
	.global	test_va_list_many_strings
	.type	test_va_list_many_strings, %function
test_va_list_many_strings:
.LFB46:
	.cfi_startproc
	stp	x29, x30, [sp, -304]!	//,,,
	.cfi_def_cfa_offset 304
	.cfi_offset 29, -304
	.cfi_offset 30, -296
	mov	x29, sp	//,
	str	x0, [sp, 56]	// func, func
	str	x1, [sp, 248]	//,
	str	x2, [sp, 256]	//,
	str	x3, [sp, 264]	//,
	str	x4, [sp, 272]	//,
	str	x5, [sp, 280]	//,
	str	x6, [sp, 288]	//,
	str	x7, [sp, 296]	//,
	str	q0, [sp, 112]	//,
	str	q1, [sp, 128]	//,
	str	q2, [sp, 144]	//,
	str	q3, [sp, 160]	//,
	str	q4, [sp, 176]	//,
	str	q5, [sp, 192]	//,
	str	q6, [sp, 208]	//,
	str	q7, [sp, 224]	//,
// varargs-use-dll.c:110: DECLARE_TEST (many_strings);
	adrp	x0, :got:__stack_chk_guard	// tmp95,
	ldr	x0, [x0, #:got_lo12:__stack_chk_guard]	// tmp94, tmp95,
	ldr	x1, [x0]	// tmp112,
	str	x1, [sp, 104]	// tmp112, D.6856
	mov	x1, 0	// tmp112
	add	x0, sp, 304	// tmp117,,
	str	x0, [sp, 72]	// tmp117, MEM[(struct  *)&argv].__stack
	add	x0, sp, 304	// tmp118,,
	str	x0, [sp, 80]	// tmp118, MEM[(struct  *)&argv].__gr_top
	add	x0, sp, 240	// tmp97,,
	str	x0, [sp, 88]	// tmp97, MEM[(struct  *)&argv].__vr_top
	mov	w0, -56	// tmp98,
	str	w0, [sp, 96]	// tmp98, MEM[(struct  *)&argv].__gr_offs
	mov	w0, -128	// tmp99,
	str	w0, [sp, 100]	// tmp99, MEM[(struct  *)&argv].__vr_offs
	add	x0, sp, 16	// tmp100,,
	add	x1, sp, 72	// tmp101,,
	ldp	q0, q1, [x1]	// tmp102, tmp103, argv
	stp	q0, q1, [x0]	// tmp102, tmp103,
	add	x0, sp, 16	// tmp104,,
	ldr	x2, [sp, 56]	// tmp105, func
	mov	x1, x0	//, tmp104
	adrp	x0, .LC17	// tmp106,
	add	x0, x0, :lo12:.LC17	//, tmp106,
	blr	x2		// tmp105
	str	w0, [sp, 68]	//, retval
	ldr	w2, [sp, 68]	//, retval
	adrp	x0, .LC17	// tmp107,
	add	x1, x0, :lo12:.LC17	//, tmp107,
	adrp	x0, .LC1	// tmp108,
	add	x0, x0, :lo12:.LC1	//, tmp108,
	bl	printf		//
	ldr	w0, [sp, 68]	// _8, retval
	mov	w1, w0	// <retval>, _8
	adrp	x0, :got:__stack_chk_guard	// tmp111,
	ldr	x0, [x0, #:got_lo12:__stack_chk_guard]	// tmp110, tmp111,
	ldr	x3, [sp, 104]	// tmp113, D.6856
	ldr	x2, [x0]	// tmp114,
	subs	x3, x3, x2	// tmp113, tmp114
	mov	x2, 0	// tmp114
	beq	.L124		//,
	bl	__stack_chk_fail		//
.L124:
	mov	w0, w1	//, <retval>
	ldp	x29, x30, [sp], 304	//,,,
	.cfi_restore 30
	.cfi_restore 29
	.cfi_def_cfa_offset 0
	ret	
	.cfi_endproc
.LFE46:
	.size	test_va_list_many_strings, .-test_va_list_many_strings
	.align	2
	.global	use_indirect_va_list_many_strings
	.type	use_indirect_va_list_many_strings, %function
use_indirect_va_list_many_strings:
.LFB47:
	.cfi_startproc
	stp	x29, x30, [sp, -96]!	//,,,
	.cfi_def_cfa_offset 96
	.cfi_offset 29, -96
	.cfi_offset 30, -88
	mov	x29, sp	//,
	str	x19, [sp, 16]	//,
	.cfi_offset 19, -80
	str	x0, [sp, 72]	// func, func
	mov	x19, x1	// tmp94,
// varargs-use-dll.c:110: DECLARE_TEST (many_strings);
	add	x0, sp, 32	// tmp95,,
	mov	x1, x19	// tmp96, tmp94
	ldp	q0, q1, [x1]	// tmp97, tmp98, argv
	stp	q0, q1, [x0]	// tmp97, tmp98,
	add	x0, sp, 32	// tmp99,,
	ldr	x2, [sp, 72]	// tmp100, func
	mov	x1, x0	//, tmp99
	adrp	x0, .LC17	// tmp101,
	add	x0, x0, :lo12:.LC17	//, tmp101,
	blr	x2		// tmp100
	str	w0, [sp, 92]	//, retval
	ldr	w2, [sp, 92]	//, retval
	adrp	x0, .LC17	// tmp102,
	add	x1, x0, :lo12:.LC17	//, tmp102,
	adrp	x0, .LC2	// tmp103,
	add	x0, x0, :lo12:.LC2	//, tmp103,
	bl	printf		//
	ldr	w0, [sp, 92]	// _6, retval
	ldr	x19, [sp, 16]	//,
	ldp	x29, x30, [sp], 96	//,,,
	.cfi_restore 30
	.cfi_restore 29
	.cfi_restore 19
	.cfi_def_cfa_offset 0
	ret	
	.cfi_endproc
.LFE47:
	.size	use_indirect_va_list_many_strings, .-use_indirect_va_list_many_strings
	.align	2
	.global	test_indirect_va_list_many_strings
	.type	test_indirect_va_list_many_strings, %function
test_indirect_va_list_many_strings:
.LFB48:
	.cfi_startproc
	stp	x29, x30, [sp, -304]!	//,,,
	.cfi_def_cfa_offset 304
	.cfi_offset 29, -304
	.cfi_offset 30, -296
	mov	x29, sp	//,
	str	x0, [sp, 56]	// func, func
	str	x1, [sp, 248]	//,
	str	x2, [sp, 256]	//,
	str	x3, [sp, 264]	//,
	str	x4, [sp, 272]	//,
	str	x5, [sp, 280]	//,
	str	x6, [sp, 288]	//,
	str	x7, [sp, 296]	//,
	str	q0, [sp, 112]	//,
	str	q1, [sp, 128]	//,
	str	q2, [sp, 144]	//,
	str	q3, [sp, 160]	//,
	str	q4, [sp, 176]	//,
	str	q5, [sp, 192]	//,
	str	q6, [sp, 208]	//,
	str	q7, [sp, 224]	//,
// varargs-use-dll.c:110: DECLARE_TEST (many_strings);
	adrp	x0, :got:__stack_chk_guard	// tmp95,
	ldr	x0, [x0, #:got_lo12:__stack_chk_guard]	// tmp94, tmp95,
	ldr	x1, [x0]	// tmp108,
	str	x1, [sp, 104]	// tmp108, D.6863
	mov	x1, 0	// tmp108
	add	x0, sp, 304	// tmp113,,
	str	x0, [sp, 72]	// tmp113, MEM[(struct  *)&argv].__stack
	add	x0, sp, 304	// tmp114,,
	str	x0, [sp, 80]	// tmp114, MEM[(struct  *)&argv].__gr_top
	add	x0, sp, 240	// tmp97,,
	str	x0, [sp, 88]	// tmp97, MEM[(struct  *)&argv].__vr_top
	mov	w0, -56	// tmp98,
	str	w0, [sp, 96]	// tmp98, MEM[(struct  *)&argv].__gr_offs
	mov	w0, -128	// tmp99,
	str	w0, [sp, 100]	// tmp99, MEM[(struct  *)&argv].__vr_offs
	add	x0, sp, 16	// tmp100,,
	add	x1, sp, 72	// tmp101,,
	ldp	q0, q1, [x1]	// tmp102, tmp103, argv
	stp	q0, q1, [x0]	// tmp102, tmp103,
	add	x0, sp, 16	// tmp104,,
	mov	x1, x0	//, tmp104
	ldr	x0, [sp, 56]	//, func
	bl	use_indirect_va_list_many_strings		//
	str	w0, [sp, 68]	//, retval
	ldr	w0, [sp, 68]	// _7, retval
	mov	w1, w0	// <retval>, _7
	adrp	x0, :got:__stack_chk_guard	// tmp107,
	ldr	x0, [x0, #:got_lo12:__stack_chk_guard]	// tmp106, tmp107,
	ldr	x3, [sp, 104]	// tmp109, D.6863
	ldr	x2, [x0]	// tmp110,
	subs	x3, x3, x2	// tmp109, tmp110
	mov	x2, 0	// tmp110
	beq	.L129		//,
	bl	__stack_chk_fail		//
.L129:
	mov	w0, w1	//, <retval>
	ldp	x29, x30, [sp], 304	//,,,
	.cfi_restore 30
	.cfi_restore 29
	.cfi_def_cfa_offset 0
	ret	
	.cfi_endproc
.LFE48:
	.size	test_indirect_va_list_many_strings, .-test_indirect_va_list_many_strings
	.section	.rodata
	.align	3
.LC18:
	.string	"few_composites"
	.text
	.align	2
	.global	test_va_list_few_composites
	.type	test_va_list_few_composites, %function
test_va_list_few_composites:
.LFB49:
	.cfi_startproc
	stp	x29, x30, [sp, -304]!	//,,,
	.cfi_def_cfa_offset 304
	.cfi_offset 29, -304
	.cfi_offset 30, -296
	mov	x29, sp	//,
	str	x0, [sp, 56]	// func, func
	str	x1, [sp, 248]	//,
	str	x2, [sp, 256]	//,
	str	x3, [sp, 264]	//,
	str	x4, [sp, 272]	//,
	str	x5, [sp, 280]	//,
	str	x6, [sp, 288]	//,
	str	x7, [sp, 296]	//,
	str	q0, [sp, 112]	//,
	str	q1, [sp, 128]	//,
	str	q2, [sp, 144]	//,
	str	q3, [sp, 160]	//,
	str	q4, [sp, 176]	//,
	str	q5, [sp, 192]	//,
	str	q6, [sp, 208]	//,
	str	q7, [sp, 224]	//,
// varargs-use-dll.c:112: DECLARE_TEST (few_composites);
	adrp	x0, :got:__stack_chk_guard	// tmp95,
	ldr	x0, [x0, #:got_lo12:__stack_chk_guard]	// tmp94, tmp95,
	ldr	x1, [x0]	// tmp112,
	str	x1, [sp, 104]	// tmp112, D.6868
	mov	x1, 0	// tmp112
	add	x0, sp, 304	// tmp117,,
	str	x0, [sp, 72]	// tmp117, MEM[(struct  *)&argv].__stack
	add	x0, sp, 304	// tmp118,,
	str	x0, [sp, 80]	// tmp118, MEM[(struct  *)&argv].__gr_top
	add	x0, sp, 240	// tmp97,,
	str	x0, [sp, 88]	// tmp97, MEM[(struct  *)&argv].__vr_top
	mov	w0, -56	// tmp98,
	str	w0, [sp, 96]	// tmp98, MEM[(struct  *)&argv].__gr_offs
	mov	w0, -128	// tmp99,
	str	w0, [sp, 100]	// tmp99, MEM[(struct  *)&argv].__vr_offs
	add	x0, sp, 16	// tmp100,,
	add	x1, sp, 72	// tmp101,,
	ldp	q0, q1, [x1]	// tmp102, tmp103, argv
	stp	q0, q1, [x0]	// tmp102, tmp103,
	add	x0, sp, 16	// tmp104,,
	ldr	x2, [sp, 56]	// tmp105, func
	mov	x1, x0	//, tmp104
	adrp	x0, .LC18	// tmp106,
	add	x0, x0, :lo12:.LC18	//, tmp106,
	blr	x2		// tmp105
	str	w0, [sp, 68]	//, retval
	ldr	w2, [sp, 68]	//, retval
	adrp	x0, .LC18	// tmp107,
	add	x1, x0, :lo12:.LC18	//, tmp107,
	adrp	x0, .LC1	// tmp108,
	add	x0, x0, :lo12:.LC1	//, tmp108,
	bl	printf		//
	ldr	w0, [sp, 68]	// _8, retval
	mov	w1, w0	// <retval>, _8
	adrp	x0, :got:__stack_chk_guard	// tmp111,
	ldr	x0, [x0, #:got_lo12:__stack_chk_guard]	// tmp110, tmp111,
	ldr	x3, [sp, 104]	// tmp113, D.6868
	ldr	x2, [x0]	// tmp114,
	subs	x3, x3, x2	// tmp113, tmp114
	mov	x2, 0	// tmp114
	beq	.L132		//,
	bl	__stack_chk_fail		//
.L132:
	mov	w0, w1	//, <retval>
	ldp	x29, x30, [sp], 304	//,,,
	.cfi_restore 30
	.cfi_restore 29
	.cfi_def_cfa_offset 0
	ret	
	.cfi_endproc
.LFE49:
	.size	test_va_list_few_composites, .-test_va_list_few_composites
	.align	2
	.global	use_indirect_va_list_few_composites
	.type	use_indirect_va_list_few_composites, %function
use_indirect_va_list_few_composites:
.LFB50:
	.cfi_startproc
	stp	x29, x30, [sp, -96]!	//,,,
	.cfi_def_cfa_offset 96
	.cfi_offset 29, -96
	.cfi_offset 30, -88
	mov	x29, sp	//,
	str	x19, [sp, 16]	//,
	.cfi_offset 19, -80
	str	x0, [sp, 72]	// func, func
	mov	x19, x1	// tmp94,
// varargs-use-dll.c:112: DECLARE_TEST (few_composites);
	add	x0, sp, 32	// tmp95,,
	mov	x1, x19	// tmp96, tmp94
	ldp	q0, q1, [x1]	// tmp97, tmp98, argv
	stp	q0, q1, [x0]	// tmp97, tmp98,
	add	x0, sp, 32	// tmp99,,
	ldr	x2, [sp, 72]	// tmp100, func
	mov	x1, x0	//, tmp99
	adrp	x0, .LC18	// tmp101,
	add	x0, x0, :lo12:.LC18	//, tmp101,
	blr	x2		// tmp100
	str	w0, [sp, 92]	//, retval
	ldr	w2, [sp, 92]	//, retval
	adrp	x0, .LC18	// tmp102,
	add	x1, x0, :lo12:.LC18	//, tmp102,
	adrp	x0, .LC2	// tmp103,
	add	x0, x0, :lo12:.LC2	//, tmp103,
	bl	printf		//
	ldr	w0, [sp, 92]	// _6, retval
	ldr	x19, [sp, 16]	//,
	ldp	x29, x30, [sp], 96	//,,,
	.cfi_restore 30
	.cfi_restore 29
	.cfi_restore 19
	.cfi_def_cfa_offset 0
	ret	
	.cfi_endproc
.LFE50:
	.size	use_indirect_va_list_few_composites, .-use_indirect_va_list_few_composites
	.align	2
	.global	test_indirect_va_list_few_composites
	.type	test_indirect_va_list_few_composites, %function
test_indirect_va_list_few_composites:
.LFB51:
	.cfi_startproc
	stp	x29, x30, [sp, -304]!	//,,,
	.cfi_def_cfa_offset 304
	.cfi_offset 29, -304
	.cfi_offset 30, -296
	mov	x29, sp	//,
	str	x0, [sp, 56]	// func, func
	str	x1, [sp, 248]	//,
	str	x2, [sp, 256]	//,
	str	x3, [sp, 264]	//,
	str	x4, [sp, 272]	//,
	str	x5, [sp, 280]	//,
	str	x6, [sp, 288]	//,
	str	x7, [sp, 296]	//,
	str	q0, [sp, 112]	//,
	str	q1, [sp, 128]	//,
	str	q2, [sp, 144]	//,
	str	q3, [sp, 160]	//,
	str	q4, [sp, 176]	//,
	str	q5, [sp, 192]	//,
	str	q6, [sp, 208]	//,
	str	q7, [sp, 224]	//,
// varargs-use-dll.c:112: DECLARE_TEST (few_composites);
	adrp	x0, :got:__stack_chk_guard	// tmp95,
	ldr	x0, [x0, #:got_lo12:__stack_chk_guard]	// tmp94, tmp95,
	ldr	x1, [x0]	// tmp108,
	str	x1, [sp, 104]	// tmp108, D.6875
	mov	x1, 0	// tmp108
	add	x0, sp, 304	// tmp113,,
	str	x0, [sp, 72]	// tmp113, MEM[(struct  *)&argv].__stack
	add	x0, sp, 304	// tmp114,,
	str	x0, [sp, 80]	// tmp114, MEM[(struct  *)&argv].__gr_top
	add	x0, sp, 240	// tmp97,,
	str	x0, [sp, 88]	// tmp97, MEM[(struct  *)&argv].__vr_top
	mov	w0, -56	// tmp98,
	str	w0, [sp, 96]	// tmp98, MEM[(struct  *)&argv].__gr_offs
	mov	w0, -128	// tmp99,
	str	w0, [sp, 100]	// tmp99, MEM[(struct  *)&argv].__vr_offs
	add	x0, sp, 16	// tmp100,,
	add	x1, sp, 72	// tmp101,,
	ldp	q0, q1, [x1]	// tmp102, tmp103, argv
	stp	q0, q1, [x0]	// tmp102, tmp103,
	add	x0, sp, 16	// tmp104,,
	mov	x1, x0	//, tmp104
	ldr	x0, [sp, 56]	//, func
	bl	use_indirect_va_list_few_composites		//
	str	w0, [sp, 68]	//, retval
	ldr	w0, [sp, 68]	// _7, retval
	mov	w1, w0	// <retval>, _7
	adrp	x0, :got:__stack_chk_guard	// tmp107,
	ldr	x0, [x0, #:got_lo12:__stack_chk_guard]	// tmp106, tmp107,
	ldr	x3, [sp, 104]	// tmp109, D.6875
	ldr	x2, [x0]	// tmp110,
	subs	x3, x3, x2	// tmp109, tmp110
	mov	x2, 0	// tmp110
	beq	.L137		//,
	bl	__stack_chk_fail		//
.L137:
	mov	w0, w1	//, <retval>
	ldp	x29, x30, [sp], 304	//,,,
	.cfi_restore 30
	.cfi_restore 29
	.cfi_def_cfa_offset 0
	ret	
	.cfi_endproc
.LFE51:
	.size	test_indirect_va_list_few_composites, .-test_indirect_va_list_few_composites
	.section	.rodata
	.align	3
.LC19:
	.string	"several_composites"
	.text
	.align	2
	.global	test_va_list_several_composites
	.type	test_va_list_several_composites, %function
test_va_list_several_composites:
.LFB52:
	.cfi_startproc
	stp	x29, x30, [sp, -304]!	//,,,
	.cfi_def_cfa_offset 304
	.cfi_offset 29, -304
	.cfi_offset 30, -296
	mov	x29, sp	//,
	str	x0, [sp, 56]	// func, func
	str	x1, [sp, 248]	//,
	str	x2, [sp, 256]	//,
	str	x3, [sp, 264]	//,
	str	x4, [sp, 272]	//,
	str	x5, [sp, 280]	//,
	str	x6, [sp, 288]	//,
	str	x7, [sp, 296]	//,
	str	q0, [sp, 112]	//,
	str	q1, [sp, 128]	//,
	str	q2, [sp, 144]	//,
	str	q3, [sp, 160]	//,
	str	q4, [sp, 176]	//,
	str	q5, [sp, 192]	//,
	str	q6, [sp, 208]	//,
	str	q7, [sp, 224]	//,
// varargs-use-dll.c:113: DECLARE_TEST (several_composites);
	adrp	x0, :got:__stack_chk_guard	// tmp95,
	ldr	x0, [x0, #:got_lo12:__stack_chk_guard]	// tmp94, tmp95,
	ldr	x1, [x0]	// tmp112,
	str	x1, [sp, 104]	// tmp112, D.6880
	mov	x1, 0	// tmp112
	add	x0, sp, 304	// tmp117,,
	str	x0, [sp, 72]	// tmp117, MEM[(struct  *)&argv].__stack
	add	x0, sp, 304	// tmp118,,
	str	x0, [sp, 80]	// tmp118, MEM[(struct  *)&argv].__gr_top
	add	x0, sp, 240	// tmp97,,
	str	x0, [sp, 88]	// tmp97, MEM[(struct  *)&argv].__vr_top
	mov	w0, -56	// tmp98,
	str	w0, [sp, 96]	// tmp98, MEM[(struct  *)&argv].__gr_offs
	mov	w0, -128	// tmp99,
	str	w0, [sp, 100]	// tmp99, MEM[(struct  *)&argv].__vr_offs
	add	x0, sp, 16	// tmp100,,
	add	x1, sp, 72	// tmp101,,
	ldp	q0, q1, [x1]	// tmp102, tmp103, argv
	stp	q0, q1, [x0]	// tmp102, tmp103,
	add	x0, sp, 16	// tmp104,,
	ldr	x2, [sp, 56]	// tmp105, func
	mov	x1, x0	//, tmp104
	adrp	x0, .LC19	// tmp106,
	add	x0, x0, :lo12:.LC19	//, tmp106,
	blr	x2		// tmp105
	str	w0, [sp, 68]	//, retval
	ldr	w2, [sp, 68]	//, retval
	adrp	x0, .LC19	// tmp107,
	add	x1, x0, :lo12:.LC19	//, tmp107,
	adrp	x0, .LC1	// tmp108,
	add	x0, x0, :lo12:.LC1	//, tmp108,
	bl	printf		//
	ldr	w0, [sp, 68]	// _8, retval
	mov	w1, w0	// <retval>, _8
	adrp	x0, :got:__stack_chk_guard	// tmp111,
	ldr	x0, [x0, #:got_lo12:__stack_chk_guard]	// tmp110, tmp111,
	ldr	x3, [sp, 104]	// tmp113, D.6880
	ldr	x2, [x0]	// tmp114,
	subs	x3, x3, x2	// tmp113, tmp114
	mov	x2, 0	// tmp114
	beq	.L140		//,
	bl	__stack_chk_fail		//
.L140:
	mov	w0, w1	//, <retval>
	ldp	x29, x30, [sp], 304	//,,,
	.cfi_restore 30
	.cfi_restore 29
	.cfi_def_cfa_offset 0
	ret	
	.cfi_endproc
.LFE52:
	.size	test_va_list_several_composites, .-test_va_list_several_composites
	.align	2
	.global	use_indirect_va_list_several_composites
	.type	use_indirect_va_list_several_composites, %function
use_indirect_va_list_several_composites:
.LFB53:
	.cfi_startproc
	stp	x29, x30, [sp, -96]!	//,,,
	.cfi_def_cfa_offset 96
	.cfi_offset 29, -96
	.cfi_offset 30, -88
	mov	x29, sp	//,
	str	x19, [sp, 16]	//,
	.cfi_offset 19, -80
	str	x0, [sp, 72]	// func, func
	mov	x19, x1	// tmp94,
// varargs-use-dll.c:113: DECLARE_TEST (several_composites);
	add	x0, sp, 32	// tmp95,,
	mov	x1, x19	// tmp96, tmp94
	ldp	q0, q1, [x1]	// tmp97, tmp98, argv
	stp	q0, q1, [x0]	// tmp97, tmp98,
	add	x0, sp, 32	// tmp99,,
	ldr	x2, [sp, 72]	// tmp100, func
	mov	x1, x0	//, tmp99
	adrp	x0, .LC19	// tmp101,
	add	x0, x0, :lo12:.LC19	//, tmp101,
	blr	x2		// tmp100
	str	w0, [sp, 92]	//, retval
	ldr	w2, [sp, 92]	//, retval
	adrp	x0, .LC19	// tmp102,
	add	x1, x0, :lo12:.LC19	//, tmp102,
	adrp	x0, .LC2	// tmp103,
	add	x0, x0, :lo12:.LC2	//, tmp103,
	bl	printf		//
	ldr	w0, [sp, 92]	// _6, retval
	ldr	x19, [sp, 16]	//,
	ldp	x29, x30, [sp], 96	//,,,
	.cfi_restore 30
	.cfi_restore 29
	.cfi_restore 19
	.cfi_def_cfa_offset 0
	ret	
	.cfi_endproc
.LFE53:
	.size	use_indirect_va_list_several_composites, .-use_indirect_va_list_several_composites
	.align	2
	.global	test_indirect_va_list_several_composites
	.type	test_indirect_va_list_several_composites, %function
test_indirect_va_list_several_composites:
.LFB54:
	.cfi_startproc
	stp	x29, x30, [sp, -304]!	//,,,
	.cfi_def_cfa_offset 304
	.cfi_offset 29, -304
	.cfi_offset 30, -296
	mov	x29, sp	//,
	str	x0, [sp, 56]	// func, func
	str	x1, [sp, 248]	//,
	str	x2, [sp, 256]	//,
	str	x3, [sp, 264]	//,
	str	x4, [sp, 272]	//,
	str	x5, [sp, 280]	//,
	str	x6, [sp, 288]	//,
	str	x7, [sp, 296]	//,
	str	q0, [sp, 112]	//,
	str	q1, [sp, 128]	//,
	str	q2, [sp, 144]	//,
	str	q3, [sp, 160]	//,
	str	q4, [sp, 176]	//,
	str	q5, [sp, 192]	//,
	str	q6, [sp, 208]	//,
	str	q7, [sp, 224]	//,
// varargs-use-dll.c:113: DECLARE_TEST (several_composites);
	adrp	x0, :got:__stack_chk_guard	// tmp95,
	ldr	x0, [x0, #:got_lo12:__stack_chk_guard]	// tmp94, tmp95,
	ldr	x1, [x0]	// tmp108,
	str	x1, [sp, 104]	// tmp108, D.6887
	mov	x1, 0	// tmp108
	add	x0, sp, 304	// tmp113,,
	str	x0, [sp, 72]	// tmp113, MEM[(struct  *)&argv].__stack
	add	x0, sp, 304	// tmp114,,
	str	x0, [sp, 80]	// tmp114, MEM[(struct  *)&argv].__gr_top
	add	x0, sp, 240	// tmp97,,
	str	x0, [sp, 88]	// tmp97, MEM[(struct  *)&argv].__vr_top
	mov	w0, -56	// tmp98,
	str	w0, [sp, 96]	// tmp98, MEM[(struct  *)&argv].__gr_offs
	mov	w0, -128	// tmp99,
	str	w0, [sp, 100]	// tmp99, MEM[(struct  *)&argv].__vr_offs
	add	x0, sp, 16	// tmp100,,
	add	x1, sp, 72	// tmp101,,
	ldp	q0, q1, [x1]	// tmp102, tmp103, argv
	stp	q0, q1, [x0]	// tmp102, tmp103,
	add	x0, sp, 16	// tmp104,,
	mov	x1, x0	//, tmp104
	ldr	x0, [sp, 56]	//, func
	bl	use_indirect_va_list_several_composites		//
	str	w0, [sp, 68]	//, retval
	ldr	w0, [sp, 68]	// _7, retval
	mov	w1, w0	// <retval>, _7
	adrp	x0, :got:__stack_chk_guard	// tmp107,
	ldr	x0, [x0, #:got_lo12:__stack_chk_guard]	// tmp106, tmp107,
	ldr	x3, [sp, 104]	// tmp109, D.6887
	ldr	x2, [x0]	// tmp110,
	subs	x3, x3, x2	// tmp109, tmp110
	mov	x2, 0	// tmp110
	beq	.L145		//,
	bl	__stack_chk_fail		//
.L145:
	mov	w0, w1	//, <retval>
	ldp	x29, x30, [sp], 304	//,,,
	.cfi_restore 30
	.cfi_restore 29
	.cfi_def_cfa_offset 0
	ret	
	.cfi_endproc
.LFE54:
	.size	test_indirect_va_list_several_composites, .-test_indirect_va_list_several_composites
	.section	.rodata
	.align	3
.LC20:
	.string	"many_composites"
	.text
	.align	2
	.global	test_va_list_many_composites
	.type	test_va_list_many_composites, %function
test_va_list_many_composites:
.LFB55:
	.cfi_startproc
	stp	x29, x30, [sp, -304]!	//,,,
	.cfi_def_cfa_offset 304
	.cfi_offset 29, -304
	.cfi_offset 30, -296
	mov	x29, sp	//,
	str	x0, [sp, 56]	// func, func
	str	x1, [sp, 248]	//,
	str	x2, [sp, 256]	//,
	str	x3, [sp, 264]	//,
	str	x4, [sp, 272]	//,
	str	x5, [sp, 280]	//,
	str	x6, [sp, 288]	//,
	str	x7, [sp, 296]	//,
	str	q0, [sp, 112]	//,
	str	q1, [sp, 128]	//,
	str	q2, [sp, 144]	//,
	str	q3, [sp, 160]	//,
	str	q4, [sp, 176]	//,
	str	q5, [sp, 192]	//,
	str	q6, [sp, 208]	//,
	str	q7, [sp, 224]	//,
// varargs-use-dll.c:114: DECLARE_TEST (many_composites);
	adrp	x0, :got:__stack_chk_guard	// tmp95,
	ldr	x0, [x0, #:got_lo12:__stack_chk_guard]	// tmp94, tmp95,
	ldr	x1, [x0]	// tmp112,
	str	x1, [sp, 104]	// tmp112, D.6892
	mov	x1, 0	// tmp112
	add	x0, sp, 304	// tmp117,,
	str	x0, [sp, 72]	// tmp117, MEM[(struct  *)&argv].__stack
	add	x0, sp, 304	// tmp118,,
	str	x0, [sp, 80]	// tmp118, MEM[(struct  *)&argv].__gr_top
	add	x0, sp, 240	// tmp97,,
	str	x0, [sp, 88]	// tmp97, MEM[(struct  *)&argv].__vr_top
	mov	w0, -56	// tmp98,
	str	w0, [sp, 96]	// tmp98, MEM[(struct  *)&argv].__gr_offs
	mov	w0, -128	// tmp99,
	str	w0, [sp, 100]	// tmp99, MEM[(struct  *)&argv].__vr_offs
	add	x0, sp, 16	// tmp100,,
	add	x1, sp, 72	// tmp101,,
	ldp	q0, q1, [x1]	// tmp102, tmp103, argv
	stp	q0, q1, [x0]	// tmp102, tmp103,
	add	x0, sp, 16	// tmp104,,
	ldr	x2, [sp, 56]	// tmp105, func
	mov	x1, x0	//, tmp104
	adrp	x0, .LC20	// tmp106,
	add	x0, x0, :lo12:.LC20	//, tmp106,
	blr	x2		// tmp105
	str	w0, [sp, 68]	//, retval
	ldr	w2, [sp, 68]	//, retval
	adrp	x0, .LC20	// tmp107,
	add	x1, x0, :lo12:.LC20	//, tmp107,
	adrp	x0, .LC1	// tmp108,
	add	x0, x0, :lo12:.LC1	//, tmp108,
	bl	printf		//
	ldr	w0, [sp, 68]	// _8, retval
	mov	w1, w0	// <retval>, _8
	adrp	x0, :got:__stack_chk_guard	// tmp111,
	ldr	x0, [x0, #:got_lo12:__stack_chk_guard]	// tmp110, tmp111,
	ldr	x3, [sp, 104]	// tmp113, D.6892
	ldr	x2, [x0]	// tmp114,
	subs	x3, x3, x2	// tmp113, tmp114
	mov	x2, 0	// tmp114
	beq	.L148		//,
	bl	__stack_chk_fail		//
.L148:
	mov	w0, w1	//, <retval>
	ldp	x29, x30, [sp], 304	//,,,
	.cfi_restore 30
	.cfi_restore 29
	.cfi_def_cfa_offset 0
	ret	
	.cfi_endproc
.LFE55:
	.size	test_va_list_many_composites, .-test_va_list_many_composites
	.align	2
	.global	use_indirect_va_list_many_composites
	.type	use_indirect_va_list_many_composites, %function
use_indirect_va_list_many_composites:
.LFB56:
	.cfi_startproc
	stp	x29, x30, [sp, -96]!	//,,,
	.cfi_def_cfa_offset 96
	.cfi_offset 29, -96
	.cfi_offset 30, -88
	mov	x29, sp	//,
	str	x19, [sp, 16]	//,
	.cfi_offset 19, -80
	str	x0, [sp, 72]	// func, func
	mov	x19, x1	// tmp94,
// varargs-use-dll.c:114: DECLARE_TEST (many_composites);
	add	x0, sp, 32	// tmp95,,
	mov	x1, x19	// tmp96, tmp94
	ldp	q0, q1, [x1]	// tmp97, tmp98, argv
	stp	q0, q1, [x0]	// tmp97, tmp98,
	add	x0, sp, 32	// tmp99,,
	ldr	x2, [sp, 72]	// tmp100, func
	mov	x1, x0	//, tmp99
	adrp	x0, .LC20	// tmp101,
	add	x0, x0, :lo12:.LC20	//, tmp101,
	blr	x2		// tmp100
	str	w0, [sp, 92]	//, retval
	ldr	w2, [sp, 92]	//, retval
	adrp	x0, .LC20	// tmp102,
	add	x1, x0, :lo12:.LC20	//, tmp102,
	adrp	x0, .LC2	// tmp103,
	add	x0, x0, :lo12:.LC2	//, tmp103,
	bl	printf		//
	ldr	w0, [sp, 92]	// _6, retval
	ldr	x19, [sp, 16]	//,
	ldp	x29, x30, [sp], 96	//,,,
	.cfi_restore 30
	.cfi_restore 29
	.cfi_restore 19
	.cfi_def_cfa_offset 0
	ret	
	.cfi_endproc
.LFE56:
	.size	use_indirect_va_list_many_composites, .-use_indirect_va_list_many_composites
	.align	2
	.global	test_indirect_va_list_many_composites
	.type	test_indirect_va_list_many_composites, %function
test_indirect_va_list_many_composites:
.LFB57:
	.cfi_startproc
	stp	x29, x30, [sp, -304]!	//,,,
	.cfi_def_cfa_offset 304
	.cfi_offset 29, -304
	.cfi_offset 30, -296
	mov	x29, sp	//,
	str	x0, [sp, 56]	// func, func
	str	x1, [sp, 248]	//,
	str	x2, [sp, 256]	//,
	str	x3, [sp, 264]	//,
	str	x4, [sp, 272]	//,
	str	x5, [sp, 280]	//,
	str	x6, [sp, 288]	//,
	str	x7, [sp, 296]	//,
	str	q0, [sp, 112]	//,
	str	q1, [sp, 128]	//,
	str	q2, [sp, 144]	//,
	str	q3, [sp, 160]	//,
	str	q4, [sp, 176]	//,
	str	q5, [sp, 192]	//,
	str	q6, [sp, 208]	//,
	str	q7, [sp, 224]	//,
// varargs-use-dll.c:114: DECLARE_TEST (many_composites);
	adrp	x0, :got:__stack_chk_guard	// tmp95,
	ldr	x0, [x0, #:got_lo12:__stack_chk_guard]	// tmp94, tmp95,
	ldr	x1, [x0]	// tmp108,
	str	x1, [sp, 104]	// tmp108, D.6899
	mov	x1, 0	// tmp108
	add	x0, sp, 304	// tmp113,,
	str	x0, [sp, 72]	// tmp113, MEM[(struct  *)&argv].__stack
	add	x0, sp, 304	// tmp114,,
	str	x0, [sp, 80]	// tmp114, MEM[(struct  *)&argv].__gr_top
	add	x0, sp, 240	// tmp97,,
	str	x0, [sp, 88]	// tmp97, MEM[(struct  *)&argv].__vr_top
	mov	w0, -56	// tmp98,
	str	w0, [sp, 96]	// tmp98, MEM[(struct  *)&argv].__gr_offs
	mov	w0, -128	// tmp99,
	str	w0, [sp, 100]	// tmp99, MEM[(struct  *)&argv].__vr_offs
	add	x0, sp, 16	// tmp100,,
	add	x1, sp, 72	// tmp101,,
	ldp	q0, q1, [x1]	// tmp102, tmp103, argv
	stp	q0, q1, [x0]	// tmp102, tmp103,
	add	x0, sp, 16	// tmp104,,
	mov	x1, x0	//, tmp104
	ldr	x0, [sp, 56]	//, func
	bl	use_indirect_va_list_many_composites		//
	str	w0, [sp, 68]	//, retval
	ldr	w0, [sp, 68]	// _7, retval
	mov	w1, w0	// <retval>, _7
	adrp	x0, :got:__stack_chk_guard	// tmp107,
	ldr	x0, [x0, #:got_lo12:__stack_chk_guard]	// tmp106, tmp107,
	ldr	x3, [sp, 104]	// tmp109, D.6899
	ldr	x2, [x0]	// tmp110,
	subs	x3, x3, x2	// tmp109, tmp110
	mov	x2, 0	// tmp110
	beq	.L153		//,
	bl	__stack_chk_fail		//
.L153:
	mov	w0, w1	//, <retval>
	ldp	x29, x30, [sp], 304	//,,,
	.cfi_restore 30
	.cfi_restore 29
	.cfi_def_cfa_offset 0
	ret	
	.cfi_endproc
.LFE57:
	.size	test_indirect_va_list_many_composites, .-test_indirect_va_list_many_composites
	.section	.rodata
	.align	3
.LC21:
	.string	"few_short_vector_8_bytes"
	.text
	.align	2
	.global	test_va_list_few_short_vector_8_bytes
	.type	test_va_list_few_short_vector_8_bytes, %function
test_va_list_few_short_vector_8_bytes:
.LFB58:
	.cfi_startproc
	stp	x29, x30, [sp, -304]!	//,,,
	.cfi_def_cfa_offset 304
	.cfi_offset 29, -304
	.cfi_offset 30, -296
	mov	x29, sp	//,
	str	x0, [sp, 56]	// func, func
	str	x1, [sp, 248]	//,
	str	x2, [sp, 256]	//,
	str	x3, [sp, 264]	//,
	str	x4, [sp, 272]	//,
	str	x5, [sp, 280]	//,
	str	x6, [sp, 288]	//,
	str	x7, [sp, 296]	//,
	str	q0, [sp, 112]	//,
	str	q1, [sp, 128]	//,
	str	q2, [sp, 144]	//,
	str	q3, [sp, 160]	//,
	str	q4, [sp, 176]	//,
	str	q5, [sp, 192]	//,
	str	q6, [sp, 208]	//,
	str	q7, [sp, 224]	//,
// varargs-use-dll.c:116: DECLARE_TEST (few_short_vector_8_bytes);
	adrp	x0, :got:__stack_chk_guard	// tmp95,
	ldr	x0, [x0, #:got_lo12:__stack_chk_guard]	// tmp94, tmp95,
	ldr	x1, [x0]	// tmp112,
	str	x1, [sp, 104]	// tmp112, D.6904
	mov	x1, 0	// tmp112
	add	x0, sp, 304	// tmp117,,
	str	x0, [sp, 72]	// tmp117, MEM[(struct  *)&argv].__stack
	add	x0, sp, 304	// tmp118,,
	str	x0, [sp, 80]	// tmp118, MEM[(struct  *)&argv].__gr_top
	add	x0, sp, 240	// tmp97,,
	str	x0, [sp, 88]	// tmp97, MEM[(struct  *)&argv].__vr_top
	mov	w0, -56	// tmp98,
	str	w0, [sp, 96]	// tmp98, MEM[(struct  *)&argv].__gr_offs
	mov	w0, -128	// tmp99,
	str	w0, [sp, 100]	// tmp99, MEM[(struct  *)&argv].__vr_offs
	add	x0, sp, 16	// tmp100,,
	add	x1, sp, 72	// tmp101,,
	ldp	q0, q1, [x1]	// tmp102, tmp103, argv
	stp	q0, q1, [x0]	// tmp102, tmp103,
	add	x0, sp, 16	// tmp104,,
	ldr	x2, [sp, 56]	// tmp105, func
	mov	x1, x0	//, tmp104
	adrp	x0, .LC21	// tmp106,
	add	x0, x0, :lo12:.LC21	//, tmp106,
	blr	x2		// tmp105
	str	w0, [sp, 68]	//, retval
	ldr	w2, [sp, 68]	//, retval
	adrp	x0, .LC21	// tmp107,
	add	x1, x0, :lo12:.LC21	//, tmp107,
	adrp	x0, .LC1	// tmp108,
	add	x0, x0, :lo12:.LC1	//, tmp108,
	bl	printf		//
	ldr	w0, [sp, 68]	// _8, retval
	mov	w1, w0	// <retval>, _8
	adrp	x0, :got:__stack_chk_guard	// tmp111,
	ldr	x0, [x0, #:got_lo12:__stack_chk_guard]	// tmp110, tmp111,
	ldr	x3, [sp, 104]	// tmp113, D.6904
	ldr	x2, [x0]	// tmp114,
	subs	x3, x3, x2	// tmp113, tmp114
	mov	x2, 0	// tmp114
	beq	.L156		//,
	bl	__stack_chk_fail		//
.L156:
	mov	w0, w1	//, <retval>
	ldp	x29, x30, [sp], 304	//,,,
	.cfi_restore 30
	.cfi_restore 29
	.cfi_def_cfa_offset 0
	ret	
	.cfi_endproc
.LFE58:
	.size	test_va_list_few_short_vector_8_bytes, .-test_va_list_few_short_vector_8_bytes
	.align	2
	.global	use_indirect_va_list_few_short_vector_8_bytes
	.type	use_indirect_va_list_few_short_vector_8_bytes, %function
use_indirect_va_list_few_short_vector_8_bytes:
.LFB59:
	.cfi_startproc
	stp	x29, x30, [sp, -96]!	//,,,
	.cfi_def_cfa_offset 96
	.cfi_offset 29, -96
	.cfi_offset 30, -88
	mov	x29, sp	//,
	str	x19, [sp, 16]	//,
	.cfi_offset 19, -80
	str	x0, [sp, 72]	// func, func
	mov	x19, x1	// tmp94,
// varargs-use-dll.c:116: DECLARE_TEST (few_short_vector_8_bytes);
	add	x0, sp, 32	// tmp95,,
	mov	x1, x19	// tmp96, tmp94
	ldp	q0, q1, [x1]	// tmp97, tmp98, argv
	stp	q0, q1, [x0]	// tmp97, tmp98,
	add	x0, sp, 32	// tmp99,,
	ldr	x2, [sp, 72]	// tmp100, func
	mov	x1, x0	//, tmp99
	adrp	x0, .LC21	// tmp101,
	add	x0, x0, :lo12:.LC21	//, tmp101,
	blr	x2		// tmp100
	str	w0, [sp, 92]	//, retval
	ldr	w2, [sp, 92]	//, retval
	adrp	x0, .LC21	// tmp102,
	add	x1, x0, :lo12:.LC21	//, tmp102,
	adrp	x0, .LC2	// tmp103,
	add	x0, x0, :lo12:.LC2	//, tmp103,
	bl	printf		//
	ldr	w0, [sp, 92]	// _6, retval
	ldr	x19, [sp, 16]	//,
	ldp	x29, x30, [sp], 96	//,,,
	.cfi_restore 30
	.cfi_restore 29
	.cfi_restore 19
	.cfi_def_cfa_offset 0
	ret	
	.cfi_endproc
.LFE59:
	.size	use_indirect_va_list_few_short_vector_8_bytes, .-use_indirect_va_list_few_short_vector_8_bytes
	.align	2
	.global	test_indirect_va_list_few_short_vector_8_bytes
	.type	test_indirect_va_list_few_short_vector_8_bytes, %function
test_indirect_va_list_few_short_vector_8_bytes:
.LFB60:
	.cfi_startproc
	stp	x29, x30, [sp, -304]!	//,,,
	.cfi_def_cfa_offset 304
	.cfi_offset 29, -304
	.cfi_offset 30, -296
	mov	x29, sp	//,
	str	x0, [sp, 56]	// func, func
	str	x1, [sp, 248]	//,
	str	x2, [sp, 256]	//,
	str	x3, [sp, 264]	//,
	str	x4, [sp, 272]	//,
	str	x5, [sp, 280]	//,
	str	x6, [sp, 288]	//,
	str	x7, [sp, 296]	//,
	str	q0, [sp, 112]	//,
	str	q1, [sp, 128]	//,
	str	q2, [sp, 144]	//,
	str	q3, [sp, 160]	//,
	str	q4, [sp, 176]	//,
	str	q5, [sp, 192]	//,
	str	q6, [sp, 208]	//,
	str	q7, [sp, 224]	//,
// varargs-use-dll.c:116: DECLARE_TEST (few_short_vector_8_bytes);
	adrp	x0, :got:__stack_chk_guard	// tmp95,
	ldr	x0, [x0, #:got_lo12:__stack_chk_guard]	// tmp94, tmp95,
	ldr	x1, [x0]	// tmp108,
	str	x1, [sp, 104]	// tmp108, D.6911
	mov	x1, 0	// tmp108
	add	x0, sp, 304	// tmp113,,
	str	x0, [sp, 72]	// tmp113, MEM[(struct  *)&argv].__stack
	add	x0, sp, 304	// tmp114,,
	str	x0, [sp, 80]	// tmp114, MEM[(struct  *)&argv].__gr_top
	add	x0, sp, 240	// tmp97,,
	str	x0, [sp, 88]	// tmp97, MEM[(struct  *)&argv].__vr_top
	mov	w0, -56	// tmp98,
	str	w0, [sp, 96]	// tmp98, MEM[(struct  *)&argv].__gr_offs
	mov	w0, -128	// tmp99,
	str	w0, [sp, 100]	// tmp99, MEM[(struct  *)&argv].__vr_offs
	add	x0, sp, 16	// tmp100,,
	add	x1, sp, 72	// tmp101,,
	ldp	q0, q1, [x1]	// tmp102, tmp103, argv
	stp	q0, q1, [x0]	// tmp102, tmp103,
	add	x0, sp, 16	// tmp104,,
	mov	x1, x0	//, tmp104
	ldr	x0, [sp, 56]	//, func
	bl	use_indirect_va_list_few_short_vector_8_bytes		//
	str	w0, [sp, 68]	//, retval
	ldr	w0, [sp, 68]	// _7, retval
	mov	w1, w0	// <retval>, _7
	adrp	x0, :got:__stack_chk_guard	// tmp107,
	ldr	x0, [x0, #:got_lo12:__stack_chk_guard]	// tmp106, tmp107,
	ldr	x3, [sp, 104]	// tmp109, D.6911
	ldr	x2, [x0]	// tmp110,
	subs	x3, x3, x2	// tmp109, tmp110
	mov	x2, 0	// tmp110
	beq	.L161		//,
	bl	__stack_chk_fail		//
.L161:
	mov	w0, w1	//, <retval>
	ldp	x29, x30, [sp], 304	//,,,
	.cfi_restore 30
	.cfi_restore 29
	.cfi_def_cfa_offset 0
	ret	
	.cfi_endproc
.LFE60:
	.size	test_indirect_va_list_few_short_vector_8_bytes, .-test_indirect_va_list_few_short_vector_8_bytes
	.section	.rodata
	.align	3
.LC22:
	.string	"several_short_vector_8_bytes"
	.text
	.align	2
	.global	test_va_list_several_short_vector_8_bytes
	.type	test_va_list_several_short_vector_8_bytes, %function
test_va_list_several_short_vector_8_bytes:
.LFB61:
	.cfi_startproc
	stp	x29, x30, [sp, -304]!	//,,,
	.cfi_def_cfa_offset 304
	.cfi_offset 29, -304
	.cfi_offset 30, -296
	mov	x29, sp	//,
	str	x0, [sp, 56]	// func, func
	str	x1, [sp, 248]	//,
	str	x2, [sp, 256]	//,
	str	x3, [sp, 264]	//,
	str	x4, [sp, 272]	//,
	str	x5, [sp, 280]	//,
	str	x6, [sp, 288]	//,
	str	x7, [sp, 296]	//,
	str	q0, [sp, 112]	//,
	str	q1, [sp, 128]	//,
	str	q2, [sp, 144]	//,
	str	q3, [sp, 160]	//,
	str	q4, [sp, 176]	//,
	str	q5, [sp, 192]	//,
	str	q6, [sp, 208]	//,
	str	q7, [sp, 224]	//,
// varargs-use-dll.c:117: DECLARE_TEST (several_short_vector_8_bytes);
	adrp	x0, :got:__stack_chk_guard	// tmp95,
	ldr	x0, [x0, #:got_lo12:__stack_chk_guard]	// tmp94, tmp95,
	ldr	x1, [x0]	// tmp112,
	str	x1, [sp, 104]	// tmp112, D.6916
	mov	x1, 0	// tmp112
	add	x0, sp, 304	// tmp117,,
	str	x0, [sp, 72]	// tmp117, MEM[(struct  *)&argv].__stack
	add	x0, sp, 304	// tmp118,,
	str	x0, [sp, 80]	// tmp118, MEM[(struct  *)&argv].__gr_top
	add	x0, sp, 240	// tmp97,,
	str	x0, [sp, 88]	// tmp97, MEM[(struct  *)&argv].__vr_top
	mov	w0, -56	// tmp98,
	str	w0, [sp, 96]	// tmp98, MEM[(struct  *)&argv].__gr_offs
	mov	w0, -128	// tmp99,
	str	w0, [sp, 100]	// tmp99, MEM[(struct  *)&argv].__vr_offs
	add	x0, sp, 16	// tmp100,,
	add	x1, sp, 72	// tmp101,,
	ldp	q0, q1, [x1]	// tmp102, tmp103, argv
	stp	q0, q1, [x0]	// tmp102, tmp103,
	add	x0, sp, 16	// tmp104,,
	ldr	x2, [sp, 56]	// tmp105, func
	mov	x1, x0	//, tmp104
	adrp	x0, .LC22	// tmp106,
	add	x0, x0, :lo12:.LC22	//, tmp106,
	blr	x2		// tmp105
	str	w0, [sp, 68]	//, retval
	ldr	w2, [sp, 68]	//, retval
	adrp	x0, .LC22	// tmp107,
	add	x1, x0, :lo12:.LC22	//, tmp107,
	adrp	x0, .LC1	// tmp108,
	add	x0, x0, :lo12:.LC1	//, tmp108,
	bl	printf		//
	ldr	w0, [sp, 68]	// _8, retval
	mov	w1, w0	// <retval>, _8
	adrp	x0, :got:__stack_chk_guard	// tmp111,
	ldr	x0, [x0, #:got_lo12:__stack_chk_guard]	// tmp110, tmp111,
	ldr	x3, [sp, 104]	// tmp113, D.6916
	ldr	x2, [x0]	// tmp114,
	subs	x3, x3, x2	// tmp113, tmp114
	mov	x2, 0	// tmp114
	beq	.L164		//,
	bl	__stack_chk_fail		//
.L164:
	mov	w0, w1	//, <retval>
	ldp	x29, x30, [sp], 304	//,,,
	.cfi_restore 30
	.cfi_restore 29
	.cfi_def_cfa_offset 0
	ret	
	.cfi_endproc
.LFE61:
	.size	test_va_list_several_short_vector_8_bytes, .-test_va_list_several_short_vector_8_bytes
	.align	2
	.global	use_indirect_va_list_several_short_vector_8_bytes
	.type	use_indirect_va_list_several_short_vector_8_bytes, %function
use_indirect_va_list_several_short_vector_8_bytes:
.LFB62:
	.cfi_startproc
	stp	x29, x30, [sp, -96]!	//,,,
	.cfi_def_cfa_offset 96
	.cfi_offset 29, -96
	.cfi_offset 30, -88
	mov	x29, sp	//,
	str	x19, [sp, 16]	//,
	.cfi_offset 19, -80
	str	x0, [sp, 72]	// func, func
	mov	x19, x1	// tmp94,
// varargs-use-dll.c:117: DECLARE_TEST (several_short_vector_8_bytes);
	add	x0, sp, 32	// tmp95,,
	mov	x1, x19	// tmp96, tmp94
	ldp	q0, q1, [x1]	// tmp97, tmp98, argv
	stp	q0, q1, [x0]	// tmp97, tmp98,
	add	x0, sp, 32	// tmp99,,
	ldr	x2, [sp, 72]	// tmp100, func
	mov	x1, x0	//, tmp99
	adrp	x0, .LC22	// tmp101,
	add	x0, x0, :lo12:.LC22	//, tmp101,
	blr	x2		// tmp100
	str	w0, [sp, 92]	//, retval
	ldr	w2, [sp, 92]	//, retval
	adrp	x0, .LC22	// tmp102,
	add	x1, x0, :lo12:.LC22	//, tmp102,
	adrp	x0, .LC2	// tmp103,
	add	x0, x0, :lo12:.LC2	//, tmp103,
	bl	printf		//
	ldr	w0, [sp, 92]	// _6, retval
	ldr	x19, [sp, 16]	//,
	ldp	x29, x30, [sp], 96	//,,,
	.cfi_restore 30
	.cfi_restore 29
	.cfi_restore 19
	.cfi_def_cfa_offset 0
	ret	
	.cfi_endproc
.LFE62:
	.size	use_indirect_va_list_several_short_vector_8_bytes, .-use_indirect_va_list_several_short_vector_8_bytes
	.align	2
	.global	test_indirect_va_list_several_short_vector_8_bytes
	.type	test_indirect_va_list_several_short_vector_8_bytes, %function
test_indirect_va_list_several_short_vector_8_bytes:
.LFB63:
	.cfi_startproc
	stp	x29, x30, [sp, -304]!	//,,,
	.cfi_def_cfa_offset 304
	.cfi_offset 29, -304
	.cfi_offset 30, -296
	mov	x29, sp	//,
	str	x0, [sp, 56]	// func, func
	str	x1, [sp, 248]	//,
	str	x2, [sp, 256]	//,
	str	x3, [sp, 264]	//,
	str	x4, [sp, 272]	//,
	str	x5, [sp, 280]	//,
	str	x6, [sp, 288]	//,
	str	x7, [sp, 296]	//,
	str	q0, [sp, 112]	//,
	str	q1, [sp, 128]	//,
	str	q2, [sp, 144]	//,
	str	q3, [sp, 160]	//,
	str	q4, [sp, 176]	//,
	str	q5, [sp, 192]	//,
	str	q6, [sp, 208]	//,
	str	q7, [sp, 224]	//,
// varargs-use-dll.c:117: DECLARE_TEST (several_short_vector_8_bytes);
	adrp	x0, :got:__stack_chk_guard	// tmp95,
	ldr	x0, [x0, #:got_lo12:__stack_chk_guard]	// tmp94, tmp95,
	ldr	x1, [x0]	// tmp108,
	str	x1, [sp, 104]	// tmp108, D.6923
	mov	x1, 0	// tmp108
	add	x0, sp, 304	// tmp113,,
	str	x0, [sp, 72]	// tmp113, MEM[(struct  *)&argv].__stack
	add	x0, sp, 304	// tmp114,,
	str	x0, [sp, 80]	// tmp114, MEM[(struct  *)&argv].__gr_top
	add	x0, sp, 240	// tmp97,,
	str	x0, [sp, 88]	// tmp97, MEM[(struct  *)&argv].__vr_top
	mov	w0, -56	// tmp98,
	str	w0, [sp, 96]	// tmp98, MEM[(struct  *)&argv].__gr_offs
	mov	w0, -128	// tmp99,
	str	w0, [sp, 100]	// tmp99, MEM[(struct  *)&argv].__vr_offs
	add	x0, sp, 16	// tmp100,,
	add	x1, sp, 72	// tmp101,,
	ldp	q0, q1, [x1]	// tmp102, tmp103, argv
	stp	q0, q1, [x0]	// tmp102, tmp103,
	add	x0, sp, 16	// tmp104,,
	mov	x1, x0	//, tmp104
	ldr	x0, [sp, 56]	//, func
	bl	use_indirect_va_list_several_short_vector_8_bytes		//
	str	w0, [sp, 68]	//, retval
	ldr	w0, [sp, 68]	// _7, retval
	mov	w1, w0	// <retval>, _7
	adrp	x0, :got:__stack_chk_guard	// tmp107,
	ldr	x0, [x0, #:got_lo12:__stack_chk_guard]	// tmp106, tmp107,
	ldr	x3, [sp, 104]	// tmp109, D.6923
	ldr	x2, [x0]	// tmp110,
	subs	x3, x3, x2	// tmp109, tmp110
	mov	x2, 0	// tmp110
	beq	.L169		//,
	bl	__stack_chk_fail		//
.L169:
	mov	w0, w1	//, <retval>
	ldp	x29, x30, [sp], 304	//,,,
	.cfi_restore 30
	.cfi_restore 29
	.cfi_def_cfa_offset 0
	ret	
	.cfi_endproc
.LFE63:
	.size	test_indirect_va_list_several_short_vector_8_bytes, .-test_indirect_va_list_several_short_vector_8_bytes
	.section	.rodata
	.align	3
.LC23:
	.string	"many_short_vector_8_bytes"
	.text
	.align	2
	.global	test_va_list_many_short_vector_8_bytes
	.type	test_va_list_many_short_vector_8_bytes, %function
test_va_list_many_short_vector_8_bytes:
.LFB64:
	.cfi_startproc
	stp	x29, x30, [sp, -304]!	//,,,
	.cfi_def_cfa_offset 304
	.cfi_offset 29, -304
	.cfi_offset 30, -296
	mov	x29, sp	//,
	str	x0, [sp, 56]	// func, func
	str	x1, [sp, 248]	//,
	str	x2, [sp, 256]	//,
	str	x3, [sp, 264]	//,
	str	x4, [sp, 272]	//,
	str	x5, [sp, 280]	//,
	str	x6, [sp, 288]	//,
	str	x7, [sp, 296]	//,
	str	q0, [sp, 112]	//,
	str	q1, [sp, 128]	//,
	str	q2, [sp, 144]	//,
	str	q3, [sp, 160]	//,
	str	q4, [sp, 176]	//,
	str	q5, [sp, 192]	//,
	str	q6, [sp, 208]	//,
	str	q7, [sp, 224]	//,
// varargs-use-dll.c:118: DECLARE_TEST (many_short_vector_8_bytes);
	adrp	x0, :got:__stack_chk_guard	// tmp95,
	ldr	x0, [x0, #:got_lo12:__stack_chk_guard]	// tmp94, tmp95,
	ldr	x1, [x0]	// tmp112,
	str	x1, [sp, 104]	// tmp112, D.6928
	mov	x1, 0	// tmp112
	add	x0, sp, 304	// tmp117,,
	str	x0, [sp, 72]	// tmp117, MEM[(struct  *)&argv].__stack
	add	x0, sp, 304	// tmp118,,
	str	x0, [sp, 80]	// tmp118, MEM[(struct  *)&argv].__gr_top
	add	x0, sp, 240	// tmp97,,
	str	x0, [sp, 88]	// tmp97, MEM[(struct  *)&argv].__vr_top
	mov	w0, -56	// tmp98,
	str	w0, [sp, 96]	// tmp98, MEM[(struct  *)&argv].__gr_offs
	mov	w0, -128	// tmp99,
	str	w0, [sp, 100]	// tmp99, MEM[(struct  *)&argv].__vr_offs
	add	x0, sp, 16	// tmp100,,
	add	x1, sp, 72	// tmp101,,
	ldp	q0, q1, [x1]	// tmp102, tmp103, argv
	stp	q0, q1, [x0]	// tmp102, tmp103,
	add	x0, sp, 16	// tmp104,,
	ldr	x2, [sp, 56]	// tmp105, func
	mov	x1, x0	//, tmp104
	adrp	x0, .LC23	// tmp106,
	add	x0, x0, :lo12:.LC23	//, tmp106,
	blr	x2		// tmp105
	str	w0, [sp, 68]	//, retval
	ldr	w2, [sp, 68]	//, retval
	adrp	x0, .LC23	// tmp107,
	add	x1, x0, :lo12:.LC23	//, tmp107,
	adrp	x0, .LC1	// tmp108,
	add	x0, x0, :lo12:.LC1	//, tmp108,
	bl	printf		//
	ldr	w0, [sp, 68]	// _8, retval
	mov	w1, w0	// <retval>, _8
	adrp	x0, :got:__stack_chk_guard	// tmp111,
	ldr	x0, [x0, #:got_lo12:__stack_chk_guard]	// tmp110, tmp111,
	ldr	x3, [sp, 104]	// tmp113, D.6928
	ldr	x2, [x0]	// tmp114,
	subs	x3, x3, x2	// tmp113, tmp114
	mov	x2, 0	// tmp114
	beq	.L172		//,
	bl	__stack_chk_fail		//
.L172:
	mov	w0, w1	//, <retval>
	ldp	x29, x30, [sp], 304	//,,,
	.cfi_restore 30
	.cfi_restore 29
	.cfi_def_cfa_offset 0
	ret	
	.cfi_endproc
.LFE64:
	.size	test_va_list_many_short_vector_8_bytes, .-test_va_list_many_short_vector_8_bytes
	.align	2
	.global	use_indirect_va_list_many_short_vector_8_bytes
	.type	use_indirect_va_list_many_short_vector_8_bytes, %function
use_indirect_va_list_many_short_vector_8_bytes:
.LFB65:
	.cfi_startproc
	stp	x29, x30, [sp, -96]!	//,,,
	.cfi_def_cfa_offset 96
	.cfi_offset 29, -96
	.cfi_offset 30, -88
	mov	x29, sp	//,
	str	x19, [sp, 16]	//,
	.cfi_offset 19, -80
	str	x0, [sp, 72]	// func, func
	mov	x19, x1	// tmp94,
// varargs-use-dll.c:118: DECLARE_TEST (many_short_vector_8_bytes);
	add	x0, sp, 32	// tmp95,,
	mov	x1, x19	// tmp96, tmp94
	ldp	q0, q1, [x1]	// tmp97, tmp98, argv
	stp	q0, q1, [x0]	// tmp97, tmp98,
	add	x0, sp, 32	// tmp99,,
	ldr	x2, [sp, 72]	// tmp100, func
	mov	x1, x0	//, tmp99
	adrp	x0, .LC23	// tmp101,
	add	x0, x0, :lo12:.LC23	//, tmp101,
	blr	x2		// tmp100
	str	w0, [sp, 92]	//, retval
	ldr	w2, [sp, 92]	//, retval
	adrp	x0, .LC23	// tmp102,
	add	x1, x0, :lo12:.LC23	//, tmp102,
	adrp	x0, .LC2	// tmp103,
	add	x0, x0, :lo12:.LC2	//, tmp103,
	bl	printf		//
	ldr	w0, [sp, 92]	// _6, retval
	ldr	x19, [sp, 16]	//,
	ldp	x29, x30, [sp], 96	//,,,
	.cfi_restore 30
	.cfi_restore 29
	.cfi_restore 19
	.cfi_def_cfa_offset 0
	ret	
	.cfi_endproc
.LFE65:
	.size	use_indirect_va_list_many_short_vector_8_bytes, .-use_indirect_va_list_many_short_vector_8_bytes
	.align	2
	.global	test_indirect_va_list_many_short_vector_8_bytes
	.type	test_indirect_va_list_many_short_vector_8_bytes, %function
test_indirect_va_list_many_short_vector_8_bytes:
.LFB66:
	.cfi_startproc
	stp	x29, x30, [sp, -304]!	//,,,
	.cfi_def_cfa_offset 304
	.cfi_offset 29, -304
	.cfi_offset 30, -296
	mov	x29, sp	//,
	str	x0, [sp, 56]	// func, func
	str	x1, [sp, 248]	//,
	str	x2, [sp, 256]	//,
	str	x3, [sp, 264]	//,
	str	x4, [sp, 272]	//,
	str	x5, [sp, 280]	//,
	str	x6, [sp, 288]	//,
	str	x7, [sp, 296]	//,
	str	q0, [sp, 112]	//,
	str	q1, [sp, 128]	//,
	str	q2, [sp, 144]	//,
	str	q3, [sp, 160]	//,
	str	q4, [sp, 176]	//,
	str	q5, [sp, 192]	//,
	str	q6, [sp, 208]	//,
	str	q7, [sp, 224]	//,
// varargs-use-dll.c:118: DECLARE_TEST (many_short_vector_8_bytes);
	adrp	x0, :got:__stack_chk_guard	// tmp95,
	ldr	x0, [x0, #:got_lo12:__stack_chk_guard]	// tmp94, tmp95,
	ldr	x1, [x0]	// tmp108,
	str	x1, [sp, 104]	// tmp108, D.6935
	mov	x1, 0	// tmp108
	add	x0, sp, 304	// tmp113,,
	str	x0, [sp, 72]	// tmp113, MEM[(struct  *)&argv].__stack
	add	x0, sp, 304	// tmp114,,
	str	x0, [sp, 80]	// tmp114, MEM[(struct  *)&argv].__gr_top
	add	x0, sp, 240	// tmp97,,
	str	x0, [sp, 88]	// tmp97, MEM[(struct  *)&argv].__vr_top
	mov	w0, -56	// tmp98,
	str	w0, [sp, 96]	// tmp98, MEM[(struct  *)&argv].__gr_offs
	mov	w0, -128	// tmp99,
	str	w0, [sp, 100]	// tmp99, MEM[(struct  *)&argv].__vr_offs
	add	x0, sp, 16	// tmp100,,
	add	x1, sp, 72	// tmp101,,
	ldp	q0, q1, [x1]	// tmp102, tmp103, argv
	stp	q0, q1, [x0]	// tmp102, tmp103,
	add	x0, sp, 16	// tmp104,,
	mov	x1, x0	//, tmp104
	ldr	x0, [sp, 56]	//, func
	bl	use_indirect_va_list_many_short_vector_8_bytes		//
	str	w0, [sp, 68]	//, retval
	ldr	w0, [sp, 68]	// _7, retval
	mov	w1, w0	// <retval>, _7
	adrp	x0, :got:__stack_chk_guard	// tmp107,
	ldr	x0, [x0, #:got_lo12:__stack_chk_guard]	// tmp106, tmp107,
	ldr	x3, [sp, 104]	// tmp109, D.6935
	ldr	x2, [x0]	// tmp110,
	subs	x3, x3, x2	// tmp109, tmp110
	mov	x2, 0	// tmp110
	beq	.L177		//,
	bl	__stack_chk_fail		//
.L177:
	mov	w0, w1	//, <retval>
	ldp	x29, x30, [sp], 304	//,,,
	.cfi_restore 30
	.cfi_restore 29
	.cfi_def_cfa_offset 0
	ret	
	.cfi_endproc
.LFE66:
	.size	test_indirect_va_list_many_short_vector_8_bytes, .-test_indirect_va_list_many_short_vector_8_bytes
	.section	.rodata
	.align	3
.LC24:
	.string	"few_not_short_vector_12_bytes"
	.text
	.align	2
	.global	test_va_list_few_not_short_vector_12_bytes
	.type	test_va_list_few_not_short_vector_12_bytes, %function
test_va_list_few_not_short_vector_12_bytes:
.LFB67:
	.cfi_startproc
	stp	x29, x30, [sp, -304]!	//,,,
	.cfi_def_cfa_offset 304
	.cfi_offset 29, -304
	.cfi_offset 30, -296
	mov	x29, sp	//,
	str	x0, [sp, 56]	// func, func
	str	x1, [sp, 248]	//,
	str	x2, [sp, 256]	//,
	str	x3, [sp, 264]	//,
	str	x4, [sp, 272]	//,
	str	x5, [sp, 280]	//,
	str	x6, [sp, 288]	//,
	str	x7, [sp, 296]	//,
	str	q0, [sp, 112]	//,
	str	q1, [sp, 128]	//,
	str	q2, [sp, 144]	//,
	str	q3, [sp, 160]	//,
	str	q4, [sp, 176]	//,
	str	q5, [sp, 192]	//,
	str	q6, [sp, 208]	//,
	str	q7, [sp, 224]	//,
// varargs-use-dll.c:120: DECLARE_TEST (few_not_short_vector_12_bytes);
	adrp	x0, :got:__stack_chk_guard	// tmp95,
	ldr	x0, [x0, #:got_lo12:__stack_chk_guard]	// tmp94, tmp95,
	ldr	x1, [x0]	// tmp112,
	str	x1, [sp, 104]	// tmp112, D.6940
	mov	x1, 0	// tmp112
	add	x0, sp, 304	// tmp117,,
	str	x0, [sp, 72]	// tmp117, MEM[(struct  *)&argv].__stack
	add	x0, sp, 304	// tmp118,,
	str	x0, [sp, 80]	// tmp118, MEM[(struct  *)&argv].__gr_top
	add	x0, sp, 240	// tmp97,,
	str	x0, [sp, 88]	// tmp97, MEM[(struct  *)&argv].__vr_top
	mov	w0, -56	// tmp98,
	str	w0, [sp, 96]	// tmp98, MEM[(struct  *)&argv].__gr_offs
	mov	w0, -128	// tmp99,
	str	w0, [sp, 100]	// tmp99, MEM[(struct  *)&argv].__vr_offs
	add	x0, sp, 16	// tmp100,,
	add	x1, sp, 72	// tmp101,,
	ldp	q0, q1, [x1]	// tmp102, tmp103, argv
	stp	q0, q1, [x0]	// tmp102, tmp103,
	add	x0, sp, 16	// tmp104,,
	ldr	x2, [sp, 56]	// tmp105, func
	mov	x1, x0	//, tmp104
	adrp	x0, .LC24	// tmp106,
	add	x0, x0, :lo12:.LC24	//, tmp106,
	blr	x2		// tmp105
	str	w0, [sp, 68]	//, retval
	ldr	w2, [sp, 68]	//, retval
	adrp	x0, .LC24	// tmp107,
	add	x1, x0, :lo12:.LC24	//, tmp107,
	adrp	x0, .LC1	// tmp108,
	add	x0, x0, :lo12:.LC1	//, tmp108,
	bl	printf		//
	ldr	w0, [sp, 68]	// _8, retval
	mov	w1, w0	// <retval>, _8
	adrp	x0, :got:__stack_chk_guard	// tmp111,
	ldr	x0, [x0, #:got_lo12:__stack_chk_guard]	// tmp110, tmp111,
	ldr	x3, [sp, 104]	// tmp113, D.6940
	ldr	x2, [x0]	// tmp114,
	subs	x3, x3, x2	// tmp113, tmp114
	mov	x2, 0	// tmp114
	beq	.L180		//,
	bl	__stack_chk_fail		//
.L180:
	mov	w0, w1	//, <retval>
	ldp	x29, x30, [sp], 304	//,,,
	.cfi_restore 30
	.cfi_restore 29
	.cfi_def_cfa_offset 0
	ret	
	.cfi_endproc
.LFE67:
	.size	test_va_list_few_not_short_vector_12_bytes, .-test_va_list_few_not_short_vector_12_bytes
	.align	2
	.global	use_indirect_va_list_few_not_short_vector_12_bytes
	.type	use_indirect_va_list_few_not_short_vector_12_bytes, %function
use_indirect_va_list_few_not_short_vector_12_bytes:
.LFB68:
	.cfi_startproc
	stp	x29, x30, [sp, -96]!	//,,,
	.cfi_def_cfa_offset 96
	.cfi_offset 29, -96
	.cfi_offset 30, -88
	mov	x29, sp	//,
	str	x19, [sp, 16]	//,
	.cfi_offset 19, -80
	str	x0, [sp, 72]	// func, func
	mov	x19, x1	// tmp94,
// varargs-use-dll.c:120: DECLARE_TEST (few_not_short_vector_12_bytes);
	add	x0, sp, 32	// tmp95,,
	mov	x1, x19	// tmp96, tmp94
	ldp	q0, q1, [x1]	// tmp97, tmp98, argv
	stp	q0, q1, [x0]	// tmp97, tmp98,
	add	x0, sp, 32	// tmp99,,
	ldr	x2, [sp, 72]	// tmp100, func
	mov	x1, x0	//, tmp99
	adrp	x0, .LC24	// tmp101,
	add	x0, x0, :lo12:.LC24	//, tmp101,
	blr	x2		// tmp100
	str	w0, [sp, 92]	//, retval
	ldr	w2, [sp, 92]	//, retval
	adrp	x0, .LC24	// tmp102,
	add	x1, x0, :lo12:.LC24	//, tmp102,
	adrp	x0, .LC2	// tmp103,
	add	x0, x0, :lo12:.LC2	//, tmp103,
	bl	printf		//
	ldr	w0, [sp, 92]	// _6, retval
	ldr	x19, [sp, 16]	//,
	ldp	x29, x30, [sp], 96	//,,,
	.cfi_restore 30
	.cfi_restore 29
	.cfi_restore 19
	.cfi_def_cfa_offset 0
	ret	
	.cfi_endproc
.LFE68:
	.size	use_indirect_va_list_few_not_short_vector_12_bytes, .-use_indirect_va_list_few_not_short_vector_12_bytes
	.align	2
	.global	test_indirect_va_list_few_not_short_vector_12_bytes
	.type	test_indirect_va_list_few_not_short_vector_12_bytes, %function
test_indirect_va_list_few_not_short_vector_12_bytes:
.LFB69:
	.cfi_startproc
	stp	x29, x30, [sp, -304]!	//,,,
	.cfi_def_cfa_offset 304
	.cfi_offset 29, -304
	.cfi_offset 30, -296
	mov	x29, sp	//,
	str	x0, [sp, 56]	// func, func
	str	x1, [sp, 248]	//,
	str	x2, [sp, 256]	//,
	str	x3, [sp, 264]	//,
	str	x4, [sp, 272]	//,
	str	x5, [sp, 280]	//,
	str	x6, [sp, 288]	//,
	str	x7, [sp, 296]	//,
	str	q0, [sp, 112]	//,
	str	q1, [sp, 128]	//,
	str	q2, [sp, 144]	//,
	str	q3, [sp, 160]	//,
	str	q4, [sp, 176]	//,
	str	q5, [sp, 192]	//,
	str	q6, [sp, 208]	//,
	str	q7, [sp, 224]	//,
// varargs-use-dll.c:120: DECLARE_TEST (few_not_short_vector_12_bytes);
	adrp	x0, :got:__stack_chk_guard	// tmp95,
	ldr	x0, [x0, #:got_lo12:__stack_chk_guard]	// tmp94, tmp95,
	ldr	x1, [x0]	// tmp108,
	str	x1, [sp, 104]	// tmp108, D.6947
	mov	x1, 0	// tmp108
	add	x0, sp, 304	// tmp113,,
	str	x0, [sp, 72]	// tmp113, MEM[(struct  *)&argv].__stack
	add	x0, sp, 304	// tmp114,,
	str	x0, [sp, 80]	// tmp114, MEM[(struct  *)&argv].__gr_top
	add	x0, sp, 240	// tmp97,,
	str	x0, [sp, 88]	// tmp97, MEM[(struct  *)&argv].__vr_top
	mov	w0, -56	// tmp98,
	str	w0, [sp, 96]	// tmp98, MEM[(struct  *)&argv].__gr_offs
	mov	w0, -128	// tmp99,
	str	w0, [sp, 100]	// tmp99, MEM[(struct  *)&argv].__vr_offs
	add	x0, sp, 16	// tmp100,,
	add	x1, sp, 72	// tmp101,,
	ldp	q0, q1, [x1]	// tmp102, tmp103, argv
	stp	q0, q1, [x0]	// tmp102, tmp103,
	add	x0, sp, 16	// tmp104,,
	mov	x1, x0	//, tmp104
	ldr	x0, [sp, 56]	//, func
	bl	use_indirect_va_list_few_not_short_vector_12_bytes		//
	str	w0, [sp, 68]	//, retval
	ldr	w0, [sp, 68]	// _7, retval
	mov	w1, w0	// <retval>, _7
	adrp	x0, :got:__stack_chk_guard	// tmp107,
	ldr	x0, [x0, #:got_lo12:__stack_chk_guard]	// tmp106, tmp107,
	ldr	x3, [sp, 104]	// tmp109, D.6947
	ldr	x2, [x0]	// tmp110,
	subs	x3, x3, x2	// tmp109, tmp110
	mov	x2, 0	// tmp110
	beq	.L185		//,
	bl	__stack_chk_fail		//
.L185:
	mov	w0, w1	//, <retval>
	ldp	x29, x30, [sp], 304	//,,,
	.cfi_restore 30
	.cfi_restore 29
	.cfi_def_cfa_offset 0
	ret	
	.cfi_endproc
.LFE69:
	.size	test_indirect_va_list_few_not_short_vector_12_bytes, .-test_indirect_va_list_few_not_short_vector_12_bytes
	.section	.rodata
	.align	3
.LC25:
	.string	"several_not_short_vector_12_bytes"
	.text
	.align	2
	.global	test_va_list_several_not_short_vector_12_bytes
	.type	test_va_list_several_not_short_vector_12_bytes, %function
test_va_list_several_not_short_vector_12_bytes:
.LFB70:
	.cfi_startproc
	stp	x29, x30, [sp, -304]!	//,,,
	.cfi_def_cfa_offset 304
	.cfi_offset 29, -304
	.cfi_offset 30, -296
	mov	x29, sp	//,
	str	x0, [sp, 56]	// func, func
	str	x1, [sp, 248]	//,
	str	x2, [sp, 256]	//,
	str	x3, [sp, 264]	//,
	str	x4, [sp, 272]	//,
	str	x5, [sp, 280]	//,
	str	x6, [sp, 288]	//,
	str	x7, [sp, 296]	//,
	str	q0, [sp, 112]	//,
	str	q1, [sp, 128]	//,
	str	q2, [sp, 144]	//,
	str	q3, [sp, 160]	//,
	str	q4, [sp, 176]	//,
	str	q5, [sp, 192]	//,
	str	q6, [sp, 208]	//,
	str	q7, [sp, 224]	//,
// varargs-use-dll.c:121: DECLARE_TEST (several_not_short_vector_12_bytes);
	adrp	x0, :got:__stack_chk_guard	// tmp95,
	ldr	x0, [x0, #:got_lo12:__stack_chk_guard]	// tmp94, tmp95,
	ldr	x1, [x0]	// tmp112,
	str	x1, [sp, 104]	// tmp112, D.6952
	mov	x1, 0	// tmp112
	add	x0, sp, 304	// tmp117,,
	str	x0, [sp, 72]	// tmp117, MEM[(struct  *)&argv].__stack
	add	x0, sp, 304	// tmp118,,
	str	x0, [sp, 80]	// tmp118, MEM[(struct  *)&argv].__gr_top
	add	x0, sp, 240	// tmp97,,
	str	x0, [sp, 88]	// tmp97, MEM[(struct  *)&argv].__vr_top
	mov	w0, -56	// tmp98,
	str	w0, [sp, 96]	// tmp98, MEM[(struct  *)&argv].__gr_offs
	mov	w0, -128	// tmp99,
	str	w0, [sp, 100]	// tmp99, MEM[(struct  *)&argv].__vr_offs
	add	x0, sp, 16	// tmp100,,
	add	x1, sp, 72	// tmp101,,
	ldp	q0, q1, [x1]	// tmp102, tmp103, argv
	stp	q0, q1, [x0]	// tmp102, tmp103,
	add	x0, sp, 16	// tmp104,,
	ldr	x2, [sp, 56]	// tmp105, func
	mov	x1, x0	//, tmp104
	adrp	x0, .LC25	// tmp106,
	add	x0, x0, :lo12:.LC25	//, tmp106,
	blr	x2		// tmp105
	str	w0, [sp, 68]	//, retval
	ldr	w2, [sp, 68]	//, retval
	adrp	x0, .LC25	// tmp107,
	add	x1, x0, :lo12:.LC25	//, tmp107,
	adrp	x0, .LC1	// tmp108,
	add	x0, x0, :lo12:.LC1	//, tmp108,
	bl	printf		//
	ldr	w0, [sp, 68]	// _8, retval
	mov	w1, w0	// <retval>, _8
	adrp	x0, :got:__stack_chk_guard	// tmp111,
	ldr	x0, [x0, #:got_lo12:__stack_chk_guard]	// tmp110, tmp111,
	ldr	x3, [sp, 104]	// tmp113, D.6952
	ldr	x2, [x0]	// tmp114,
	subs	x3, x3, x2	// tmp113, tmp114
	mov	x2, 0	// tmp114
	beq	.L188		//,
	bl	__stack_chk_fail		//
.L188:
	mov	w0, w1	//, <retval>
	ldp	x29, x30, [sp], 304	//,,,
	.cfi_restore 30
	.cfi_restore 29
	.cfi_def_cfa_offset 0
	ret	
	.cfi_endproc
.LFE70:
	.size	test_va_list_several_not_short_vector_12_bytes, .-test_va_list_several_not_short_vector_12_bytes
	.align	2
	.global	use_indirect_va_list_several_not_short_vector_12_bytes
	.type	use_indirect_va_list_several_not_short_vector_12_bytes, %function
use_indirect_va_list_several_not_short_vector_12_bytes:
.LFB71:
	.cfi_startproc
	stp	x29, x30, [sp, -96]!	//,,,
	.cfi_def_cfa_offset 96
	.cfi_offset 29, -96
	.cfi_offset 30, -88
	mov	x29, sp	//,
	str	x19, [sp, 16]	//,
	.cfi_offset 19, -80
	str	x0, [sp, 72]	// func, func
	mov	x19, x1	// tmp94,
// varargs-use-dll.c:121: DECLARE_TEST (several_not_short_vector_12_bytes);
	add	x0, sp, 32	// tmp95,,
	mov	x1, x19	// tmp96, tmp94
	ldp	q0, q1, [x1]	// tmp97, tmp98, argv
	stp	q0, q1, [x0]	// tmp97, tmp98,
	add	x0, sp, 32	// tmp99,,
	ldr	x2, [sp, 72]	// tmp100, func
	mov	x1, x0	//, tmp99
	adrp	x0, .LC25	// tmp101,
	add	x0, x0, :lo12:.LC25	//, tmp101,
	blr	x2		// tmp100
	str	w0, [sp, 92]	//, retval
	ldr	w2, [sp, 92]	//, retval
	adrp	x0, .LC25	// tmp102,
	add	x1, x0, :lo12:.LC25	//, tmp102,
	adrp	x0, .LC2	// tmp103,
	add	x0, x0, :lo12:.LC2	//, tmp103,
	bl	printf		//
	ldr	w0, [sp, 92]	// _6, retval
	ldr	x19, [sp, 16]	//,
	ldp	x29, x30, [sp], 96	//,,,
	.cfi_restore 30
	.cfi_restore 29
	.cfi_restore 19
	.cfi_def_cfa_offset 0
	ret	
	.cfi_endproc
.LFE71:
	.size	use_indirect_va_list_several_not_short_vector_12_bytes, .-use_indirect_va_list_several_not_short_vector_12_bytes
	.align	2
	.global	test_indirect_va_list_several_not_short_vector_12_bytes
	.type	test_indirect_va_list_several_not_short_vector_12_bytes, %function
test_indirect_va_list_several_not_short_vector_12_bytes:
.LFB72:
	.cfi_startproc
	stp	x29, x30, [sp, -304]!	//,,,
	.cfi_def_cfa_offset 304
	.cfi_offset 29, -304
	.cfi_offset 30, -296
	mov	x29, sp	//,
	str	x0, [sp, 56]	// func, func
	str	x1, [sp, 248]	//,
	str	x2, [sp, 256]	//,
	str	x3, [sp, 264]	//,
	str	x4, [sp, 272]	//,
	str	x5, [sp, 280]	//,
	str	x6, [sp, 288]	//,
	str	x7, [sp, 296]	//,
	str	q0, [sp, 112]	//,
	str	q1, [sp, 128]	//,
	str	q2, [sp, 144]	//,
	str	q3, [sp, 160]	//,
	str	q4, [sp, 176]	//,
	str	q5, [sp, 192]	//,
	str	q6, [sp, 208]	//,
	str	q7, [sp, 224]	//,
// varargs-use-dll.c:121: DECLARE_TEST (several_not_short_vector_12_bytes);
	adrp	x0, :got:__stack_chk_guard	// tmp95,
	ldr	x0, [x0, #:got_lo12:__stack_chk_guard]	// tmp94, tmp95,
	ldr	x1, [x0]	// tmp108,
	str	x1, [sp, 104]	// tmp108, D.6959
	mov	x1, 0	// tmp108
	add	x0, sp, 304	// tmp113,,
	str	x0, [sp, 72]	// tmp113, MEM[(struct  *)&argv].__stack
	add	x0, sp, 304	// tmp114,,
	str	x0, [sp, 80]	// tmp114, MEM[(struct  *)&argv].__gr_top
	add	x0, sp, 240	// tmp97,,
	str	x0, [sp, 88]	// tmp97, MEM[(struct  *)&argv].__vr_top
	mov	w0, -56	// tmp98,
	str	w0, [sp, 96]	// tmp98, MEM[(struct  *)&argv].__gr_offs
	mov	w0, -128	// tmp99,
	str	w0, [sp, 100]	// tmp99, MEM[(struct  *)&argv].__vr_offs
	add	x0, sp, 16	// tmp100,,
	add	x1, sp, 72	// tmp101,,
	ldp	q0, q1, [x1]	// tmp102, tmp103, argv
	stp	q0, q1, [x0]	// tmp102, tmp103,
	add	x0, sp, 16	// tmp104,,
	mov	x1, x0	//, tmp104
	ldr	x0, [sp, 56]	//, func
	bl	use_indirect_va_list_several_not_short_vector_12_bytes		//
	str	w0, [sp, 68]	//, retval
	ldr	w0, [sp, 68]	// _7, retval
	mov	w1, w0	// <retval>, _7
	adrp	x0, :got:__stack_chk_guard	// tmp107,
	ldr	x0, [x0, #:got_lo12:__stack_chk_guard]	// tmp106, tmp107,
	ldr	x3, [sp, 104]	// tmp109, D.6959
	ldr	x2, [x0]	// tmp110,
	subs	x3, x3, x2	// tmp109, tmp110
	mov	x2, 0	// tmp110
	beq	.L193		//,
	bl	__stack_chk_fail		//
.L193:
	mov	w0, w1	//, <retval>
	ldp	x29, x30, [sp], 304	//,,,
	.cfi_restore 30
	.cfi_restore 29
	.cfi_def_cfa_offset 0
	ret	
	.cfi_endproc
.LFE72:
	.size	test_indirect_va_list_several_not_short_vector_12_bytes, .-test_indirect_va_list_several_not_short_vector_12_bytes
	.section	.rodata
	.align	3
.LC26:
	.string	"many_not_short_vector_12_bytes"
	.text
	.align	2
	.global	test_va_list_many_not_short_vector_12_bytes
	.type	test_va_list_many_not_short_vector_12_bytes, %function
test_va_list_many_not_short_vector_12_bytes:
.LFB73:
	.cfi_startproc
	stp	x29, x30, [sp, -304]!	//,,,
	.cfi_def_cfa_offset 304
	.cfi_offset 29, -304
	.cfi_offset 30, -296
	mov	x29, sp	//,
	str	x0, [sp, 56]	// func, func
	str	x1, [sp, 248]	//,
	str	x2, [sp, 256]	//,
	str	x3, [sp, 264]	//,
	str	x4, [sp, 272]	//,
	str	x5, [sp, 280]	//,
	str	x6, [sp, 288]	//,
	str	x7, [sp, 296]	//,
	str	q0, [sp, 112]	//,
	str	q1, [sp, 128]	//,
	str	q2, [sp, 144]	//,
	str	q3, [sp, 160]	//,
	str	q4, [sp, 176]	//,
	str	q5, [sp, 192]	//,
	str	q6, [sp, 208]	//,
	str	q7, [sp, 224]	//,
// varargs-use-dll.c:122: DECLARE_TEST (many_not_short_vector_12_bytes);
	adrp	x0, :got:__stack_chk_guard	// tmp95,
	ldr	x0, [x0, #:got_lo12:__stack_chk_guard]	// tmp94, tmp95,
	ldr	x1, [x0]	// tmp112,
	str	x1, [sp, 104]	// tmp112, D.6964
	mov	x1, 0	// tmp112
	add	x0, sp, 304	// tmp117,,
	str	x0, [sp, 72]	// tmp117, MEM[(struct  *)&argv].__stack
	add	x0, sp, 304	// tmp118,,
	str	x0, [sp, 80]	// tmp118, MEM[(struct  *)&argv].__gr_top
	add	x0, sp, 240	// tmp97,,
	str	x0, [sp, 88]	// tmp97, MEM[(struct  *)&argv].__vr_top
	mov	w0, -56	// tmp98,
	str	w0, [sp, 96]	// tmp98, MEM[(struct  *)&argv].__gr_offs
	mov	w0, -128	// tmp99,
	str	w0, [sp, 100]	// tmp99, MEM[(struct  *)&argv].__vr_offs
	add	x0, sp, 16	// tmp100,,
	add	x1, sp, 72	// tmp101,,
	ldp	q0, q1, [x1]	// tmp102, tmp103, argv
	stp	q0, q1, [x0]	// tmp102, tmp103,
	add	x0, sp, 16	// tmp104,,
	ldr	x2, [sp, 56]	// tmp105, func
	mov	x1, x0	//, tmp104
	adrp	x0, .LC26	// tmp106,
	add	x0, x0, :lo12:.LC26	//, tmp106,
	blr	x2		// tmp105
	str	w0, [sp, 68]	//, retval
	ldr	w2, [sp, 68]	//, retval
	adrp	x0, .LC26	// tmp107,
	add	x1, x0, :lo12:.LC26	//, tmp107,
	adrp	x0, .LC1	// tmp108,
	add	x0, x0, :lo12:.LC1	//, tmp108,
	bl	printf		//
	ldr	w0, [sp, 68]	// _8, retval
	mov	w1, w0	// <retval>, _8
	adrp	x0, :got:__stack_chk_guard	// tmp111,
	ldr	x0, [x0, #:got_lo12:__stack_chk_guard]	// tmp110, tmp111,
	ldr	x3, [sp, 104]	// tmp113, D.6964
	ldr	x2, [x0]	// tmp114,
	subs	x3, x3, x2	// tmp113, tmp114
	mov	x2, 0	// tmp114
	beq	.L196		//,
	bl	__stack_chk_fail		//
.L196:
	mov	w0, w1	//, <retval>
	ldp	x29, x30, [sp], 304	//,,,
	.cfi_restore 30
	.cfi_restore 29
	.cfi_def_cfa_offset 0
	ret	
	.cfi_endproc
.LFE73:
	.size	test_va_list_many_not_short_vector_12_bytes, .-test_va_list_many_not_short_vector_12_bytes
	.align	2
	.global	use_indirect_va_list_many_not_short_vector_12_bytes
	.type	use_indirect_va_list_many_not_short_vector_12_bytes, %function
use_indirect_va_list_many_not_short_vector_12_bytes:
.LFB74:
	.cfi_startproc
	stp	x29, x30, [sp, -96]!	//,,,
	.cfi_def_cfa_offset 96
	.cfi_offset 29, -96
	.cfi_offset 30, -88
	mov	x29, sp	//,
	str	x19, [sp, 16]	//,
	.cfi_offset 19, -80
	str	x0, [sp, 72]	// func, func
	mov	x19, x1	// tmp94,
// varargs-use-dll.c:122: DECLARE_TEST (many_not_short_vector_12_bytes);
	add	x0, sp, 32	// tmp95,,
	mov	x1, x19	// tmp96, tmp94
	ldp	q0, q1, [x1]	// tmp97, tmp98, argv
	stp	q0, q1, [x0]	// tmp97, tmp98,
	add	x0, sp, 32	// tmp99,,
	ldr	x2, [sp, 72]	// tmp100, func
	mov	x1, x0	//, tmp99
	adrp	x0, .LC26	// tmp101,
	add	x0, x0, :lo12:.LC26	//, tmp101,
	blr	x2		// tmp100
	str	w0, [sp, 92]	//, retval
	ldr	w2, [sp, 92]	//, retval
	adrp	x0, .LC26	// tmp102,
	add	x1, x0, :lo12:.LC26	//, tmp102,
	adrp	x0, .LC2	// tmp103,
	add	x0, x0, :lo12:.LC2	//, tmp103,
	bl	printf		//
	ldr	w0, [sp, 92]	// _6, retval
	ldr	x19, [sp, 16]	//,
	ldp	x29, x30, [sp], 96	//,,,
	.cfi_restore 30
	.cfi_restore 29
	.cfi_restore 19
	.cfi_def_cfa_offset 0
	ret	
	.cfi_endproc
.LFE74:
	.size	use_indirect_va_list_many_not_short_vector_12_bytes, .-use_indirect_va_list_many_not_short_vector_12_bytes
	.align	2
	.global	test_indirect_va_list_many_not_short_vector_12_bytes
	.type	test_indirect_va_list_many_not_short_vector_12_bytes, %function
test_indirect_va_list_many_not_short_vector_12_bytes:
.LFB75:
	.cfi_startproc
	stp	x29, x30, [sp, -304]!	//,,,
	.cfi_def_cfa_offset 304
	.cfi_offset 29, -304
	.cfi_offset 30, -296
	mov	x29, sp	//,
	str	x0, [sp, 56]	// func, func
	str	x1, [sp, 248]	//,
	str	x2, [sp, 256]	//,
	str	x3, [sp, 264]	//,
	str	x4, [sp, 272]	//,
	str	x5, [sp, 280]	//,
	str	x6, [sp, 288]	//,
	str	x7, [sp, 296]	//,
	str	q0, [sp, 112]	//,
	str	q1, [sp, 128]	//,
	str	q2, [sp, 144]	//,
	str	q3, [sp, 160]	//,
	str	q4, [sp, 176]	//,
	str	q5, [sp, 192]	//,
	str	q6, [sp, 208]	//,
	str	q7, [sp, 224]	//,
// varargs-use-dll.c:122: DECLARE_TEST (many_not_short_vector_12_bytes);
	adrp	x0, :got:__stack_chk_guard	// tmp95,
	ldr	x0, [x0, #:got_lo12:__stack_chk_guard]	// tmp94, tmp95,
	ldr	x1, [x0]	// tmp108,
	str	x1, [sp, 104]	// tmp108, D.6971
	mov	x1, 0	// tmp108
	add	x0, sp, 304	// tmp113,,
	str	x0, [sp, 72]	// tmp113, MEM[(struct  *)&argv].__stack
	add	x0, sp, 304	// tmp114,,
	str	x0, [sp, 80]	// tmp114, MEM[(struct  *)&argv].__gr_top
	add	x0, sp, 240	// tmp97,,
	str	x0, [sp, 88]	// tmp97, MEM[(struct  *)&argv].__vr_top
	mov	w0, -56	// tmp98,
	str	w0, [sp, 96]	// tmp98, MEM[(struct  *)&argv].__gr_offs
	mov	w0, -128	// tmp99,
	str	w0, [sp, 100]	// tmp99, MEM[(struct  *)&argv].__vr_offs
	add	x0, sp, 16	// tmp100,,
	add	x1, sp, 72	// tmp101,,
	ldp	q0, q1, [x1]	// tmp102, tmp103, argv
	stp	q0, q1, [x0]	// tmp102, tmp103,
	add	x0, sp, 16	// tmp104,,
	mov	x1, x0	//, tmp104
	ldr	x0, [sp, 56]	//, func
	bl	use_indirect_va_list_many_not_short_vector_12_bytes		//
	str	w0, [sp, 68]	//, retval
	ldr	w0, [sp, 68]	// _7, retval
	mov	w1, w0	// <retval>, _7
	adrp	x0, :got:__stack_chk_guard	// tmp107,
	ldr	x0, [x0, #:got_lo12:__stack_chk_guard]	// tmp106, tmp107,
	ldr	x3, [sp, 104]	// tmp109, D.6971
	ldr	x2, [x0]	// tmp110,
	subs	x3, x3, x2	// tmp109, tmp110
	mov	x2, 0	// tmp110
	beq	.L201		//,
	bl	__stack_chk_fail		//
.L201:
	mov	w0, w1	//, <retval>
	ldp	x29, x30, [sp], 304	//,,,
	.cfi_restore 30
	.cfi_restore 29
	.cfi_def_cfa_offset 0
	ret	
	.cfi_endproc
.LFE75:
	.size	test_indirect_va_list_many_not_short_vector_12_bytes, .-test_indirect_va_list_many_not_short_vector_12_bytes
	.section	.rodata
	.align	3
.LC27:
	.string	"few_short_vector_16_bytes"
	.text
	.align	2
	.global	test_va_list_few_short_vector_16_bytes
	.type	test_va_list_few_short_vector_16_bytes, %function
test_va_list_few_short_vector_16_bytes:
.LFB76:
	.cfi_startproc
	stp	x29, x30, [sp, -304]!	//,,,
	.cfi_def_cfa_offset 304
	.cfi_offset 29, -304
	.cfi_offset 30, -296
	mov	x29, sp	//,
	str	x0, [sp, 56]	// func, func
	str	x1, [sp, 248]	//,
	str	x2, [sp, 256]	//,
	str	x3, [sp, 264]	//,
	str	x4, [sp, 272]	//,
	str	x5, [sp, 280]	//,
	str	x6, [sp, 288]	//,
	str	x7, [sp, 296]	//,
	str	q0, [sp, 112]	//,
	str	q1, [sp, 128]	//,
	str	q2, [sp, 144]	//,
	str	q3, [sp, 160]	//,
	str	q4, [sp, 176]	//,
	str	q5, [sp, 192]	//,
	str	q6, [sp, 208]	//,
	str	q7, [sp, 224]	//,
// varargs-use-dll.c:124: DECLARE_TEST (few_short_vector_16_bytes);
	adrp	x0, :got:__stack_chk_guard	// tmp95,
	ldr	x0, [x0, #:got_lo12:__stack_chk_guard]	// tmp94, tmp95,
	ldr	x1, [x0]	// tmp112,
	str	x1, [sp, 104]	// tmp112, D.6976
	mov	x1, 0	// tmp112
	add	x0, sp, 304	// tmp117,,
	str	x0, [sp, 72]	// tmp117, MEM[(struct  *)&argv].__stack
	add	x0, sp, 304	// tmp118,,
	str	x0, [sp, 80]	// tmp118, MEM[(struct  *)&argv].__gr_top
	add	x0, sp, 240	// tmp97,,
	str	x0, [sp, 88]	// tmp97, MEM[(struct  *)&argv].__vr_top
	mov	w0, -56	// tmp98,
	str	w0, [sp, 96]	// tmp98, MEM[(struct  *)&argv].__gr_offs
	mov	w0, -128	// tmp99,
	str	w0, [sp, 100]	// tmp99, MEM[(struct  *)&argv].__vr_offs
	add	x0, sp, 16	// tmp100,,
	add	x1, sp, 72	// tmp101,,
	ldp	q0, q1, [x1]	// tmp102, tmp103, argv
	stp	q0, q1, [x0]	// tmp102, tmp103,
	add	x0, sp, 16	// tmp104,,
	ldr	x2, [sp, 56]	// tmp105, func
	mov	x1, x0	//, tmp104
	adrp	x0, .LC27	// tmp106,
	add	x0, x0, :lo12:.LC27	//, tmp106,
	blr	x2		// tmp105
	str	w0, [sp, 68]	//, retval
	ldr	w2, [sp, 68]	//, retval
	adrp	x0, .LC27	// tmp107,
	add	x1, x0, :lo12:.LC27	//, tmp107,
	adrp	x0, .LC1	// tmp108,
	add	x0, x0, :lo12:.LC1	//, tmp108,
	bl	printf		//
	ldr	w0, [sp, 68]	// _8, retval
	mov	w1, w0	// <retval>, _8
	adrp	x0, :got:__stack_chk_guard	// tmp111,
	ldr	x0, [x0, #:got_lo12:__stack_chk_guard]	// tmp110, tmp111,
	ldr	x3, [sp, 104]	// tmp113, D.6976
	ldr	x2, [x0]	// tmp114,
	subs	x3, x3, x2	// tmp113, tmp114
	mov	x2, 0	// tmp114
	beq	.L204		//,
	bl	__stack_chk_fail		//
.L204:
	mov	w0, w1	//, <retval>
	ldp	x29, x30, [sp], 304	//,,,
	.cfi_restore 30
	.cfi_restore 29
	.cfi_def_cfa_offset 0
	ret	
	.cfi_endproc
.LFE76:
	.size	test_va_list_few_short_vector_16_bytes, .-test_va_list_few_short_vector_16_bytes
	.align	2
	.global	use_indirect_va_list_few_short_vector_16_bytes
	.type	use_indirect_va_list_few_short_vector_16_bytes, %function
use_indirect_va_list_few_short_vector_16_bytes:
.LFB77:
	.cfi_startproc
	stp	x29, x30, [sp, -96]!	//,,,
	.cfi_def_cfa_offset 96
	.cfi_offset 29, -96
	.cfi_offset 30, -88
	mov	x29, sp	//,
	str	x19, [sp, 16]	//,
	.cfi_offset 19, -80
	str	x0, [sp, 72]	// func, func
	mov	x19, x1	// tmp94,
// varargs-use-dll.c:124: DECLARE_TEST (few_short_vector_16_bytes);
	add	x0, sp, 32	// tmp95,,
	mov	x1, x19	// tmp96, tmp94
	ldp	q0, q1, [x1]	// tmp97, tmp98, argv
	stp	q0, q1, [x0]	// tmp97, tmp98,
	add	x0, sp, 32	// tmp99,,
	ldr	x2, [sp, 72]	// tmp100, func
	mov	x1, x0	//, tmp99
	adrp	x0, .LC27	// tmp101,
	add	x0, x0, :lo12:.LC27	//, tmp101,
	blr	x2		// tmp100
	str	w0, [sp, 92]	//, retval
	ldr	w2, [sp, 92]	//, retval
	adrp	x0, .LC27	// tmp102,
	add	x1, x0, :lo12:.LC27	//, tmp102,
	adrp	x0, .LC2	// tmp103,
	add	x0, x0, :lo12:.LC2	//, tmp103,
	bl	printf		//
	ldr	w0, [sp, 92]	// _6, retval
	ldr	x19, [sp, 16]	//,
	ldp	x29, x30, [sp], 96	//,,,
	.cfi_restore 30
	.cfi_restore 29
	.cfi_restore 19
	.cfi_def_cfa_offset 0
	ret	
	.cfi_endproc
.LFE77:
	.size	use_indirect_va_list_few_short_vector_16_bytes, .-use_indirect_va_list_few_short_vector_16_bytes
	.align	2
	.global	test_indirect_va_list_few_short_vector_16_bytes
	.type	test_indirect_va_list_few_short_vector_16_bytes, %function
test_indirect_va_list_few_short_vector_16_bytes:
.LFB78:
	.cfi_startproc
	stp	x29, x30, [sp, -304]!	//,,,
	.cfi_def_cfa_offset 304
	.cfi_offset 29, -304
	.cfi_offset 30, -296
	mov	x29, sp	//,
	str	x0, [sp, 56]	// func, func
	str	x1, [sp, 248]	//,
	str	x2, [sp, 256]	//,
	str	x3, [sp, 264]	//,
	str	x4, [sp, 272]	//,
	str	x5, [sp, 280]	//,
	str	x6, [sp, 288]	//,
	str	x7, [sp, 296]	//,
	str	q0, [sp, 112]	//,
	str	q1, [sp, 128]	//,
	str	q2, [sp, 144]	//,
	str	q3, [sp, 160]	//,
	str	q4, [sp, 176]	//,
	str	q5, [sp, 192]	//,
	str	q6, [sp, 208]	//,
	str	q7, [sp, 224]	//,
// varargs-use-dll.c:124: DECLARE_TEST (few_short_vector_16_bytes);
	adrp	x0, :got:__stack_chk_guard	// tmp95,
	ldr	x0, [x0, #:got_lo12:__stack_chk_guard]	// tmp94, tmp95,
	ldr	x1, [x0]	// tmp108,
	str	x1, [sp, 104]	// tmp108, D.6983
	mov	x1, 0	// tmp108
	add	x0, sp, 304	// tmp113,,
	str	x0, [sp, 72]	// tmp113, MEM[(struct  *)&argv].__stack
	add	x0, sp, 304	// tmp114,,
	str	x0, [sp, 80]	// tmp114, MEM[(struct  *)&argv].__gr_top
	add	x0, sp, 240	// tmp97,,
	str	x0, [sp, 88]	// tmp97, MEM[(struct  *)&argv].__vr_top
	mov	w0, -56	// tmp98,
	str	w0, [sp, 96]	// tmp98, MEM[(struct  *)&argv].__gr_offs
	mov	w0, -128	// tmp99,
	str	w0, [sp, 100]	// tmp99, MEM[(struct  *)&argv].__vr_offs
	add	x0, sp, 16	// tmp100,,
	add	x1, sp, 72	// tmp101,,
	ldp	q0, q1, [x1]	// tmp102, tmp103, argv
	stp	q0, q1, [x0]	// tmp102, tmp103,
	add	x0, sp, 16	// tmp104,,
	mov	x1, x0	//, tmp104
	ldr	x0, [sp, 56]	//, func
	bl	use_indirect_va_list_few_short_vector_16_bytes		//
	str	w0, [sp, 68]	//, retval
	ldr	w0, [sp, 68]	// _7, retval
	mov	w1, w0	// <retval>, _7
	adrp	x0, :got:__stack_chk_guard	// tmp107,
	ldr	x0, [x0, #:got_lo12:__stack_chk_guard]	// tmp106, tmp107,
	ldr	x3, [sp, 104]	// tmp109, D.6983
	ldr	x2, [x0]	// tmp110,
	subs	x3, x3, x2	// tmp109, tmp110
	mov	x2, 0	// tmp110
	beq	.L209		//,
	bl	__stack_chk_fail		//
.L209:
	mov	w0, w1	//, <retval>
	ldp	x29, x30, [sp], 304	//,,,
	.cfi_restore 30
	.cfi_restore 29
	.cfi_def_cfa_offset 0
	ret	
	.cfi_endproc
.LFE78:
	.size	test_indirect_va_list_few_short_vector_16_bytes, .-test_indirect_va_list_few_short_vector_16_bytes
	.section	.rodata
	.align	3
.LC28:
	.string	"several_short_vector_16_bytes"
	.text
	.align	2
	.global	test_va_list_several_short_vector_16_bytes
	.type	test_va_list_several_short_vector_16_bytes, %function
test_va_list_several_short_vector_16_bytes:
.LFB79:
	.cfi_startproc
	stp	x29, x30, [sp, -304]!	//,,,
	.cfi_def_cfa_offset 304
	.cfi_offset 29, -304
	.cfi_offset 30, -296
	mov	x29, sp	//,
	str	x0, [sp, 56]	// func, func
	str	x1, [sp, 248]	//,
	str	x2, [sp, 256]	//,
	str	x3, [sp, 264]	//,
	str	x4, [sp, 272]	//,
	str	x5, [sp, 280]	//,
	str	x6, [sp, 288]	//,
	str	x7, [sp, 296]	//,
	str	q0, [sp, 112]	//,
	str	q1, [sp, 128]	//,
	str	q2, [sp, 144]	//,
	str	q3, [sp, 160]	//,
	str	q4, [sp, 176]	//,
	str	q5, [sp, 192]	//,
	str	q6, [sp, 208]	//,
	str	q7, [sp, 224]	//,
// varargs-use-dll.c:125: DECLARE_TEST (several_short_vector_16_bytes);
	adrp	x0, :got:__stack_chk_guard	// tmp95,
	ldr	x0, [x0, #:got_lo12:__stack_chk_guard]	// tmp94, tmp95,
	ldr	x1, [x0]	// tmp112,
	str	x1, [sp, 104]	// tmp112, D.6988
	mov	x1, 0	// tmp112
	add	x0, sp, 304	// tmp117,,
	str	x0, [sp, 72]	// tmp117, MEM[(struct  *)&argv].__stack
	add	x0, sp, 304	// tmp118,,
	str	x0, [sp, 80]	// tmp118, MEM[(struct  *)&argv].__gr_top
	add	x0, sp, 240	// tmp97,,
	str	x0, [sp, 88]	// tmp97, MEM[(struct  *)&argv].__vr_top
	mov	w0, -56	// tmp98,
	str	w0, [sp, 96]	// tmp98, MEM[(struct  *)&argv].__gr_offs
	mov	w0, -128	// tmp99,
	str	w0, [sp, 100]	// tmp99, MEM[(struct  *)&argv].__vr_offs
	add	x0, sp, 16	// tmp100,,
	add	x1, sp, 72	// tmp101,,
	ldp	q0, q1, [x1]	// tmp102, tmp103, argv
	stp	q0, q1, [x0]	// tmp102, tmp103,
	add	x0, sp, 16	// tmp104,,
	ldr	x2, [sp, 56]	// tmp105, func
	mov	x1, x0	//, tmp104
	adrp	x0, .LC28	// tmp106,
	add	x0, x0, :lo12:.LC28	//, tmp106,
	blr	x2		// tmp105
	str	w0, [sp, 68]	//, retval
	ldr	w2, [sp, 68]	//, retval
	adrp	x0, .LC28	// tmp107,
	add	x1, x0, :lo12:.LC28	//, tmp107,
	adrp	x0, .LC1	// tmp108,
	add	x0, x0, :lo12:.LC1	//, tmp108,
	bl	printf		//
	ldr	w0, [sp, 68]	// _8, retval
	mov	w1, w0	// <retval>, _8
	adrp	x0, :got:__stack_chk_guard	// tmp111,
	ldr	x0, [x0, #:got_lo12:__stack_chk_guard]	// tmp110, tmp111,
	ldr	x3, [sp, 104]	// tmp113, D.6988
	ldr	x2, [x0]	// tmp114,
	subs	x3, x3, x2	// tmp113, tmp114
	mov	x2, 0	// tmp114
	beq	.L212		//,
	bl	__stack_chk_fail		//
.L212:
	mov	w0, w1	//, <retval>
	ldp	x29, x30, [sp], 304	//,,,
	.cfi_restore 30
	.cfi_restore 29
	.cfi_def_cfa_offset 0
	ret	
	.cfi_endproc
.LFE79:
	.size	test_va_list_several_short_vector_16_bytes, .-test_va_list_several_short_vector_16_bytes
	.align	2
	.global	use_indirect_va_list_several_short_vector_16_bytes
	.type	use_indirect_va_list_several_short_vector_16_bytes, %function
use_indirect_va_list_several_short_vector_16_bytes:
.LFB80:
	.cfi_startproc
	stp	x29, x30, [sp, -96]!	//,,,
	.cfi_def_cfa_offset 96
	.cfi_offset 29, -96
	.cfi_offset 30, -88
	mov	x29, sp	//,
	str	x19, [sp, 16]	//,
	.cfi_offset 19, -80
	str	x0, [sp, 72]	// func, func
	mov	x19, x1	// tmp94,
// varargs-use-dll.c:125: DECLARE_TEST (several_short_vector_16_bytes);
	add	x0, sp, 32	// tmp95,,
	mov	x1, x19	// tmp96, tmp94
	ldp	q0, q1, [x1]	// tmp97, tmp98, argv
	stp	q0, q1, [x0]	// tmp97, tmp98,
	add	x0, sp, 32	// tmp99,,
	ldr	x2, [sp, 72]	// tmp100, func
	mov	x1, x0	//, tmp99
	adrp	x0, .LC28	// tmp101,
	add	x0, x0, :lo12:.LC28	//, tmp101,
	blr	x2		// tmp100
	str	w0, [sp, 92]	//, retval
	ldr	w2, [sp, 92]	//, retval
	adrp	x0, .LC28	// tmp102,
	add	x1, x0, :lo12:.LC28	//, tmp102,
	adrp	x0, .LC2	// tmp103,
	add	x0, x0, :lo12:.LC2	//, tmp103,
	bl	printf		//
	ldr	w0, [sp, 92]	// _6, retval
	ldr	x19, [sp, 16]	//,
	ldp	x29, x30, [sp], 96	//,,,
	.cfi_restore 30
	.cfi_restore 29
	.cfi_restore 19
	.cfi_def_cfa_offset 0
	ret	
	.cfi_endproc
.LFE80:
	.size	use_indirect_va_list_several_short_vector_16_bytes, .-use_indirect_va_list_several_short_vector_16_bytes
	.align	2
	.global	test_indirect_va_list_several_short_vector_16_bytes
	.type	test_indirect_va_list_several_short_vector_16_bytes, %function
test_indirect_va_list_several_short_vector_16_bytes:
.LFB81:
	.cfi_startproc
	stp	x29, x30, [sp, -304]!	//,,,
	.cfi_def_cfa_offset 304
	.cfi_offset 29, -304
	.cfi_offset 30, -296
	mov	x29, sp	//,
	str	x0, [sp, 56]	// func, func
	str	x1, [sp, 248]	//,
	str	x2, [sp, 256]	//,
	str	x3, [sp, 264]	//,
	str	x4, [sp, 272]	//,
	str	x5, [sp, 280]	//,
	str	x6, [sp, 288]	//,
	str	x7, [sp, 296]	//,
	str	q0, [sp, 112]	//,
	str	q1, [sp, 128]	//,
	str	q2, [sp, 144]	//,
	str	q3, [sp, 160]	//,
	str	q4, [sp, 176]	//,
	str	q5, [sp, 192]	//,
	str	q6, [sp, 208]	//,
	str	q7, [sp, 224]	//,
// varargs-use-dll.c:125: DECLARE_TEST (several_short_vector_16_bytes);
	adrp	x0, :got:__stack_chk_guard	// tmp95,
	ldr	x0, [x0, #:got_lo12:__stack_chk_guard]	// tmp94, tmp95,
	ldr	x1, [x0]	// tmp108,
	str	x1, [sp, 104]	// tmp108, D.6995
	mov	x1, 0	// tmp108
	add	x0, sp, 304	// tmp113,,
	str	x0, [sp, 72]	// tmp113, MEM[(struct  *)&argv].__stack
	add	x0, sp, 304	// tmp114,,
	str	x0, [sp, 80]	// tmp114, MEM[(struct  *)&argv].__gr_top
	add	x0, sp, 240	// tmp97,,
	str	x0, [sp, 88]	// tmp97, MEM[(struct  *)&argv].__vr_top
	mov	w0, -56	// tmp98,
	str	w0, [sp, 96]	// tmp98, MEM[(struct  *)&argv].__gr_offs
	mov	w0, -128	// tmp99,
	str	w0, [sp, 100]	// tmp99, MEM[(struct  *)&argv].__vr_offs
	add	x0, sp, 16	// tmp100,,
	add	x1, sp, 72	// tmp101,,
	ldp	q0, q1, [x1]	// tmp102, tmp103, argv
	stp	q0, q1, [x0]	// tmp102, tmp103,
	add	x0, sp, 16	// tmp104,,
	mov	x1, x0	//, tmp104
	ldr	x0, [sp, 56]	//, func
	bl	use_indirect_va_list_several_short_vector_16_bytes		//
	str	w0, [sp, 68]	//, retval
	ldr	w0, [sp, 68]	// _7, retval
	mov	w1, w0	// <retval>, _7
	adrp	x0, :got:__stack_chk_guard	// tmp107,
	ldr	x0, [x0, #:got_lo12:__stack_chk_guard]	// tmp106, tmp107,
	ldr	x3, [sp, 104]	// tmp109, D.6995
	ldr	x2, [x0]	// tmp110,
	subs	x3, x3, x2	// tmp109, tmp110
	mov	x2, 0	// tmp110
	beq	.L217		//,
	bl	__stack_chk_fail		//
.L217:
	mov	w0, w1	//, <retval>
	ldp	x29, x30, [sp], 304	//,,,
	.cfi_restore 30
	.cfi_restore 29
	.cfi_def_cfa_offset 0
	ret	
	.cfi_endproc
.LFE81:
	.size	test_indirect_va_list_several_short_vector_16_bytes, .-test_indirect_va_list_several_short_vector_16_bytes
	.section	.rodata
	.align	3
.LC29:
	.string	"many_short_vector_16_bytes"
	.text
	.align	2
	.global	test_va_list_many_short_vector_16_bytes
	.type	test_va_list_many_short_vector_16_bytes, %function
test_va_list_many_short_vector_16_bytes:
.LFB82:
	.cfi_startproc
	stp	x29, x30, [sp, -304]!	//,,,
	.cfi_def_cfa_offset 304
	.cfi_offset 29, -304
	.cfi_offset 30, -296
	mov	x29, sp	//,
	str	x0, [sp, 56]	// func, func
	str	x1, [sp, 248]	//,
	str	x2, [sp, 256]	//,
	str	x3, [sp, 264]	//,
	str	x4, [sp, 272]	//,
	str	x5, [sp, 280]	//,
	str	x6, [sp, 288]	//,
	str	x7, [sp, 296]	//,
	str	q0, [sp, 112]	//,
	str	q1, [sp, 128]	//,
	str	q2, [sp, 144]	//,
	str	q3, [sp, 160]	//,
	str	q4, [sp, 176]	//,
	str	q5, [sp, 192]	//,
	str	q6, [sp, 208]	//,
	str	q7, [sp, 224]	//,
// varargs-use-dll.c:126: DECLARE_TEST (many_short_vector_16_bytes);
	adrp	x0, :got:__stack_chk_guard	// tmp95,
	ldr	x0, [x0, #:got_lo12:__stack_chk_guard]	// tmp94, tmp95,
	ldr	x1, [x0]	// tmp112,
	str	x1, [sp, 104]	// tmp112, D.7000
	mov	x1, 0	// tmp112
	add	x0, sp, 304	// tmp117,,
	str	x0, [sp, 72]	// tmp117, MEM[(struct  *)&argv].__stack
	add	x0, sp, 304	// tmp118,,
	str	x0, [sp, 80]	// tmp118, MEM[(struct  *)&argv].__gr_top
	add	x0, sp, 240	// tmp97,,
	str	x0, [sp, 88]	// tmp97, MEM[(struct  *)&argv].__vr_top
	mov	w0, -56	// tmp98,
	str	w0, [sp, 96]	// tmp98, MEM[(struct  *)&argv].__gr_offs
	mov	w0, -128	// tmp99,
	str	w0, [sp, 100]	// tmp99, MEM[(struct  *)&argv].__vr_offs
	add	x0, sp, 16	// tmp100,,
	add	x1, sp, 72	// tmp101,,
	ldp	q0, q1, [x1]	// tmp102, tmp103, argv
	stp	q0, q1, [x0]	// tmp102, tmp103,
	add	x0, sp, 16	// tmp104,,
	ldr	x2, [sp, 56]	// tmp105, func
	mov	x1, x0	//, tmp104
	adrp	x0, .LC29	// tmp106,
	add	x0, x0, :lo12:.LC29	//, tmp106,
	blr	x2		// tmp105
	str	w0, [sp, 68]	//, retval
	ldr	w2, [sp, 68]	//, retval
	adrp	x0, .LC29	// tmp107,
	add	x1, x0, :lo12:.LC29	//, tmp107,
	adrp	x0, .LC1	// tmp108,
	add	x0, x0, :lo12:.LC1	//, tmp108,
	bl	printf		//
	ldr	w0, [sp, 68]	// _8, retval
	mov	w1, w0	// <retval>, _8
	adrp	x0, :got:__stack_chk_guard	// tmp111,
	ldr	x0, [x0, #:got_lo12:__stack_chk_guard]	// tmp110, tmp111,
	ldr	x3, [sp, 104]	// tmp113, D.7000
	ldr	x2, [x0]	// tmp114,
	subs	x3, x3, x2	// tmp113, tmp114
	mov	x2, 0	// tmp114
	beq	.L220		//,
	bl	__stack_chk_fail		//
.L220:
	mov	w0, w1	//, <retval>
	ldp	x29, x30, [sp], 304	//,,,
	.cfi_restore 30
	.cfi_restore 29
	.cfi_def_cfa_offset 0
	ret	
	.cfi_endproc
.LFE82:
	.size	test_va_list_many_short_vector_16_bytes, .-test_va_list_many_short_vector_16_bytes
	.align	2
	.global	use_indirect_va_list_many_short_vector_16_bytes
	.type	use_indirect_va_list_many_short_vector_16_bytes, %function
use_indirect_va_list_many_short_vector_16_bytes:
.LFB83:
	.cfi_startproc
	stp	x29, x30, [sp, -96]!	//,,,
	.cfi_def_cfa_offset 96
	.cfi_offset 29, -96
	.cfi_offset 30, -88
	mov	x29, sp	//,
	str	x19, [sp, 16]	//,
	.cfi_offset 19, -80
	str	x0, [sp, 72]	// func, func
	mov	x19, x1	// tmp94,
// varargs-use-dll.c:126: DECLARE_TEST (many_short_vector_16_bytes);
	add	x0, sp, 32	// tmp95,,
	mov	x1, x19	// tmp96, tmp94
	ldp	q0, q1, [x1]	// tmp97, tmp98, argv
	stp	q0, q1, [x0]	// tmp97, tmp98,
	add	x0, sp, 32	// tmp99,,
	ldr	x2, [sp, 72]	// tmp100, func
	mov	x1, x0	//, tmp99
	adrp	x0, .LC29	// tmp101,
	add	x0, x0, :lo12:.LC29	//, tmp101,
	blr	x2		// tmp100
	str	w0, [sp, 92]	//, retval
	ldr	w2, [sp, 92]	//, retval
	adrp	x0, .LC29	// tmp102,
	add	x1, x0, :lo12:.LC29	//, tmp102,
	adrp	x0, .LC2	// tmp103,
	add	x0, x0, :lo12:.LC2	//, tmp103,
	bl	printf		//
	ldr	w0, [sp, 92]	// _6, retval
	ldr	x19, [sp, 16]	//,
	ldp	x29, x30, [sp], 96	//,,,
	.cfi_restore 30
	.cfi_restore 29
	.cfi_restore 19
	.cfi_def_cfa_offset 0
	ret	
	.cfi_endproc
.LFE83:
	.size	use_indirect_va_list_many_short_vector_16_bytes, .-use_indirect_va_list_many_short_vector_16_bytes
	.align	2
	.global	test_indirect_va_list_many_short_vector_16_bytes
	.type	test_indirect_va_list_many_short_vector_16_bytes, %function
test_indirect_va_list_many_short_vector_16_bytes:
.LFB84:
	.cfi_startproc
	stp	x29, x30, [sp, -304]!	//,,,
	.cfi_def_cfa_offset 304
	.cfi_offset 29, -304
	.cfi_offset 30, -296
	mov	x29, sp	//,
	str	x0, [sp, 56]	// func, func
	str	x1, [sp, 248]	//,
	str	x2, [sp, 256]	//,
	str	x3, [sp, 264]	//,
	str	x4, [sp, 272]	//,
	str	x5, [sp, 280]	//,
	str	x6, [sp, 288]	//,
	str	x7, [sp, 296]	//,
	str	q0, [sp, 112]	//,
	str	q1, [sp, 128]	//,
	str	q2, [sp, 144]	//,
	str	q3, [sp, 160]	//,
	str	q4, [sp, 176]	//,
	str	q5, [sp, 192]	//,
	str	q6, [sp, 208]	//,
	str	q7, [sp, 224]	//,
// varargs-use-dll.c:126: DECLARE_TEST (many_short_vector_16_bytes);
	adrp	x0, :got:__stack_chk_guard	// tmp95,
	ldr	x0, [x0, #:got_lo12:__stack_chk_guard]	// tmp94, tmp95,
	ldr	x1, [x0]	// tmp108,
	str	x1, [sp, 104]	// tmp108, D.7007
	mov	x1, 0	// tmp108
	add	x0, sp, 304	// tmp113,,
	str	x0, [sp, 72]	// tmp113, MEM[(struct  *)&argv].__stack
	add	x0, sp, 304	// tmp114,,
	str	x0, [sp, 80]	// tmp114, MEM[(struct  *)&argv].__gr_top
	add	x0, sp, 240	// tmp97,,
	str	x0, [sp, 88]	// tmp97, MEM[(struct  *)&argv].__vr_top
	mov	w0, -56	// tmp98,
	str	w0, [sp, 96]	// tmp98, MEM[(struct  *)&argv].__gr_offs
	mov	w0, -128	// tmp99,
	str	w0, [sp, 100]	// tmp99, MEM[(struct  *)&argv].__vr_offs
	add	x0, sp, 16	// tmp100,,
	add	x1, sp, 72	// tmp101,,
	ldp	q0, q1, [x1]	// tmp102, tmp103, argv
	stp	q0, q1, [x0]	// tmp102, tmp103,
	add	x0, sp, 16	// tmp104,,
	mov	x1, x0	//, tmp104
	ldr	x0, [sp, 56]	//, func
	bl	use_indirect_va_list_many_short_vector_16_bytes		//
	str	w0, [sp, 68]	//, retval
	ldr	w0, [sp, 68]	// _7, retval
	mov	w1, w0	// <retval>, _7
	adrp	x0, :got:__stack_chk_guard	// tmp107,
	ldr	x0, [x0, #:got_lo12:__stack_chk_guard]	// tmp106, tmp107,
	ldr	x3, [sp, 104]	// tmp109, D.7007
	ldr	x2, [x0]	// tmp110,
	subs	x3, x3, x2	// tmp109, tmp110
	mov	x2, 0	// tmp110
	beq	.L225		//,
	bl	__stack_chk_fail		//
.L225:
	mov	w0, w1	//, <retval>
	ldp	x29, x30, [sp], 304	//,,,
	.cfi_restore 30
	.cfi_restore 29
	.cfi_def_cfa_offset 0
	ret	
	.cfi_endproc
.LFE84:
	.size	test_indirect_va_list_many_short_vector_16_bytes, .-test_indirect_va_list_many_short_vector_16_bytes
	.section	.rodata
	.align	3
.LC30:
	.string	"few_hfa_2_floats"
	.text
	.align	2
	.global	test_va_list_few_hfa_2_floats
	.type	test_va_list_few_hfa_2_floats, %function
test_va_list_few_hfa_2_floats:
.LFB85:
	.cfi_startproc
	stp	x29, x30, [sp, -304]!	//,,,
	.cfi_def_cfa_offset 304
	.cfi_offset 29, -304
	.cfi_offset 30, -296
	mov	x29, sp	//,
	str	x0, [sp, 56]	// func, func
	str	x1, [sp, 248]	//,
	str	x2, [sp, 256]	//,
	str	x3, [sp, 264]	//,
	str	x4, [sp, 272]	//,
	str	x5, [sp, 280]	//,
	str	x6, [sp, 288]	//,
	str	x7, [sp, 296]	//,
	str	q0, [sp, 112]	//,
	str	q1, [sp, 128]	//,
	str	q2, [sp, 144]	//,
	str	q3, [sp, 160]	//,
	str	q4, [sp, 176]	//,
	str	q5, [sp, 192]	//,
	str	q6, [sp, 208]	//,
	str	q7, [sp, 224]	//,
// varargs-use-dll.c:128: DECLARE_TEST (few_hfa_2_floats);
	adrp	x0, :got:__stack_chk_guard	// tmp95,
	ldr	x0, [x0, #:got_lo12:__stack_chk_guard]	// tmp94, tmp95,
	ldr	x1, [x0]	// tmp112,
	str	x1, [sp, 104]	// tmp112, D.7012
	mov	x1, 0	// tmp112
	add	x0, sp, 304	// tmp117,,
	str	x0, [sp, 72]	// tmp117, MEM[(struct  *)&argv].__stack
	add	x0, sp, 304	// tmp118,,
	str	x0, [sp, 80]	// tmp118, MEM[(struct  *)&argv].__gr_top
	add	x0, sp, 240	// tmp97,,
	str	x0, [sp, 88]	// tmp97, MEM[(struct  *)&argv].__vr_top
	mov	w0, -56	// tmp98,
	str	w0, [sp, 96]	// tmp98, MEM[(struct  *)&argv].__gr_offs
	mov	w0, -128	// tmp99,
	str	w0, [sp, 100]	// tmp99, MEM[(struct  *)&argv].__vr_offs
	add	x0, sp, 16	// tmp100,,
	add	x1, sp, 72	// tmp101,,
	ldp	q0, q1, [x1]	// tmp102, tmp103, argv
	stp	q0, q1, [x0]	// tmp102, tmp103,
	add	x0, sp, 16	// tmp104,,
	ldr	x2, [sp, 56]	// tmp105, func
	mov	x1, x0	//, tmp104
	adrp	x0, .LC30	// tmp106,
	add	x0, x0, :lo12:.LC30	//, tmp106,
	blr	x2		// tmp105
	str	w0, [sp, 68]	//, retval
	ldr	w2, [sp, 68]	//, retval
	adrp	x0, .LC30	// tmp107,
	add	x1, x0, :lo12:.LC30	//, tmp107,
	adrp	x0, .LC1	// tmp108,
	add	x0, x0, :lo12:.LC1	//, tmp108,
	bl	printf		//
	ldr	w0, [sp, 68]	// _8, retval
	mov	w1, w0	// <retval>, _8
	adrp	x0, :got:__stack_chk_guard	// tmp111,
	ldr	x0, [x0, #:got_lo12:__stack_chk_guard]	// tmp110, tmp111,
	ldr	x3, [sp, 104]	// tmp113, D.7012
	ldr	x2, [x0]	// tmp114,
	subs	x3, x3, x2	// tmp113, tmp114
	mov	x2, 0	// tmp114
	beq	.L228		//,
	bl	__stack_chk_fail		//
.L228:
	mov	w0, w1	//, <retval>
	ldp	x29, x30, [sp], 304	//,,,
	.cfi_restore 30
	.cfi_restore 29
	.cfi_def_cfa_offset 0
	ret	
	.cfi_endproc
.LFE85:
	.size	test_va_list_few_hfa_2_floats, .-test_va_list_few_hfa_2_floats
	.align	2
	.global	use_indirect_va_list_few_hfa_2_floats
	.type	use_indirect_va_list_few_hfa_2_floats, %function
use_indirect_va_list_few_hfa_2_floats:
.LFB86:
	.cfi_startproc
	stp	x29, x30, [sp, -96]!	//,,,
	.cfi_def_cfa_offset 96
	.cfi_offset 29, -96
	.cfi_offset 30, -88
	mov	x29, sp	//,
	str	x19, [sp, 16]	//,
	.cfi_offset 19, -80
	str	x0, [sp, 72]	// func, func
	mov	x19, x1	// tmp94,
// varargs-use-dll.c:128: DECLARE_TEST (few_hfa_2_floats);
	add	x0, sp, 32	// tmp95,,
	mov	x1, x19	// tmp96, tmp94
	ldp	q0, q1, [x1]	// tmp97, tmp98, argv
	stp	q0, q1, [x0]	// tmp97, tmp98,
	add	x0, sp, 32	// tmp99,,
	ldr	x2, [sp, 72]	// tmp100, func
	mov	x1, x0	//, tmp99
	adrp	x0, .LC30	// tmp101,
	add	x0, x0, :lo12:.LC30	//, tmp101,
	blr	x2		// tmp100
	str	w0, [sp, 92]	//, retval
	ldr	w2, [sp, 92]	//, retval
	adrp	x0, .LC30	// tmp102,
	add	x1, x0, :lo12:.LC30	//, tmp102,
	adrp	x0, .LC2	// tmp103,
	add	x0, x0, :lo12:.LC2	//, tmp103,
	bl	printf		//
	ldr	w0, [sp, 92]	// _6, retval
	ldr	x19, [sp, 16]	//,
	ldp	x29, x30, [sp], 96	//,,,
	.cfi_restore 30
	.cfi_restore 29
	.cfi_restore 19
	.cfi_def_cfa_offset 0
	ret	
	.cfi_endproc
.LFE86:
	.size	use_indirect_va_list_few_hfa_2_floats, .-use_indirect_va_list_few_hfa_2_floats
	.align	2
	.global	test_indirect_va_list_few_hfa_2_floats
	.type	test_indirect_va_list_few_hfa_2_floats, %function
test_indirect_va_list_few_hfa_2_floats:
.LFB87:
	.cfi_startproc
	stp	x29, x30, [sp, -304]!	//,,,
	.cfi_def_cfa_offset 304
	.cfi_offset 29, -304
	.cfi_offset 30, -296
	mov	x29, sp	//,
	str	x0, [sp, 56]	// func, func
	str	x1, [sp, 248]	//,
	str	x2, [sp, 256]	//,
	str	x3, [sp, 264]	//,
	str	x4, [sp, 272]	//,
	str	x5, [sp, 280]	//,
	str	x6, [sp, 288]	//,
	str	x7, [sp, 296]	//,
	str	q0, [sp, 112]	//,
	str	q1, [sp, 128]	//,
	str	q2, [sp, 144]	//,
	str	q3, [sp, 160]	//,
	str	q4, [sp, 176]	//,
	str	q5, [sp, 192]	//,
	str	q6, [sp, 208]	//,
	str	q7, [sp, 224]	//,
// varargs-use-dll.c:128: DECLARE_TEST (few_hfa_2_floats);
	adrp	x0, :got:__stack_chk_guard	// tmp95,
	ldr	x0, [x0, #:got_lo12:__stack_chk_guard]	// tmp94, tmp95,
	ldr	x1, [x0]	// tmp108,
	str	x1, [sp, 104]	// tmp108, D.7019
	mov	x1, 0	// tmp108
	add	x0, sp, 304	// tmp113,,
	str	x0, [sp, 72]	// tmp113, MEM[(struct  *)&argv].__stack
	add	x0, sp, 304	// tmp114,,
	str	x0, [sp, 80]	// tmp114, MEM[(struct  *)&argv].__gr_top
	add	x0, sp, 240	// tmp97,,
	str	x0, [sp, 88]	// tmp97, MEM[(struct  *)&argv].__vr_top
	mov	w0, -56	// tmp98,
	str	w0, [sp, 96]	// tmp98, MEM[(struct  *)&argv].__gr_offs
	mov	w0, -128	// tmp99,
	str	w0, [sp, 100]	// tmp99, MEM[(struct  *)&argv].__vr_offs
	add	x0, sp, 16	// tmp100,,
	add	x1, sp, 72	// tmp101,,
	ldp	q0, q1, [x1]	// tmp102, tmp103, argv
	stp	q0, q1, [x0]	// tmp102, tmp103,
	add	x0, sp, 16	// tmp104,,
	mov	x1, x0	//, tmp104
	ldr	x0, [sp, 56]	//, func
	bl	use_indirect_va_list_few_hfa_2_floats		//
	str	w0, [sp, 68]	//, retval
	ldr	w0, [sp, 68]	// _7, retval
	mov	w1, w0	// <retval>, _7
	adrp	x0, :got:__stack_chk_guard	// tmp107,
	ldr	x0, [x0, #:got_lo12:__stack_chk_guard]	// tmp106, tmp107,
	ldr	x3, [sp, 104]	// tmp109, D.7019
	ldr	x2, [x0]	// tmp110,
	subs	x3, x3, x2	// tmp109, tmp110
	mov	x2, 0	// tmp110
	beq	.L233		//,
	bl	__stack_chk_fail		//
.L233:
	mov	w0, w1	//, <retval>
	ldp	x29, x30, [sp], 304	//,,,
	.cfi_restore 30
	.cfi_restore 29
	.cfi_def_cfa_offset 0
	ret	
	.cfi_endproc
.LFE87:
	.size	test_indirect_va_list_few_hfa_2_floats, .-test_indirect_va_list_few_hfa_2_floats
	.section	.rodata
	.align	3
.LC31:
	.string	"several_hfa_2_floats"
	.text
	.align	2
	.global	test_va_list_several_hfa_2_floats
	.type	test_va_list_several_hfa_2_floats, %function
test_va_list_several_hfa_2_floats:
.LFB88:
	.cfi_startproc
	stp	x29, x30, [sp, -304]!	//,,,
	.cfi_def_cfa_offset 304
	.cfi_offset 29, -304
	.cfi_offset 30, -296
	mov	x29, sp	//,
	str	x0, [sp, 56]	// func, func
	str	x1, [sp, 248]	//,
	str	x2, [sp, 256]	//,
	str	x3, [sp, 264]	//,
	str	x4, [sp, 272]	//,
	str	x5, [sp, 280]	//,
	str	x6, [sp, 288]	//,
	str	x7, [sp, 296]	//,
	str	q0, [sp, 112]	//,
	str	q1, [sp, 128]	//,
	str	q2, [sp, 144]	//,
	str	q3, [sp, 160]	//,
	str	q4, [sp, 176]	//,
	str	q5, [sp, 192]	//,
	str	q6, [sp, 208]	//,
	str	q7, [sp, 224]	//,
// varargs-use-dll.c:129: DECLARE_TEST (several_hfa_2_floats);
	adrp	x0, :got:__stack_chk_guard	// tmp95,
	ldr	x0, [x0, #:got_lo12:__stack_chk_guard]	// tmp94, tmp95,
	ldr	x1, [x0]	// tmp112,
	str	x1, [sp, 104]	// tmp112, D.7024
	mov	x1, 0	// tmp112
	add	x0, sp, 304	// tmp117,,
	str	x0, [sp, 72]	// tmp117, MEM[(struct  *)&argv].__stack
	add	x0, sp, 304	// tmp118,,
	str	x0, [sp, 80]	// tmp118, MEM[(struct  *)&argv].__gr_top
	add	x0, sp, 240	// tmp97,,
	str	x0, [sp, 88]	// tmp97, MEM[(struct  *)&argv].__vr_top
	mov	w0, -56	// tmp98,
	str	w0, [sp, 96]	// tmp98, MEM[(struct  *)&argv].__gr_offs
	mov	w0, -128	// tmp99,
	str	w0, [sp, 100]	// tmp99, MEM[(struct  *)&argv].__vr_offs
	add	x0, sp, 16	// tmp100,,
	add	x1, sp, 72	// tmp101,,
	ldp	q0, q1, [x1]	// tmp102, tmp103, argv
	stp	q0, q1, [x0]	// tmp102, tmp103,
	add	x0, sp, 16	// tmp104,,
	ldr	x2, [sp, 56]	// tmp105, func
	mov	x1, x0	//, tmp104
	adrp	x0, .LC31	// tmp106,
	add	x0, x0, :lo12:.LC31	//, tmp106,
	blr	x2		// tmp105
	str	w0, [sp, 68]	//, retval
	ldr	w2, [sp, 68]	//, retval
	adrp	x0, .LC31	// tmp107,
	add	x1, x0, :lo12:.LC31	//, tmp107,
	adrp	x0, .LC1	// tmp108,
	add	x0, x0, :lo12:.LC1	//, tmp108,
	bl	printf		//
	ldr	w0, [sp, 68]	// _8, retval
	mov	w1, w0	// <retval>, _8
	adrp	x0, :got:__stack_chk_guard	// tmp111,
	ldr	x0, [x0, #:got_lo12:__stack_chk_guard]	// tmp110, tmp111,
	ldr	x3, [sp, 104]	// tmp113, D.7024
	ldr	x2, [x0]	// tmp114,
	subs	x3, x3, x2	// tmp113, tmp114
	mov	x2, 0	// tmp114
	beq	.L236		//,
	bl	__stack_chk_fail		//
.L236:
	mov	w0, w1	//, <retval>
	ldp	x29, x30, [sp], 304	//,,,
	.cfi_restore 30
	.cfi_restore 29
	.cfi_def_cfa_offset 0
	ret	
	.cfi_endproc
.LFE88:
	.size	test_va_list_several_hfa_2_floats, .-test_va_list_several_hfa_2_floats
	.align	2
	.global	use_indirect_va_list_several_hfa_2_floats
	.type	use_indirect_va_list_several_hfa_2_floats, %function
use_indirect_va_list_several_hfa_2_floats:
.LFB89:
	.cfi_startproc
	stp	x29, x30, [sp, -96]!	//,,,
	.cfi_def_cfa_offset 96
	.cfi_offset 29, -96
	.cfi_offset 30, -88
	mov	x29, sp	//,
	str	x19, [sp, 16]	//,
	.cfi_offset 19, -80
	str	x0, [sp, 72]	// func, func
	mov	x19, x1	// tmp94,
// varargs-use-dll.c:129: DECLARE_TEST (several_hfa_2_floats);
	add	x0, sp, 32	// tmp95,,
	mov	x1, x19	// tmp96, tmp94
	ldp	q0, q1, [x1]	// tmp97, tmp98, argv
	stp	q0, q1, [x0]	// tmp97, tmp98,
	add	x0, sp, 32	// tmp99,,
	ldr	x2, [sp, 72]	// tmp100, func
	mov	x1, x0	//, tmp99
	adrp	x0, .LC31	// tmp101,
	add	x0, x0, :lo12:.LC31	//, tmp101,
	blr	x2		// tmp100
	str	w0, [sp, 92]	//, retval
	ldr	w2, [sp, 92]	//, retval
	adrp	x0, .LC31	// tmp102,
	add	x1, x0, :lo12:.LC31	//, tmp102,
	adrp	x0, .LC2	// tmp103,
	add	x0, x0, :lo12:.LC2	//, tmp103,
	bl	printf		//
	ldr	w0, [sp, 92]	// _6, retval
	ldr	x19, [sp, 16]	//,
	ldp	x29, x30, [sp], 96	//,,,
	.cfi_restore 30
	.cfi_restore 29
	.cfi_restore 19
	.cfi_def_cfa_offset 0
	ret	
	.cfi_endproc
.LFE89:
	.size	use_indirect_va_list_several_hfa_2_floats, .-use_indirect_va_list_several_hfa_2_floats
	.align	2
	.global	test_indirect_va_list_several_hfa_2_floats
	.type	test_indirect_va_list_several_hfa_2_floats, %function
test_indirect_va_list_several_hfa_2_floats:
.LFB90:
	.cfi_startproc
	stp	x29, x30, [sp, -304]!	//,,,
	.cfi_def_cfa_offset 304
	.cfi_offset 29, -304
	.cfi_offset 30, -296
	mov	x29, sp	//,
	str	x0, [sp, 56]	// func, func
	str	x1, [sp, 248]	//,
	str	x2, [sp, 256]	//,
	str	x3, [sp, 264]	//,
	str	x4, [sp, 272]	//,
	str	x5, [sp, 280]	//,
	str	x6, [sp, 288]	//,
	str	x7, [sp, 296]	//,
	str	q0, [sp, 112]	//,
	str	q1, [sp, 128]	//,
	str	q2, [sp, 144]	//,
	str	q3, [sp, 160]	//,
	str	q4, [sp, 176]	//,
	str	q5, [sp, 192]	//,
	str	q6, [sp, 208]	//,
	str	q7, [sp, 224]	//,
// varargs-use-dll.c:129: DECLARE_TEST (several_hfa_2_floats);
	adrp	x0, :got:__stack_chk_guard	// tmp95,
	ldr	x0, [x0, #:got_lo12:__stack_chk_guard]	// tmp94, tmp95,
	ldr	x1, [x0]	// tmp108,
	str	x1, [sp, 104]	// tmp108, D.7031
	mov	x1, 0	// tmp108
	add	x0, sp, 304	// tmp113,,
	str	x0, [sp, 72]	// tmp113, MEM[(struct  *)&argv].__stack
	add	x0, sp, 304	// tmp114,,
	str	x0, [sp, 80]	// tmp114, MEM[(struct  *)&argv].__gr_top
	add	x0, sp, 240	// tmp97,,
	str	x0, [sp, 88]	// tmp97, MEM[(struct  *)&argv].__vr_top
	mov	w0, -56	// tmp98,
	str	w0, [sp, 96]	// tmp98, MEM[(struct  *)&argv].__gr_offs
	mov	w0, -128	// tmp99,
	str	w0, [sp, 100]	// tmp99, MEM[(struct  *)&argv].__vr_offs
	add	x0, sp, 16	// tmp100,,
	add	x1, sp, 72	// tmp101,,
	ldp	q0, q1, [x1]	// tmp102, tmp103, argv
	stp	q0, q1, [x0]	// tmp102, tmp103,
	add	x0, sp, 16	// tmp104,,
	mov	x1, x0	//, tmp104
	ldr	x0, [sp, 56]	//, func
	bl	use_indirect_va_list_several_hfa_2_floats		//
	str	w0, [sp, 68]	//, retval
	ldr	w0, [sp, 68]	// _7, retval
	mov	w1, w0	// <retval>, _7
	adrp	x0, :got:__stack_chk_guard	// tmp107,
	ldr	x0, [x0, #:got_lo12:__stack_chk_guard]	// tmp106, tmp107,
	ldr	x3, [sp, 104]	// tmp109, D.7031
	ldr	x2, [x0]	// tmp110,
	subs	x3, x3, x2	// tmp109, tmp110
	mov	x2, 0	// tmp110
	beq	.L241		//,
	bl	__stack_chk_fail		//
.L241:
	mov	w0, w1	//, <retval>
	ldp	x29, x30, [sp], 304	//,,,
	.cfi_restore 30
	.cfi_restore 29
	.cfi_def_cfa_offset 0
	ret	
	.cfi_endproc
.LFE90:
	.size	test_indirect_va_list_several_hfa_2_floats, .-test_indirect_va_list_several_hfa_2_floats
	.section	.rodata
	.align	3
.LC32:
	.string	"many_hfa_2_floats"
	.text
	.align	2
	.global	test_va_list_many_hfa_2_floats
	.type	test_va_list_many_hfa_2_floats, %function
test_va_list_many_hfa_2_floats:
.LFB91:
	.cfi_startproc
	stp	x29, x30, [sp, -304]!	//,,,
	.cfi_def_cfa_offset 304
	.cfi_offset 29, -304
	.cfi_offset 30, -296
	mov	x29, sp	//,
	str	x0, [sp, 56]	// func, func
	str	x1, [sp, 248]	//,
	str	x2, [sp, 256]	//,
	str	x3, [sp, 264]	//,
	str	x4, [sp, 272]	//,
	str	x5, [sp, 280]	//,
	str	x6, [sp, 288]	//,
	str	x7, [sp, 296]	//,
	str	q0, [sp, 112]	//,
	str	q1, [sp, 128]	//,
	str	q2, [sp, 144]	//,
	str	q3, [sp, 160]	//,
	str	q4, [sp, 176]	//,
	str	q5, [sp, 192]	//,
	str	q6, [sp, 208]	//,
	str	q7, [sp, 224]	//,
// varargs-use-dll.c:130: DECLARE_TEST (many_hfa_2_floats);
	adrp	x0, :got:__stack_chk_guard	// tmp95,
	ldr	x0, [x0, #:got_lo12:__stack_chk_guard]	// tmp94, tmp95,
	ldr	x1, [x0]	// tmp112,
	str	x1, [sp, 104]	// tmp112, D.7036
	mov	x1, 0	// tmp112
	add	x0, sp, 304	// tmp117,,
	str	x0, [sp, 72]	// tmp117, MEM[(struct  *)&argv].__stack
	add	x0, sp, 304	// tmp118,,
	str	x0, [sp, 80]	// tmp118, MEM[(struct  *)&argv].__gr_top
	add	x0, sp, 240	// tmp97,,
	str	x0, [sp, 88]	// tmp97, MEM[(struct  *)&argv].__vr_top
	mov	w0, -56	// tmp98,
	str	w0, [sp, 96]	// tmp98, MEM[(struct  *)&argv].__gr_offs
	mov	w0, -128	// tmp99,
	str	w0, [sp, 100]	// tmp99, MEM[(struct  *)&argv].__vr_offs
	add	x0, sp, 16	// tmp100,,
	add	x1, sp, 72	// tmp101,,
	ldp	q0, q1, [x1]	// tmp102, tmp103, argv
	stp	q0, q1, [x0]	// tmp102, tmp103,
	add	x0, sp, 16	// tmp104,,
	ldr	x2, [sp, 56]	// tmp105, func
	mov	x1, x0	//, tmp104
	adrp	x0, .LC32	// tmp106,
	add	x0, x0, :lo12:.LC32	//, tmp106,
	blr	x2		// tmp105
	str	w0, [sp, 68]	//, retval
	ldr	w2, [sp, 68]	//, retval
	adrp	x0, .LC32	// tmp107,
	add	x1, x0, :lo12:.LC32	//, tmp107,
	adrp	x0, .LC1	// tmp108,
	add	x0, x0, :lo12:.LC1	//, tmp108,
	bl	printf		//
	ldr	w0, [sp, 68]	// _8, retval
	mov	w1, w0	// <retval>, _8
	adrp	x0, :got:__stack_chk_guard	// tmp111,
	ldr	x0, [x0, #:got_lo12:__stack_chk_guard]	// tmp110, tmp111,
	ldr	x3, [sp, 104]	// tmp113, D.7036
	ldr	x2, [x0]	// tmp114,
	subs	x3, x3, x2	// tmp113, tmp114
	mov	x2, 0	// tmp114
	beq	.L244		//,
	bl	__stack_chk_fail		//
.L244:
	mov	w0, w1	//, <retval>
	ldp	x29, x30, [sp], 304	//,,,
	.cfi_restore 30
	.cfi_restore 29
	.cfi_def_cfa_offset 0
	ret	
	.cfi_endproc
.LFE91:
	.size	test_va_list_many_hfa_2_floats, .-test_va_list_many_hfa_2_floats
	.align	2
	.global	use_indirect_va_list_many_hfa_2_floats
	.type	use_indirect_va_list_many_hfa_2_floats, %function
use_indirect_va_list_many_hfa_2_floats:
.LFB92:
	.cfi_startproc
	stp	x29, x30, [sp, -96]!	//,,,
	.cfi_def_cfa_offset 96
	.cfi_offset 29, -96
	.cfi_offset 30, -88
	mov	x29, sp	//,
	str	x19, [sp, 16]	//,
	.cfi_offset 19, -80
	str	x0, [sp, 72]	// func, func
	mov	x19, x1	// tmp94,
// varargs-use-dll.c:130: DECLARE_TEST (many_hfa_2_floats);
	add	x0, sp, 32	// tmp95,,
	mov	x1, x19	// tmp96, tmp94
	ldp	q0, q1, [x1]	// tmp97, tmp98, argv
	stp	q0, q1, [x0]	// tmp97, tmp98,
	add	x0, sp, 32	// tmp99,,
	ldr	x2, [sp, 72]	// tmp100, func
	mov	x1, x0	//, tmp99
	adrp	x0, .LC32	// tmp101,
	add	x0, x0, :lo12:.LC32	//, tmp101,
	blr	x2		// tmp100
	str	w0, [sp, 92]	//, retval
	ldr	w2, [sp, 92]	//, retval
	adrp	x0, .LC32	// tmp102,
	add	x1, x0, :lo12:.LC32	//, tmp102,
	adrp	x0, .LC2	// tmp103,
	add	x0, x0, :lo12:.LC2	//, tmp103,
	bl	printf		//
	ldr	w0, [sp, 92]	// _6, retval
	ldr	x19, [sp, 16]	//,
	ldp	x29, x30, [sp], 96	//,,,
	.cfi_restore 30
	.cfi_restore 29
	.cfi_restore 19
	.cfi_def_cfa_offset 0
	ret	
	.cfi_endproc
.LFE92:
	.size	use_indirect_va_list_many_hfa_2_floats, .-use_indirect_va_list_many_hfa_2_floats
	.align	2
	.global	test_indirect_va_list_many_hfa_2_floats
	.type	test_indirect_va_list_many_hfa_2_floats, %function
test_indirect_va_list_many_hfa_2_floats:
.LFB93:
	.cfi_startproc
	stp	x29, x30, [sp, -304]!	//,,,
	.cfi_def_cfa_offset 304
	.cfi_offset 29, -304
	.cfi_offset 30, -296
	mov	x29, sp	//,
	str	x0, [sp, 56]	// func, func
	str	x1, [sp, 248]	//,
	str	x2, [sp, 256]	//,
	str	x3, [sp, 264]	//,
	str	x4, [sp, 272]	//,
	str	x5, [sp, 280]	//,
	str	x6, [sp, 288]	//,
	str	x7, [sp, 296]	//,
	str	q0, [sp, 112]	//,
	str	q1, [sp, 128]	//,
	str	q2, [sp, 144]	//,
	str	q3, [sp, 160]	//,
	str	q4, [sp, 176]	//,
	str	q5, [sp, 192]	//,
	str	q6, [sp, 208]	//,
	str	q7, [sp, 224]	//,
// varargs-use-dll.c:130: DECLARE_TEST (many_hfa_2_floats);
	adrp	x0, :got:__stack_chk_guard	// tmp95,
	ldr	x0, [x0, #:got_lo12:__stack_chk_guard]	// tmp94, tmp95,
	ldr	x1, [x0]	// tmp108,
	str	x1, [sp, 104]	// tmp108, D.7043
	mov	x1, 0	// tmp108
	add	x0, sp, 304	// tmp113,,
	str	x0, [sp, 72]	// tmp113, MEM[(struct  *)&argv].__stack
	add	x0, sp, 304	// tmp114,,
	str	x0, [sp, 80]	// tmp114, MEM[(struct  *)&argv].__gr_top
	add	x0, sp, 240	// tmp97,,
	str	x0, [sp, 88]	// tmp97, MEM[(struct  *)&argv].__vr_top
	mov	w0, -56	// tmp98,
	str	w0, [sp, 96]	// tmp98, MEM[(struct  *)&argv].__gr_offs
	mov	w0, -128	// tmp99,
	str	w0, [sp, 100]	// tmp99, MEM[(struct  *)&argv].__vr_offs
	add	x0, sp, 16	// tmp100,,
	add	x1, sp, 72	// tmp101,,
	ldp	q0, q1, [x1]	// tmp102, tmp103, argv
	stp	q0, q1, [x0]	// tmp102, tmp103,
	add	x0, sp, 16	// tmp104,,
	mov	x1, x0	//, tmp104
	ldr	x0, [sp, 56]	//, func
	bl	use_indirect_va_list_many_hfa_2_floats		//
	str	w0, [sp, 68]	//, retval
	ldr	w0, [sp, 68]	// _7, retval
	mov	w1, w0	// <retval>, _7
	adrp	x0, :got:__stack_chk_guard	// tmp107,
	ldr	x0, [x0, #:got_lo12:__stack_chk_guard]	// tmp106, tmp107,
	ldr	x3, [sp, 104]	// tmp109, D.7043
	ldr	x2, [x0]	// tmp110,
	subs	x3, x3, x2	// tmp109, tmp110
	mov	x2, 0	// tmp110
	beq	.L249		//,
	bl	__stack_chk_fail		//
.L249:
	mov	w0, w1	//, <retval>
	ldp	x29, x30, [sp], 304	//,,,
	.cfi_restore 30
	.cfi_restore 29
	.cfi_def_cfa_offset 0
	ret	
	.cfi_endproc
.LFE93:
	.size	test_indirect_va_list_many_hfa_2_floats, .-test_indirect_va_list_many_hfa_2_floats
	.section	.rodata
	.align	3
.LC33:
	.string	"few_hfa_4_floats"
	.text
	.align	2
	.global	test_va_list_few_hfa_4_floats
	.type	test_va_list_few_hfa_4_floats, %function
test_va_list_few_hfa_4_floats:
.LFB94:
	.cfi_startproc
	stp	x29, x30, [sp, -304]!	//,,,
	.cfi_def_cfa_offset 304
	.cfi_offset 29, -304
	.cfi_offset 30, -296
	mov	x29, sp	//,
	str	x0, [sp, 56]	// func, func
	str	x1, [sp, 248]	//,
	str	x2, [sp, 256]	//,
	str	x3, [sp, 264]	//,
	str	x4, [sp, 272]	//,
	str	x5, [sp, 280]	//,
	str	x6, [sp, 288]	//,
	str	x7, [sp, 296]	//,
	str	q0, [sp, 112]	//,
	str	q1, [sp, 128]	//,
	str	q2, [sp, 144]	//,
	str	q3, [sp, 160]	//,
	str	q4, [sp, 176]	//,
	str	q5, [sp, 192]	//,
	str	q6, [sp, 208]	//,
	str	q7, [sp, 224]	//,
// varargs-use-dll.c:132: DECLARE_TEST (few_hfa_4_floats);
	adrp	x0, :got:__stack_chk_guard	// tmp95,
	ldr	x0, [x0, #:got_lo12:__stack_chk_guard]	// tmp94, tmp95,
	ldr	x1, [x0]	// tmp112,
	str	x1, [sp, 104]	// tmp112, D.7048
	mov	x1, 0	// tmp112
	add	x0, sp, 304	// tmp117,,
	str	x0, [sp, 72]	// tmp117, MEM[(struct  *)&argv].__stack
	add	x0, sp, 304	// tmp118,,
	str	x0, [sp, 80]	// tmp118, MEM[(struct  *)&argv].__gr_top
	add	x0, sp, 240	// tmp97,,
	str	x0, [sp, 88]	// tmp97, MEM[(struct  *)&argv].__vr_top
	mov	w0, -56	// tmp98,
	str	w0, [sp, 96]	// tmp98, MEM[(struct  *)&argv].__gr_offs
	mov	w0, -128	// tmp99,
	str	w0, [sp, 100]	// tmp99, MEM[(struct  *)&argv].__vr_offs
	add	x0, sp, 16	// tmp100,,
	add	x1, sp, 72	// tmp101,,
	ldp	q0, q1, [x1]	// tmp102, tmp103, argv
	stp	q0, q1, [x0]	// tmp102, tmp103,
	add	x0, sp, 16	// tmp104,,
	ldr	x2, [sp, 56]	// tmp105, func
	mov	x1, x0	//, tmp104
	adrp	x0, .LC33	// tmp106,
	add	x0, x0, :lo12:.LC33	//, tmp106,
	blr	x2		// tmp105
	str	w0, [sp, 68]	//, retval
	ldr	w2, [sp, 68]	//, retval
	adrp	x0, .LC33	// tmp107,
	add	x1, x0, :lo12:.LC33	//, tmp107,
	adrp	x0, .LC1	// tmp108,
	add	x0, x0, :lo12:.LC1	//, tmp108,
	bl	printf		//
	ldr	w0, [sp, 68]	// _8, retval
	mov	w1, w0	// <retval>, _8
	adrp	x0, :got:__stack_chk_guard	// tmp111,
	ldr	x0, [x0, #:got_lo12:__stack_chk_guard]	// tmp110, tmp111,
	ldr	x3, [sp, 104]	// tmp113, D.7048
	ldr	x2, [x0]	// tmp114,
	subs	x3, x3, x2	// tmp113, tmp114
	mov	x2, 0	// tmp114
	beq	.L252		//,
	bl	__stack_chk_fail		//
.L252:
	mov	w0, w1	//, <retval>
	ldp	x29, x30, [sp], 304	//,,,
	.cfi_restore 30
	.cfi_restore 29
	.cfi_def_cfa_offset 0
	ret	
	.cfi_endproc
.LFE94:
	.size	test_va_list_few_hfa_4_floats, .-test_va_list_few_hfa_4_floats
	.align	2
	.global	use_indirect_va_list_few_hfa_4_floats
	.type	use_indirect_va_list_few_hfa_4_floats, %function
use_indirect_va_list_few_hfa_4_floats:
.LFB95:
	.cfi_startproc
	stp	x29, x30, [sp, -96]!	//,,,
	.cfi_def_cfa_offset 96
	.cfi_offset 29, -96
	.cfi_offset 30, -88
	mov	x29, sp	//,
	str	x19, [sp, 16]	//,
	.cfi_offset 19, -80
	str	x0, [sp, 72]	// func, func
	mov	x19, x1	// tmp94,
// varargs-use-dll.c:132: DECLARE_TEST (few_hfa_4_floats);
	add	x0, sp, 32	// tmp95,,
	mov	x1, x19	// tmp96, tmp94
	ldp	q0, q1, [x1]	// tmp97, tmp98, argv
	stp	q0, q1, [x0]	// tmp97, tmp98,
	add	x0, sp, 32	// tmp99,,
	ldr	x2, [sp, 72]	// tmp100, func
	mov	x1, x0	//, tmp99
	adrp	x0, .LC33	// tmp101,
	add	x0, x0, :lo12:.LC33	//, tmp101,
	blr	x2		// tmp100
	str	w0, [sp, 92]	//, retval
	ldr	w2, [sp, 92]	//, retval
	adrp	x0, .LC33	// tmp102,
	add	x1, x0, :lo12:.LC33	//, tmp102,
	adrp	x0, .LC2	// tmp103,
	add	x0, x0, :lo12:.LC2	//, tmp103,
	bl	printf		//
	ldr	w0, [sp, 92]	// _6, retval
	ldr	x19, [sp, 16]	//,
	ldp	x29, x30, [sp], 96	//,,,
	.cfi_restore 30
	.cfi_restore 29
	.cfi_restore 19
	.cfi_def_cfa_offset 0
	ret	
	.cfi_endproc
.LFE95:
	.size	use_indirect_va_list_few_hfa_4_floats, .-use_indirect_va_list_few_hfa_4_floats
	.align	2
	.global	test_indirect_va_list_few_hfa_4_floats
	.type	test_indirect_va_list_few_hfa_4_floats, %function
test_indirect_va_list_few_hfa_4_floats:
.LFB96:
	.cfi_startproc
	stp	x29, x30, [sp, -304]!	//,,,
	.cfi_def_cfa_offset 304
	.cfi_offset 29, -304
	.cfi_offset 30, -296
	mov	x29, sp	//,
	str	x0, [sp, 56]	// func, func
	str	x1, [sp, 248]	//,
	str	x2, [sp, 256]	//,
	str	x3, [sp, 264]	//,
	str	x4, [sp, 272]	//,
	str	x5, [sp, 280]	//,
	str	x6, [sp, 288]	//,
	str	x7, [sp, 296]	//,
	str	q0, [sp, 112]	//,
	str	q1, [sp, 128]	//,
	str	q2, [sp, 144]	//,
	str	q3, [sp, 160]	//,
	str	q4, [sp, 176]	//,
	str	q5, [sp, 192]	//,
	str	q6, [sp, 208]	//,
	str	q7, [sp, 224]	//,
// varargs-use-dll.c:132: DECLARE_TEST (few_hfa_4_floats);
	adrp	x0, :got:__stack_chk_guard	// tmp95,
	ldr	x0, [x0, #:got_lo12:__stack_chk_guard]	// tmp94, tmp95,
	ldr	x1, [x0]	// tmp108,
	str	x1, [sp, 104]	// tmp108, D.7055
	mov	x1, 0	// tmp108
	add	x0, sp, 304	// tmp113,,
	str	x0, [sp, 72]	// tmp113, MEM[(struct  *)&argv].__stack
	add	x0, sp, 304	// tmp114,,
	str	x0, [sp, 80]	// tmp114, MEM[(struct  *)&argv].__gr_top
	add	x0, sp, 240	// tmp97,,
	str	x0, [sp, 88]	// tmp97, MEM[(struct  *)&argv].__vr_top
	mov	w0, -56	// tmp98,
	str	w0, [sp, 96]	// tmp98, MEM[(struct  *)&argv].__gr_offs
	mov	w0, -128	// tmp99,
	str	w0, [sp, 100]	// tmp99, MEM[(struct  *)&argv].__vr_offs
	add	x0, sp, 16	// tmp100,,
	add	x1, sp, 72	// tmp101,,
	ldp	q0, q1, [x1]	// tmp102, tmp103, argv
	stp	q0, q1, [x0]	// tmp102, tmp103,
	add	x0, sp, 16	// tmp104,,
	mov	x1, x0	//, tmp104
	ldr	x0, [sp, 56]	//, func
	bl	use_indirect_va_list_few_hfa_4_floats		//
	str	w0, [sp, 68]	//, retval
	ldr	w0, [sp, 68]	// _7, retval
	mov	w1, w0	// <retval>, _7
	adrp	x0, :got:__stack_chk_guard	// tmp107,
	ldr	x0, [x0, #:got_lo12:__stack_chk_guard]	// tmp106, tmp107,
	ldr	x3, [sp, 104]	// tmp109, D.7055
	ldr	x2, [x0]	// tmp110,
	subs	x3, x3, x2	// tmp109, tmp110
	mov	x2, 0	// tmp110
	beq	.L257		//,
	bl	__stack_chk_fail		//
.L257:
	mov	w0, w1	//, <retval>
	ldp	x29, x30, [sp], 304	//,,,
	.cfi_restore 30
	.cfi_restore 29
	.cfi_def_cfa_offset 0
	ret	
	.cfi_endproc
.LFE96:
	.size	test_indirect_va_list_few_hfa_4_floats, .-test_indirect_va_list_few_hfa_4_floats
	.section	.rodata
	.align	3
.LC34:
	.string	"several_hfa_4_floats"
	.text
	.align	2
	.global	test_va_list_several_hfa_4_floats
	.type	test_va_list_several_hfa_4_floats, %function
test_va_list_several_hfa_4_floats:
.LFB97:
	.cfi_startproc
	stp	x29, x30, [sp, -304]!	//,,,
	.cfi_def_cfa_offset 304
	.cfi_offset 29, -304
	.cfi_offset 30, -296
	mov	x29, sp	//,
	str	x0, [sp, 56]	// func, func
	str	x1, [sp, 248]	//,
	str	x2, [sp, 256]	//,
	str	x3, [sp, 264]	//,
	str	x4, [sp, 272]	//,
	str	x5, [sp, 280]	//,
	str	x6, [sp, 288]	//,
	str	x7, [sp, 296]	//,
	str	q0, [sp, 112]	//,
	str	q1, [sp, 128]	//,
	str	q2, [sp, 144]	//,
	str	q3, [sp, 160]	//,
	str	q4, [sp, 176]	//,
	str	q5, [sp, 192]	//,
	str	q6, [sp, 208]	//,
	str	q7, [sp, 224]	//,
// varargs-use-dll.c:133: DECLARE_TEST (several_hfa_4_floats);
	adrp	x0, :got:__stack_chk_guard	// tmp95,
	ldr	x0, [x0, #:got_lo12:__stack_chk_guard]	// tmp94, tmp95,
	ldr	x1, [x0]	// tmp112,
	str	x1, [sp, 104]	// tmp112, D.7060
	mov	x1, 0	// tmp112
	add	x0, sp, 304	// tmp117,,
	str	x0, [sp, 72]	// tmp117, MEM[(struct  *)&argv].__stack
	add	x0, sp, 304	// tmp118,,
	str	x0, [sp, 80]	// tmp118, MEM[(struct  *)&argv].__gr_top
	add	x0, sp, 240	// tmp97,,
	str	x0, [sp, 88]	// tmp97, MEM[(struct  *)&argv].__vr_top
	mov	w0, -56	// tmp98,
	str	w0, [sp, 96]	// tmp98, MEM[(struct  *)&argv].__gr_offs
	mov	w0, -128	// tmp99,
	str	w0, [sp, 100]	// tmp99, MEM[(struct  *)&argv].__vr_offs
	add	x0, sp, 16	// tmp100,,
	add	x1, sp, 72	// tmp101,,
	ldp	q0, q1, [x1]	// tmp102, tmp103, argv
	stp	q0, q1, [x0]	// tmp102, tmp103,
	add	x0, sp, 16	// tmp104,,
	ldr	x2, [sp, 56]	// tmp105, func
	mov	x1, x0	//, tmp104
	adrp	x0, .LC34	// tmp106,
	add	x0, x0, :lo12:.LC34	//, tmp106,
	blr	x2		// tmp105
	str	w0, [sp, 68]	//, retval
	ldr	w2, [sp, 68]	//, retval
	adrp	x0, .LC34	// tmp107,
	add	x1, x0, :lo12:.LC34	//, tmp107,
	adrp	x0, .LC1	// tmp108,
	add	x0, x0, :lo12:.LC1	//, tmp108,
	bl	printf		//
	ldr	w0, [sp, 68]	// _8, retval
	mov	w1, w0	// <retval>, _8
	adrp	x0, :got:__stack_chk_guard	// tmp111,
	ldr	x0, [x0, #:got_lo12:__stack_chk_guard]	// tmp110, tmp111,
	ldr	x3, [sp, 104]	// tmp113, D.7060
	ldr	x2, [x0]	// tmp114,
	subs	x3, x3, x2	// tmp113, tmp114
	mov	x2, 0	// tmp114
	beq	.L260		//,
	bl	__stack_chk_fail		//
.L260:
	mov	w0, w1	//, <retval>
	ldp	x29, x30, [sp], 304	//,,,
	.cfi_restore 30
	.cfi_restore 29
	.cfi_def_cfa_offset 0
	ret	
	.cfi_endproc
.LFE97:
	.size	test_va_list_several_hfa_4_floats, .-test_va_list_several_hfa_4_floats
	.align	2
	.global	use_indirect_va_list_several_hfa_4_floats
	.type	use_indirect_va_list_several_hfa_4_floats, %function
use_indirect_va_list_several_hfa_4_floats:
.LFB98:
	.cfi_startproc
	stp	x29, x30, [sp, -96]!	//,,,
	.cfi_def_cfa_offset 96
	.cfi_offset 29, -96
	.cfi_offset 30, -88
	mov	x29, sp	//,
	str	x19, [sp, 16]	//,
	.cfi_offset 19, -80
	str	x0, [sp, 72]	// func, func
	mov	x19, x1	// tmp94,
// varargs-use-dll.c:133: DECLARE_TEST (several_hfa_4_floats);
	add	x0, sp, 32	// tmp95,,
	mov	x1, x19	// tmp96, tmp94
	ldp	q0, q1, [x1]	// tmp97, tmp98, argv
	stp	q0, q1, [x0]	// tmp97, tmp98,
	add	x0, sp, 32	// tmp99,,
	ldr	x2, [sp, 72]	// tmp100, func
	mov	x1, x0	//, tmp99
	adrp	x0, .LC34	// tmp101,
	add	x0, x0, :lo12:.LC34	//, tmp101,
	blr	x2		// tmp100
	str	w0, [sp, 92]	//, retval
	ldr	w2, [sp, 92]	//, retval
	adrp	x0, .LC34	// tmp102,
	add	x1, x0, :lo12:.LC34	//, tmp102,
	adrp	x0, .LC2	// tmp103,
	add	x0, x0, :lo12:.LC2	//, tmp103,
	bl	printf		//
	ldr	w0, [sp, 92]	// _6, retval
	ldr	x19, [sp, 16]	//,
	ldp	x29, x30, [sp], 96	//,,,
	.cfi_restore 30
	.cfi_restore 29
	.cfi_restore 19
	.cfi_def_cfa_offset 0
	ret	
	.cfi_endproc
.LFE98:
	.size	use_indirect_va_list_several_hfa_4_floats, .-use_indirect_va_list_several_hfa_4_floats
	.align	2
	.global	test_indirect_va_list_several_hfa_4_floats
	.type	test_indirect_va_list_several_hfa_4_floats, %function
test_indirect_va_list_several_hfa_4_floats:
.LFB99:
	.cfi_startproc
	stp	x29, x30, [sp, -304]!	//,,,
	.cfi_def_cfa_offset 304
	.cfi_offset 29, -304
	.cfi_offset 30, -296
	mov	x29, sp	//,
	str	x0, [sp, 56]	// func, func
	str	x1, [sp, 248]	//,
	str	x2, [sp, 256]	//,
	str	x3, [sp, 264]	//,
	str	x4, [sp, 272]	//,
	str	x5, [sp, 280]	//,
	str	x6, [sp, 288]	//,
	str	x7, [sp, 296]	//,
	str	q0, [sp, 112]	//,
	str	q1, [sp, 128]	//,
	str	q2, [sp, 144]	//,
	str	q3, [sp, 160]	//,
	str	q4, [sp, 176]	//,
	str	q5, [sp, 192]	//,
	str	q6, [sp, 208]	//,
	str	q7, [sp, 224]	//,
// varargs-use-dll.c:133: DECLARE_TEST (several_hfa_4_floats);
	adrp	x0, :got:__stack_chk_guard	// tmp95,
	ldr	x0, [x0, #:got_lo12:__stack_chk_guard]	// tmp94, tmp95,
	ldr	x1, [x0]	// tmp108,
	str	x1, [sp, 104]	// tmp108, D.7067
	mov	x1, 0	// tmp108
	add	x0, sp, 304	// tmp113,,
	str	x0, [sp, 72]	// tmp113, MEM[(struct  *)&argv].__stack
	add	x0, sp, 304	// tmp114,,
	str	x0, [sp, 80]	// tmp114, MEM[(struct  *)&argv].__gr_top
	add	x0, sp, 240	// tmp97,,
	str	x0, [sp, 88]	// tmp97, MEM[(struct  *)&argv].__vr_top
	mov	w0, -56	// tmp98,
	str	w0, [sp, 96]	// tmp98, MEM[(struct  *)&argv].__gr_offs
	mov	w0, -128	// tmp99,
	str	w0, [sp, 100]	// tmp99, MEM[(struct  *)&argv].__vr_offs
	add	x0, sp, 16	// tmp100,,
	add	x1, sp, 72	// tmp101,,
	ldp	q0, q1, [x1]	// tmp102, tmp103, argv
	stp	q0, q1, [x0]	// tmp102, tmp103,
	add	x0, sp, 16	// tmp104,,
	mov	x1, x0	//, tmp104
	ldr	x0, [sp, 56]	//, func
	bl	use_indirect_va_list_several_hfa_4_floats		//
	str	w0, [sp, 68]	//, retval
	ldr	w0, [sp, 68]	// _7, retval
	mov	w1, w0	// <retval>, _7
	adrp	x0, :got:__stack_chk_guard	// tmp107,
	ldr	x0, [x0, #:got_lo12:__stack_chk_guard]	// tmp106, tmp107,
	ldr	x3, [sp, 104]	// tmp109, D.7067
	ldr	x2, [x0]	// tmp110,
	subs	x3, x3, x2	// tmp109, tmp110
	mov	x2, 0	// tmp110
	beq	.L265		//,
	bl	__stack_chk_fail		//
.L265:
	mov	w0, w1	//, <retval>
	ldp	x29, x30, [sp], 304	//,,,
	.cfi_restore 30
	.cfi_restore 29
	.cfi_def_cfa_offset 0
	ret	
	.cfi_endproc
.LFE99:
	.size	test_indirect_va_list_several_hfa_4_floats, .-test_indirect_va_list_several_hfa_4_floats
	.section	.rodata
	.align	3
.LC35:
	.string	"many_hfa_4_floats"
	.text
	.align	2
	.global	test_va_list_many_hfa_4_floats
	.type	test_va_list_many_hfa_4_floats, %function
test_va_list_many_hfa_4_floats:
.LFB100:
	.cfi_startproc
	stp	x29, x30, [sp, -304]!	//,,,
	.cfi_def_cfa_offset 304
	.cfi_offset 29, -304
	.cfi_offset 30, -296
	mov	x29, sp	//,
	str	x0, [sp, 56]	// func, func
	str	x1, [sp, 248]	//,
	str	x2, [sp, 256]	//,
	str	x3, [sp, 264]	//,
	str	x4, [sp, 272]	//,
	str	x5, [sp, 280]	//,
	str	x6, [sp, 288]	//,
	str	x7, [sp, 296]	//,
	str	q0, [sp, 112]	//,
	str	q1, [sp, 128]	//,
	str	q2, [sp, 144]	//,
	str	q3, [sp, 160]	//,
	str	q4, [sp, 176]	//,
	str	q5, [sp, 192]	//,
	str	q6, [sp, 208]	//,
	str	q7, [sp, 224]	//,
// varargs-use-dll.c:134: DECLARE_TEST (many_hfa_4_floats);
	adrp	x0, :got:__stack_chk_guard	// tmp95,
	ldr	x0, [x0, #:got_lo12:__stack_chk_guard]	// tmp94, tmp95,
	ldr	x1, [x0]	// tmp112,
	str	x1, [sp, 104]	// tmp112, D.7072
	mov	x1, 0	// tmp112
	add	x0, sp, 304	// tmp117,,
	str	x0, [sp, 72]	// tmp117, MEM[(struct  *)&argv].__stack
	add	x0, sp, 304	// tmp118,,
	str	x0, [sp, 80]	// tmp118, MEM[(struct  *)&argv].__gr_top
	add	x0, sp, 240	// tmp97,,
	str	x0, [sp, 88]	// tmp97, MEM[(struct  *)&argv].__vr_top
	mov	w0, -56	// tmp98,
	str	w0, [sp, 96]	// tmp98, MEM[(struct  *)&argv].__gr_offs
	mov	w0, -128	// tmp99,
	str	w0, [sp, 100]	// tmp99, MEM[(struct  *)&argv].__vr_offs
	add	x0, sp, 16	// tmp100,,
	add	x1, sp, 72	// tmp101,,
	ldp	q0, q1, [x1]	// tmp102, tmp103, argv
	stp	q0, q1, [x0]	// tmp102, tmp103,
	add	x0, sp, 16	// tmp104,,
	ldr	x2, [sp, 56]	// tmp105, func
	mov	x1, x0	//, tmp104
	adrp	x0, .LC35	// tmp106,
	add	x0, x0, :lo12:.LC35	//, tmp106,
	blr	x2		// tmp105
	str	w0, [sp, 68]	//, retval
	ldr	w2, [sp, 68]	//, retval
	adrp	x0, .LC35	// tmp107,
	add	x1, x0, :lo12:.LC35	//, tmp107,
	adrp	x0, .LC1	// tmp108,
	add	x0, x0, :lo12:.LC1	//, tmp108,
	bl	printf		//
	ldr	w0, [sp, 68]	// _8, retval
	mov	w1, w0	// <retval>, _8
	adrp	x0, :got:__stack_chk_guard	// tmp111,
	ldr	x0, [x0, #:got_lo12:__stack_chk_guard]	// tmp110, tmp111,
	ldr	x3, [sp, 104]	// tmp113, D.7072
	ldr	x2, [x0]	// tmp114,
	subs	x3, x3, x2	// tmp113, tmp114
	mov	x2, 0	// tmp114
	beq	.L268		//,
	bl	__stack_chk_fail		//
.L268:
	mov	w0, w1	//, <retval>
	ldp	x29, x30, [sp], 304	//,,,
	.cfi_restore 30
	.cfi_restore 29
	.cfi_def_cfa_offset 0
	ret	
	.cfi_endproc
.LFE100:
	.size	test_va_list_many_hfa_4_floats, .-test_va_list_many_hfa_4_floats
	.align	2
	.global	use_indirect_va_list_many_hfa_4_floats
	.type	use_indirect_va_list_many_hfa_4_floats, %function
use_indirect_va_list_many_hfa_4_floats:
.LFB101:
	.cfi_startproc
	stp	x29, x30, [sp, -96]!	//,,,
	.cfi_def_cfa_offset 96
	.cfi_offset 29, -96
	.cfi_offset 30, -88
	mov	x29, sp	//,
	str	x19, [sp, 16]	//,
	.cfi_offset 19, -80
	str	x0, [sp, 72]	// func, func
	mov	x19, x1	// tmp94,
// varargs-use-dll.c:134: DECLARE_TEST (many_hfa_4_floats);
	add	x0, sp, 32	// tmp95,,
	mov	x1, x19	// tmp96, tmp94
	ldp	q0, q1, [x1]	// tmp97, tmp98, argv
	stp	q0, q1, [x0]	// tmp97, tmp98,
	add	x0, sp, 32	// tmp99,,
	ldr	x2, [sp, 72]	// tmp100, func
	mov	x1, x0	//, tmp99
	adrp	x0, .LC35	// tmp101,
	add	x0, x0, :lo12:.LC35	//, tmp101,
	blr	x2		// tmp100
	str	w0, [sp, 92]	//, retval
	ldr	w2, [sp, 92]	//, retval
	adrp	x0, .LC35	// tmp102,
	add	x1, x0, :lo12:.LC35	//, tmp102,
	adrp	x0, .LC2	// tmp103,
	add	x0, x0, :lo12:.LC2	//, tmp103,
	bl	printf		//
	ldr	w0, [sp, 92]	// _6, retval
	ldr	x19, [sp, 16]	//,
	ldp	x29, x30, [sp], 96	//,,,
	.cfi_restore 30
	.cfi_restore 29
	.cfi_restore 19
	.cfi_def_cfa_offset 0
	ret	
	.cfi_endproc
.LFE101:
	.size	use_indirect_va_list_many_hfa_4_floats, .-use_indirect_va_list_many_hfa_4_floats
	.align	2
	.global	test_indirect_va_list_many_hfa_4_floats
	.type	test_indirect_va_list_many_hfa_4_floats, %function
test_indirect_va_list_many_hfa_4_floats:
.LFB102:
	.cfi_startproc
	stp	x29, x30, [sp, -304]!	//,,,
	.cfi_def_cfa_offset 304
	.cfi_offset 29, -304
	.cfi_offset 30, -296
	mov	x29, sp	//,
	str	x0, [sp, 56]	// func, func
	str	x1, [sp, 248]	//,
	str	x2, [sp, 256]	//,
	str	x3, [sp, 264]	//,
	str	x4, [sp, 272]	//,
	str	x5, [sp, 280]	//,
	str	x6, [sp, 288]	//,
	str	x7, [sp, 296]	//,
	str	q0, [sp, 112]	//,
	str	q1, [sp, 128]	//,
	str	q2, [sp, 144]	//,
	str	q3, [sp, 160]	//,
	str	q4, [sp, 176]	//,
	str	q5, [sp, 192]	//,
	str	q6, [sp, 208]	//,
	str	q7, [sp, 224]	//,
// varargs-use-dll.c:134: DECLARE_TEST (many_hfa_4_floats);
	adrp	x0, :got:__stack_chk_guard	// tmp95,
	ldr	x0, [x0, #:got_lo12:__stack_chk_guard]	// tmp94, tmp95,
	ldr	x1, [x0]	// tmp108,
	str	x1, [sp, 104]	// tmp108, D.7079
	mov	x1, 0	// tmp108
	add	x0, sp, 304	// tmp113,,
	str	x0, [sp, 72]	// tmp113, MEM[(struct  *)&argv].__stack
	add	x0, sp, 304	// tmp114,,
	str	x0, [sp, 80]	// tmp114, MEM[(struct  *)&argv].__gr_top
	add	x0, sp, 240	// tmp97,,
	str	x0, [sp, 88]	// tmp97, MEM[(struct  *)&argv].__vr_top
	mov	w0, -56	// tmp98,
	str	w0, [sp, 96]	// tmp98, MEM[(struct  *)&argv].__gr_offs
	mov	w0, -128	// tmp99,
	str	w0, [sp, 100]	// tmp99, MEM[(struct  *)&argv].__vr_offs
	add	x0, sp, 16	// tmp100,,
	add	x1, sp, 72	// tmp101,,
	ldp	q0, q1, [x1]	// tmp102, tmp103, argv
	stp	q0, q1, [x0]	// tmp102, tmp103,
	add	x0, sp, 16	// tmp104,,
	mov	x1, x0	//, tmp104
	ldr	x0, [sp, 56]	//, func
	bl	use_indirect_va_list_many_hfa_4_floats		//
	str	w0, [sp, 68]	//, retval
	ldr	w0, [sp, 68]	// _7, retval
	mov	w1, w0	// <retval>, _7
	adrp	x0, :got:__stack_chk_guard	// tmp107,
	ldr	x0, [x0, #:got_lo12:__stack_chk_guard]	// tmp106, tmp107,
	ldr	x3, [sp, 104]	// tmp109, D.7079
	ldr	x2, [x0]	// tmp110,
	subs	x3, x3, x2	// tmp109, tmp110
	mov	x2, 0	// tmp110
	beq	.L273		//,
	bl	__stack_chk_fail		//
.L273:
	mov	w0, w1	//, <retval>
	ldp	x29, x30, [sp], 304	//,,,
	.cfi_restore 30
	.cfi_restore 29
	.cfi_def_cfa_offset 0
	ret	
	.cfi_endproc
.LFE102:
	.size	test_indirect_va_list_many_hfa_4_floats, .-test_indirect_va_list_many_hfa_4_floats
	.section	.rodata
	.align	3
.LC36:
	.string	"few_hfa_2_doubles"
	.text
	.align	2
	.global	test_va_list_few_hfa_2_doubles
	.type	test_va_list_few_hfa_2_doubles, %function
test_va_list_few_hfa_2_doubles:
.LFB103:
	.cfi_startproc
	stp	x29, x30, [sp, -304]!	//,,,
	.cfi_def_cfa_offset 304
	.cfi_offset 29, -304
	.cfi_offset 30, -296
	mov	x29, sp	//,
	str	x0, [sp, 56]	// func, func
	str	x1, [sp, 248]	//,
	str	x2, [sp, 256]	//,
	str	x3, [sp, 264]	//,
	str	x4, [sp, 272]	//,
	str	x5, [sp, 280]	//,
	str	x6, [sp, 288]	//,
	str	x7, [sp, 296]	//,
	str	q0, [sp, 112]	//,
	str	q1, [sp, 128]	//,
	str	q2, [sp, 144]	//,
	str	q3, [sp, 160]	//,
	str	q4, [sp, 176]	//,
	str	q5, [sp, 192]	//,
	str	q6, [sp, 208]	//,
	str	q7, [sp, 224]	//,
// varargs-use-dll.c:136: DECLARE_TEST (few_hfa_2_doubles);
	adrp	x0, :got:__stack_chk_guard	// tmp95,
	ldr	x0, [x0, #:got_lo12:__stack_chk_guard]	// tmp94, tmp95,
	ldr	x1, [x0]	// tmp112,
	str	x1, [sp, 104]	// tmp112, D.7084
	mov	x1, 0	// tmp112
	add	x0, sp, 304	// tmp117,,
	str	x0, [sp, 72]	// tmp117, MEM[(struct  *)&argv].__stack
	add	x0, sp, 304	// tmp118,,
	str	x0, [sp, 80]	// tmp118, MEM[(struct  *)&argv].__gr_top
	add	x0, sp, 240	// tmp97,,
	str	x0, [sp, 88]	// tmp97, MEM[(struct  *)&argv].__vr_top
	mov	w0, -56	// tmp98,
	str	w0, [sp, 96]	// tmp98, MEM[(struct  *)&argv].__gr_offs
	mov	w0, -128	// tmp99,
	str	w0, [sp, 100]	// tmp99, MEM[(struct  *)&argv].__vr_offs
	add	x0, sp, 16	// tmp100,,
	add	x1, sp, 72	// tmp101,,
	ldp	q0, q1, [x1]	// tmp102, tmp103, argv
	stp	q0, q1, [x0]	// tmp102, tmp103,
	add	x0, sp, 16	// tmp104,,
	ldr	x2, [sp, 56]	// tmp105, func
	mov	x1, x0	//, tmp104
	adrp	x0, .LC36	// tmp106,
	add	x0, x0, :lo12:.LC36	//, tmp106,
	blr	x2		// tmp105
	str	w0, [sp, 68]	//, retval
	ldr	w2, [sp, 68]	//, retval
	adrp	x0, .LC36	// tmp107,
	add	x1, x0, :lo12:.LC36	//, tmp107,
	adrp	x0, .LC1	// tmp108,
	add	x0, x0, :lo12:.LC1	//, tmp108,
	bl	printf		//
	ldr	w0, [sp, 68]	// _8, retval
	mov	w1, w0	// <retval>, _8
	adrp	x0, :got:__stack_chk_guard	// tmp111,
	ldr	x0, [x0, #:got_lo12:__stack_chk_guard]	// tmp110, tmp111,
	ldr	x3, [sp, 104]	// tmp113, D.7084
	ldr	x2, [x0]	// tmp114,
	subs	x3, x3, x2	// tmp113, tmp114
	mov	x2, 0	// tmp114
	beq	.L276		//,
	bl	__stack_chk_fail		//
.L276:
	mov	w0, w1	//, <retval>
	ldp	x29, x30, [sp], 304	//,,,
	.cfi_restore 30
	.cfi_restore 29
	.cfi_def_cfa_offset 0
	ret	
	.cfi_endproc
.LFE103:
	.size	test_va_list_few_hfa_2_doubles, .-test_va_list_few_hfa_2_doubles
	.align	2
	.global	use_indirect_va_list_few_hfa_2_doubles
	.type	use_indirect_va_list_few_hfa_2_doubles, %function
use_indirect_va_list_few_hfa_2_doubles:
.LFB104:
	.cfi_startproc
	stp	x29, x30, [sp, -96]!	//,,,
	.cfi_def_cfa_offset 96
	.cfi_offset 29, -96
	.cfi_offset 30, -88
	mov	x29, sp	//,
	str	x19, [sp, 16]	//,
	.cfi_offset 19, -80
	str	x0, [sp, 72]	// func, func
	mov	x19, x1	// tmp94,
// varargs-use-dll.c:136: DECLARE_TEST (few_hfa_2_doubles);
	add	x0, sp, 32	// tmp95,,
	mov	x1, x19	// tmp96, tmp94
	ldp	q0, q1, [x1]	// tmp97, tmp98, argv
	stp	q0, q1, [x0]	// tmp97, tmp98,
	add	x0, sp, 32	// tmp99,,
	ldr	x2, [sp, 72]	// tmp100, func
	mov	x1, x0	//, tmp99
	adrp	x0, .LC36	// tmp101,
	add	x0, x0, :lo12:.LC36	//, tmp101,
	blr	x2		// tmp100
	str	w0, [sp, 92]	//, retval
	ldr	w2, [sp, 92]	//, retval
	adrp	x0, .LC36	// tmp102,
	add	x1, x0, :lo12:.LC36	//, tmp102,
	adrp	x0, .LC2	// tmp103,
	add	x0, x0, :lo12:.LC2	//, tmp103,
	bl	printf		//
	ldr	w0, [sp, 92]	// _6, retval
	ldr	x19, [sp, 16]	//,
	ldp	x29, x30, [sp], 96	//,,,
	.cfi_restore 30
	.cfi_restore 29
	.cfi_restore 19
	.cfi_def_cfa_offset 0
	ret	
	.cfi_endproc
.LFE104:
	.size	use_indirect_va_list_few_hfa_2_doubles, .-use_indirect_va_list_few_hfa_2_doubles
	.align	2
	.global	test_indirect_va_list_few_hfa_2_doubles
	.type	test_indirect_va_list_few_hfa_2_doubles, %function
test_indirect_va_list_few_hfa_2_doubles:
.LFB105:
	.cfi_startproc
	stp	x29, x30, [sp, -304]!	//,,,
	.cfi_def_cfa_offset 304
	.cfi_offset 29, -304
	.cfi_offset 30, -296
	mov	x29, sp	//,
	str	x0, [sp, 56]	// func, func
	str	x1, [sp, 248]	//,
	str	x2, [sp, 256]	//,
	str	x3, [sp, 264]	//,
	str	x4, [sp, 272]	//,
	str	x5, [sp, 280]	//,
	str	x6, [sp, 288]	//,
	str	x7, [sp, 296]	//,
	str	q0, [sp, 112]	//,
	str	q1, [sp, 128]	//,
	str	q2, [sp, 144]	//,
	str	q3, [sp, 160]	//,
	str	q4, [sp, 176]	//,
	str	q5, [sp, 192]	//,
	str	q6, [sp, 208]	//,
	str	q7, [sp, 224]	//,
// varargs-use-dll.c:136: DECLARE_TEST (few_hfa_2_doubles);
	adrp	x0, :got:__stack_chk_guard	// tmp95,
	ldr	x0, [x0, #:got_lo12:__stack_chk_guard]	// tmp94, tmp95,
	ldr	x1, [x0]	// tmp108,
	str	x1, [sp, 104]	// tmp108, D.7091
	mov	x1, 0	// tmp108
	add	x0, sp, 304	// tmp113,,
	str	x0, [sp, 72]	// tmp113, MEM[(struct  *)&argv].__stack
	add	x0, sp, 304	// tmp114,,
	str	x0, [sp, 80]	// tmp114, MEM[(struct  *)&argv].__gr_top
	add	x0, sp, 240	// tmp97,,
	str	x0, [sp, 88]	// tmp97, MEM[(struct  *)&argv].__vr_top
	mov	w0, -56	// tmp98,
	str	w0, [sp, 96]	// tmp98, MEM[(struct  *)&argv].__gr_offs
	mov	w0, -128	// tmp99,
	str	w0, [sp, 100]	// tmp99, MEM[(struct  *)&argv].__vr_offs
	add	x0, sp, 16	// tmp100,,
	add	x1, sp, 72	// tmp101,,
	ldp	q0, q1, [x1]	// tmp102, tmp103, argv
	stp	q0, q1, [x0]	// tmp102, tmp103,
	add	x0, sp, 16	// tmp104,,
	mov	x1, x0	//, tmp104
	ldr	x0, [sp, 56]	//, func
	bl	use_indirect_va_list_few_hfa_2_doubles		//
	str	w0, [sp, 68]	//, retval
	ldr	w0, [sp, 68]	// _7, retval
	mov	w1, w0	// <retval>, _7
	adrp	x0, :got:__stack_chk_guard	// tmp107,
	ldr	x0, [x0, #:got_lo12:__stack_chk_guard]	// tmp106, tmp107,
	ldr	x3, [sp, 104]	// tmp109, D.7091
	ldr	x2, [x0]	// tmp110,
	subs	x3, x3, x2	// tmp109, tmp110
	mov	x2, 0	// tmp110
	beq	.L281		//,
	bl	__stack_chk_fail		//
.L281:
	mov	w0, w1	//, <retval>
	ldp	x29, x30, [sp], 304	//,,,
	.cfi_restore 30
	.cfi_restore 29
	.cfi_def_cfa_offset 0
	ret	
	.cfi_endproc
.LFE105:
	.size	test_indirect_va_list_few_hfa_2_doubles, .-test_indirect_va_list_few_hfa_2_doubles
	.section	.rodata
	.align	3
.LC37:
	.string	"several_hfa_2_doubles"
	.text
	.align	2
	.global	test_va_list_several_hfa_2_doubles
	.type	test_va_list_several_hfa_2_doubles, %function
test_va_list_several_hfa_2_doubles:
.LFB106:
	.cfi_startproc
	stp	x29, x30, [sp, -304]!	//,,,
	.cfi_def_cfa_offset 304
	.cfi_offset 29, -304
	.cfi_offset 30, -296
	mov	x29, sp	//,
	str	x0, [sp, 56]	// func, func
	str	x1, [sp, 248]	//,
	str	x2, [sp, 256]	//,
	str	x3, [sp, 264]	//,
	str	x4, [sp, 272]	//,
	str	x5, [sp, 280]	//,
	str	x6, [sp, 288]	//,
	str	x7, [sp, 296]	//,
	str	q0, [sp, 112]	//,
	str	q1, [sp, 128]	//,
	str	q2, [sp, 144]	//,
	str	q3, [sp, 160]	//,
	str	q4, [sp, 176]	//,
	str	q5, [sp, 192]	//,
	str	q6, [sp, 208]	//,
	str	q7, [sp, 224]	//,
// varargs-use-dll.c:137: DECLARE_TEST (several_hfa_2_doubles);
	adrp	x0, :got:__stack_chk_guard	// tmp95,
	ldr	x0, [x0, #:got_lo12:__stack_chk_guard]	// tmp94, tmp95,
	ldr	x1, [x0]	// tmp112,
	str	x1, [sp, 104]	// tmp112, D.7096
	mov	x1, 0	// tmp112
	add	x0, sp, 304	// tmp117,,
	str	x0, [sp, 72]	// tmp117, MEM[(struct  *)&argv].__stack
	add	x0, sp, 304	// tmp118,,
	str	x0, [sp, 80]	// tmp118, MEM[(struct  *)&argv].__gr_top
	add	x0, sp, 240	// tmp97,,
	str	x0, [sp, 88]	// tmp97, MEM[(struct  *)&argv].__vr_top
	mov	w0, -56	// tmp98,
	str	w0, [sp, 96]	// tmp98, MEM[(struct  *)&argv].__gr_offs
	mov	w0, -128	// tmp99,
	str	w0, [sp, 100]	// tmp99, MEM[(struct  *)&argv].__vr_offs
	add	x0, sp, 16	// tmp100,,
	add	x1, sp, 72	// tmp101,,
	ldp	q0, q1, [x1]	// tmp102, tmp103, argv
	stp	q0, q1, [x0]	// tmp102, tmp103,
	add	x0, sp, 16	// tmp104,,
	ldr	x2, [sp, 56]	// tmp105, func
	mov	x1, x0	//, tmp104
	adrp	x0, .LC37	// tmp106,
	add	x0, x0, :lo12:.LC37	//, tmp106,
	blr	x2		// tmp105
	str	w0, [sp, 68]	//, retval
	ldr	w2, [sp, 68]	//, retval
	adrp	x0, .LC37	// tmp107,
	add	x1, x0, :lo12:.LC37	//, tmp107,
	adrp	x0, .LC1	// tmp108,
	add	x0, x0, :lo12:.LC1	//, tmp108,
	bl	printf		//
	ldr	w0, [sp, 68]	// _8, retval
	mov	w1, w0	// <retval>, _8
	adrp	x0, :got:__stack_chk_guard	// tmp111,
	ldr	x0, [x0, #:got_lo12:__stack_chk_guard]	// tmp110, tmp111,
	ldr	x3, [sp, 104]	// tmp113, D.7096
	ldr	x2, [x0]	// tmp114,
	subs	x3, x3, x2	// tmp113, tmp114
	mov	x2, 0	// tmp114
	beq	.L284		//,
	bl	__stack_chk_fail		//
.L284:
	mov	w0, w1	//, <retval>
	ldp	x29, x30, [sp], 304	//,,,
	.cfi_restore 30
	.cfi_restore 29
	.cfi_def_cfa_offset 0
	ret	
	.cfi_endproc
.LFE106:
	.size	test_va_list_several_hfa_2_doubles, .-test_va_list_several_hfa_2_doubles
	.align	2
	.global	use_indirect_va_list_several_hfa_2_doubles
	.type	use_indirect_va_list_several_hfa_2_doubles, %function
use_indirect_va_list_several_hfa_2_doubles:
.LFB107:
	.cfi_startproc
	stp	x29, x30, [sp, -96]!	//,,,
	.cfi_def_cfa_offset 96
	.cfi_offset 29, -96
	.cfi_offset 30, -88
	mov	x29, sp	//,
	str	x19, [sp, 16]	//,
	.cfi_offset 19, -80
	str	x0, [sp, 72]	// func, func
	mov	x19, x1	// tmp94,
// varargs-use-dll.c:137: DECLARE_TEST (several_hfa_2_doubles);
	add	x0, sp, 32	// tmp95,,
	mov	x1, x19	// tmp96, tmp94
	ldp	q0, q1, [x1]	// tmp97, tmp98, argv
	stp	q0, q1, [x0]	// tmp97, tmp98,
	add	x0, sp, 32	// tmp99,,
	ldr	x2, [sp, 72]	// tmp100, func
	mov	x1, x0	//, tmp99
	adrp	x0, .LC37	// tmp101,
	add	x0, x0, :lo12:.LC37	//, tmp101,
	blr	x2		// tmp100
	str	w0, [sp, 92]	//, retval
	ldr	w2, [sp, 92]	//, retval
	adrp	x0, .LC37	// tmp102,
	add	x1, x0, :lo12:.LC37	//, tmp102,
	adrp	x0, .LC2	// tmp103,
	add	x0, x0, :lo12:.LC2	//, tmp103,
	bl	printf		//
	ldr	w0, [sp, 92]	// _6, retval
	ldr	x19, [sp, 16]	//,
	ldp	x29, x30, [sp], 96	//,,,
	.cfi_restore 30
	.cfi_restore 29
	.cfi_restore 19
	.cfi_def_cfa_offset 0
	ret	
	.cfi_endproc
.LFE107:
	.size	use_indirect_va_list_several_hfa_2_doubles, .-use_indirect_va_list_several_hfa_2_doubles
	.align	2
	.global	test_indirect_va_list_several_hfa_2_doubles
	.type	test_indirect_va_list_several_hfa_2_doubles, %function
test_indirect_va_list_several_hfa_2_doubles:
.LFB108:
	.cfi_startproc
	stp	x29, x30, [sp, -304]!	//,,,
	.cfi_def_cfa_offset 304
	.cfi_offset 29, -304
	.cfi_offset 30, -296
	mov	x29, sp	//,
	str	x0, [sp, 56]	// func, func
	str	x1, [sp, 248]	//,
	str	x2, [sp, 256]	//,
	str	x3, [sp, 264]	//,
	str	x4, [sp, 272]	//,
	str	x5, [sp, 280]	//,
	str	x6, [sp, 288]	//,
	str	x7, [sp, 296]	//,
	str	q0, [sp, 112]	//,
	str	q1, [sp, 128]	//,
	str	q2, [sp, 144]	//,
	str	q3, [sp, 160]	//,
	str	q4, [sp, 176]	//,
	str	q5, [sp, 192]	//,
	str	q6, [sp, 208]	//,
	str	q7, [sp, 224]	//,
// varargs-use-dll.c:137: DECLARE_TEST (several_hfa_2_doubles);
	adrp	x0, :got:__stack_chk_guard	// tmp95,
	ldr	x0, [x0, #:got_lo12:__stack_chk_guard]	// tmp94, tmp95,
	ldr	x1, [x0]	// tmp108,
	str	x1, [sp, 104]	// tmp108, D.7103
	mov	x1, 0	// tmp108
	add	x0, sp, 304	// tmp113,,
	str	x0, [sp, 72]	// tmp113, MEM[(struct  *)&argv].__stack
	add	x0, sp, 304	// tmp114,,
	str	x0, [sp, 80]	// tmp114, MEM[(struct  *)&argv].__gr_top
	add	x0, sp, 240	// tmp97,,
	str	x0, [sp, 88]	// tmp97, MEM[(struct  *)&argv].__vr_top
	mov	w0, -56	// tmp98,
	str	w0, [sp, 96]	// tmp98, MEM[(struct  *)&argv].__gr_offs
	mov	w0, -128	// tmp99,
	str	w0, [sp, 100]	// tmp99, MEM[(struct  *)&argv].__vr_offs
	add	x0, sp, 16	// tmp100,,
	add	x1, sp, 72	// tmp101,,
	ldp	q0, q1, [x1]	// tmp102, tmp103, argv
	stp	q0, q1, [x0]	// tmp102, tmp103,
	add	x0, sp, 16	// tmp104,,
	mov	x1, x0	//, tmp104
	ldr	x0, [sp, 56]	//, func
	bl	use_indirect_va_list_several_hfa_2_doubles		//
	str	w0, [sp, 68]	//, retval
	ldr	w0, [sp, 68]	// _7, retval
	mov	w1, w0	// <retval>, _7
	adrp	x0, :got:__stack_chk_guard	// tmp107,
	ldr	x0, [x0, #:got_lo12:__stack_chk_guard]	// tmp106, tmp107,
	ldr	x3, [sp, 104]	// tmp109, D.7103
	ldr	x2, [x0]	// tmp110,
	subs	x3, x3, x2	// tmp109, tmp110
	mov	x2, 0	// tmp110
	beq	.L289		//,
	bl	__stack_chk_fail		//
.L289:
	mov	w0, w1	//, <retval>
	ldp	x29, x30, [sp], 304	//,,,
	.cfi_restore 30
	.cfi_restore 29
	.cfi_def_cfa_offset 0
	ret	
	.cfi_endproc
.LFE108:
	.size	test_indirect_va_list_several_hfa_2_doubles, .-test_indirect_va_list_several_hfa_2_doubles
	.section	.rodata
	.align	3
.LC38:
	.string	"many_hfa_2_doubles"
	.text
	.align	2
	.global	test_va_list_many_hfa_2_doubles
	.type	test_va_list_many_hfa_2_doubles, %function
test_va_list_many_hfa_2_doubles:
.LFB109:
	.cfi_startproc
	stp	x29, x30, [sp, -304]!	//,,,
	.cfi_def_cfa_offset 304
	.cfi_offset 29, -304
	.cfi_offset 30, -296
	mov	x29, sp	//,
	str	x0, [sp, 56]	// func, func
	str	x1, [sp, 248]	//,
	str	x2, [sp, 256]	//,
	str	x3, [sp, 264]	//,
	str	x4, [sp, 272]	//,
	str	x5, [sp, 280]	//,
	str	x6, [sp, 288]	//,
	str	x7, [sp, 296]	//,
	str	q0, [sp, 112]	//,
	str	q1, [sp, 128]	//,
	str	q2, [sp, 144]	//,
	str	q3, [sp, 160]	//,
	str	q4, [sp, 176]	//,
	str	q5, [sp, 192]	//,
	str	q6, [sp, 208]	//,
	str	q7, [sp, 224]	//,
// varargs-use-dll.c:138: DECLARE_TEST (many_hfa_2_doubles);
	adrp	x0, :got:__stack_chk_guard	// tmp95,
	ldr	x0, [x0, #:got_lo12:__stack_chk_guard]	// tmp94, tmp95,
	ldr	x1, [x0]	// tmp112,
	str	x1, [sp, 104]	// tmp112, D.7108
	mov	x1, 0	// tmp112
	add	x0, sp, 304	// tmp117,,
	str	x0, [sp, 72]	// tmp117, MEM[(struct  *)&argv].__stack
	add	x0, sp, 304	// tmp118,,
	str	x0, [sp, 80]	// tmp118, MEM[(struct  *)&argv].__gr_top
	add	x0, sp, 240	// tmp97,,
	str	x0, [sp, 88]	// tmp97, MEM[(struct  *)&argv].__vr_top
	mov	w0, -56	// tmp98,
	str	w0, [sp, 96]	// tmp98, MEM[(struct  *)&argv].__gr_offs
	mov	w0, -128	// tmp99,
	str	w0, [sp, 100]	// tmp99, MEM[(struct  *)&argv].__vr_offs
	add	x0, sp, 16	// tmp100,,
	add	x1, sp, 72	// tmp101,,
	ldp	q0, q1, [x1]	// tmp102, tmp103, argv
	stp	q0, q1, [x0]	// tmp102, tmp103,
	add	x0, sp, 16	// tmp104,,
	ldr	x2, [sp, 56]	// tmp105, func
	mov	x1, x0	//, tmp104
	adrp	x0, .LC38	// tmp106,
	add	x0, x0, :lo12:.LC38	//, tmp106,
	blr	x2		// tmp105
	str	w0, [sp, 68]	//, retval
	ldr	w2, [sp, 68]	//, retval
	adrp	x0, .LC38	// tmp107,
	add	x1, x0, :lo12:.LC38	//, tmp107,
	adrp	x0, .LC1	// tmp108,
	add	x0, x0, :lo12:.LC1	//, tmp108,
	bl	printf		//
	ldr	w0, [sp, 68]	// _8, retval
	mov	w1, w0	// <retval>, _8
	adrp	x0, :got:__stack_chk_guard	// tmp111,
	ldr	x0, [x0, #:got_lo12:__stack_chk_guard]	// tmp110, tmp111,
	ldr	x3, [sp, 104]	// tmp113, D.7108
	ldr	x2, [x0]	// tmp114,
	subs	x3, x3, x2	// tmp113, tmp114
	mov	x2, 0	// tmp114
	beq	.L292		//,
	bl	__stack_chk_fail		//
.L292:
	mov	w0, w1	//, <retval>
	ldp	x29, x30, [sp], 304	//,,,
	.cfi_restore 30
	.cfi_restore 29
	.cfi_def_cfa_offset 0
	ret	
	.cfi_endproc
.LFE109:
	.size	test_va_list_many_hfa_2_doubles, .-test_va_list_many_hfa_2_doubles
	.align	2
	.global	use_indirect_va_list_many_hfa_2_doubles
	.type	use_indirect_va_list_many_hfa_2_doubles, %function
use_indirect_va_list_many_hfa_2_doubles:
.LFB110:
	.cfi_startproc
	stp	x29, x30, [sp, -96]!	//,,,
	.cfi_def_cfa_offset 96
	.cfi_offset 29, -96
	.cfi_offset 30, -88
	mov	x29, sp	//,
	str	x19, [sp, 16]	//,
	.cfi_offset 19, -80
	str	x0, [sp, 72]	// func, func
	mov	x19, x1	// tmp94,
// varargs-use-dll.c:138: DECLARE_TEST (many_hfa_2_doubles);
	add	x0, sp, 32	// tmp95,,
	mov	x1, x19	// tmp96, tmp94
	ldp	q0, q1, [x1]	// tmp97, tmp98, argv
	stp	q0, q1, [x0]	// tmp97, tmp98,
	add	x0, sp, 32	// tmp99,,
	ldr	x2, [sp, 72]	// tmp100, func
	mov	x1, x0	//, tmp99
	adrp	x0, .LC38	// tmp101,
	add	x0, x0, :lo12:.LC38	//, tmp101,
	blr	x2		// tmp100
	str	w0, [sp, 92]	//, retval
	ldr	w2, [sp, 92]	//, retval
	adrp	x0, .LC38	// tmp102,
	add	x1, x0, :lo12:.LC38	//, tmp102,
	adrp	x0, .LC2	// tmp103,
	add	x0, x0, :lo12:.LC2	//, tmp103,
	bl	printf		//
	ldr	w0, [sp, 92]	// _6, retval
	ldr	x19, [sp, 16]	//,
	ldp	x29, x30, [sp], 96	//,,,
	.cfi_restore 30
	.cfi_restore 29
	.cfi_restore 19
	.cfi_def_cfa_offset 0
	ret	
	.cfi_endproc
.LFE110:
	.size	use_indirect_va_list_many_hfa_2_doubles, .-use_indirect_va_list_many_hfa_2_doubles
	.align	2
	.global	test_indirect_va_list_many_hfa_2_doubles
	.type	test_indirect_va_list_many_hfa_2_doubles, %function
test_indirect_va_list_many_hfa_2_doubles:
.LFB111:
	.cfi_startproc
	stp	x29, x30, [sp, -304]!	//,,,
	.cfi_def_cfa_offset 304
	.cfi_offset 29, -304
	.cfi_offset 30, -296
	mov	x29, sp	//,
	str	x0, [sp, 56]	// func, func
	str	x1, [sp, 248]	//,
	str	x2, [sp, 256]	//,
	str	x3, [sp, 264]	//,
	str	x4, [sp, 272]	//,
	str	x5, [sp, 280]	//,
	str	x6, [sp, 288]	//,
	str	x7, [sp, 296]	//,
	str	q0, [sp, 112]	//,
	str	q1, [sp, 128]	//,
	str	q2, [sp, 144]	//,
	str	q3, [sp, 160]	//,
	str	q4, [sp, 176]	//,
	str	q5, [sp, 192]	//,
	str	q6, [sp, 208]	//,
	str	q7, [sp, 224]	//,
// varargs-use-dll.c:138: DECLARE_TEST (many_hfa_2_doubles);
	adrp	x0, :got:__stack_chk_guard	// tmp95,
	ldr	x0, [x0, #:got_lo12:__stack_chk_guard]	// tmp94, tmp95,
	ldr	x1, [x0]	// tmp108,
	str	x1, [sp, 104]	// tmp108, D.7115
	mov	x1, 0	// tmp108
	add	x0, sp, 304	// tmp113,,
	str	x0, [sp, 72]	// tmp113, MEM[(struct  *)&argv].__stack
	add	x0, sp, 304	// tmp114,,
	str	x0, [sp, 80]	// tmp114, MEM[(struct  *)&argv].__gr_top
	add	x0, sp, 240	// tmp97,,
	str	x0, [sp, 88]	// tmp97, MEM[(struct  *)&argv].__vr_top
	mov	w0, -56	// tmp98,
	str	w0, [sp, 96]	// tmp98, MEM[(struct  *)&argv].__gr_offs
	mov	w0, -128	// tmp99,
	str	w0, [sp, 100]	// tmp99, MEM[(struct  *)&argv].__vr_offs
	add	x0, sp, 16	// tmp100,,
	add	x1, sp, 72	// tmp101,,
	ldp	q0, q1, [x1]	// tmp102, tmp103, argv
	stp	q0, q1, [x0]	// tmp102, tmp103,
	add	x0, sp, 16	// tmp104,,
	mov	x1, x0	//, tmp104
	ldr	x0, [sp, 56]	//, func
	bl	use_indirect_va_list_many_hfa_2_doubles		//
	str	w0, [sp, 68]	//, retval
	ldr	w0, [sp, 68]	// _7, retval
	mov	w1, w0	// <retval>, _7
	adrp	x0, :got:__stack_chk_guard	// tmp107,
	ldr	x0, [x0, #:got_lo12:__stack_chk_guard]	// tmp106, tmp107,
	ldr	x3, [sp, 104]	// tmp109, D.7115
	ldr	x2, [x0]	// tmp110,
	subs	x3, x3, x2	// tmp109, tmp110
	mov	x2, 0	// tmp110
	beq	.L297		//,
	bl	__stack_chk_fail		//
.L297:
	mov	w0, w1	//, <retval>
	ldp	x29, x30, [sp], 304	//,,,
	.cfi_restore 30
	.cfi_restore 29
	.cfi_def_cfa_offset 0
	ret	
	.cfi_endproc
.LFE111:
	.size	test_indirect_va_list_many_hfa_2_doubles, .-test_indirect_va_list_many_hfa_2_doubles
	.section	.rodata
	.align	3
.LC39:
	.string	"few_hfa_4_doubles"
	.text
	.align	2
	.global	test_va_list_few_hfa_4_doubles
	.type	test_va_list_few_hfa_4_doubles, %function
test_va_list_few_hfa_4_doubles:
.LFB112:
	.cfi_startproc
	stp	x29, x30, [sp, -304]!	//,,,
	.cfi_def_cfa_offset 304
	.cfi_offset 29, -304
	.cfi_offset 30, -296
	mov	x29, sp	//,
	str	x0, [sp, 56]	// func, func
	str	x1, [sp, 248]	//,
	str	x2, [sp, 256]	//,
	str	x3, [sp, 264]	//,
	str	x4, [sp, 272]	//,
	str	x5, [sp, 280]	//,
	str	x6, [sp, 288]	//,
	str	x7, [sp, 296]	//,
	str	q0, [sp, 112]	//,
	str	q1, [sp, 128]	//,
	str	q2, [sp, 144]	//,
	str	q3, [sp, 160]	//,
	str	q4, [sp, 176]	//,
	str	q5, [sp, 192]	//,
	str	q6, [sp, 208]	//,
	str	q7, [sp, 224]	//,
// varargs-use-dll.c:140: DECLARE_TEST (few_hfa_4_doubles);
	adrp	x0, :got:__stack_chk_guard	// tmp95,
	ldr	x0, [x0, #:got_lo12:__stack_chk_guard]	// tmp94, tmp95,
	ldr	x1, [x0]	// tmp112,
	str	x1, [sp, 104]	// tmp112, D.7120
	mov	x1, 0	// tmp112
	add	x0, sp, 304	// tmp117,,
	str	x0, [sp, 72]	// tmp117, MEM[(struct  *)&argv].__stack
	add	x0, sp, 304	// tmp118,,
	str	x0, [sp, 80]	// tmp118, MEM[(struct  *)&argv].__gr_top
	add	x0, sp, 240	// tmp97,,
	str	x0, [sp, 88]	// tmp97, MEM[(struct  *)&argv].__vr_top
	mov	w0, -56	// tmp98,
	str	w0, [sp, 96]	// tmp98, MEM[(struct  *)&argv].__gr_offs
	mov	w0, -128	// tmp99,
	str	w0, [sp, 100]	// tmp99, MEM[(struct  *)&argv].__vr_offs
	add	x0, sp, 16	// tmp100,,
	add	x1, sp, 72	// tmp101,,
	ldp	q0, q1, [x1]	// tmp102, tmp103, argv
	stp	q0, q1, [x0]	// tmp102, tmp103,
	add	x0, sp, 16	// tmp104,,
	ldr	x2, [sp, 56]	// tmp105, func
	mov	x1, x0	//, tmp104
	adrp	x0, .LC39	// tmp106,
	add	x0, x0, :lo12:.LC39	//, tmp106,
	blr	x2		// tmp105
	str	w0, [sp, 68]	//, retval
	ldr	w2, [sp, 68]	//, retval
	adrp	x0, .LC39	// tmp107,
	add	x1, x0, :lo12:.LC39	//, tmp107,
	adrp	x0, .LC1	// tmp108,
	add	x0, x0, :lo12:.LC1	//, tmp108,
	bl	printf		//
	ldr	w0, [sp, 68]	// _8, retval
	mov	w1, w0	// <retval>, _8
	adrp	x0, :got:__stack_chk_guard	// tmp111,
	ldr	x0, [x0, #:got_lo12:__stack_chk_guard]	// tmp110, tmp111,
	ldr	x3, [sp, 104]	// tmp113, D.7120
	ldr	x2, [x0]	// tmp114,
	subs	x3, x3, x2	// tmp113, tmp114
	mov	x2, 0	// tmp114
	beq	.L300		//,
	bl	__stack_chk_fail		//
.L300:
	mov	w0, w1	//, <retval>
	ldp	x29, x30, [sp], 304	//,,,
	.cfi_restore 30
	.cfi_restore 29
	.cfi_def_cfa_offset 0
	ret	
	.cfi_endproc
.LFE112:
	.size	test_va_list_few_hfa_4_doubles, .-test_va_list_few_hfa_4_doubles
	.align	2
	.global	use_indirect_va_list_few_hfa_4_doubles
	.type	use_indirect_va_list_few_hfa_4_doubles, %function
use_indirect_va_list_few_hfa_4_doubles:
.LFB113:
	.cfi_startproc
	stp	x29, x30, [sp, -96]!	//,,,
	.cfi_def_cfa_offset 96
	.cfi_offset 29, -96
	.cfi_offset 30, -88
	mov	x29, sp	//,
	str	x19, [sp, 16]	//,
	.cfi_offset 19, -80
	str	x0, [sp, 72]	// func, func
	mov	x19, x1	// tmp94,
// varargs-use-dll.c:140: DECLARE_TEST (few_hfa_4_doubles);
	add	x0, sp, 32	// tmp95,,
	mov	x1, x19	// tmp96, tmp94
	ldp	q0, q1, [x1]	// tmp97, tmp98, argv
	stp	q0, q1, [x0]	// tmp97, tmp98,
	add	x0, sp, 32	// tmp99,,
	ldr	x2, [sp, 72]	// tmp100, func
	mov	x1, x0	//, tmp99
	adrp	x0, .LC39	// tmp101,
	add	x0, x0, :lo12:.LC39	//, tmp101,
	blr	x2		// tmp100
	str	w0, [sp, 92]	//, retval
	ldr	w2, [sp, 92]	//, retval
	adrp	x0, .LC39	// tmp102,
	add	x1, x0, :lo12:.LC39	//, tmp102,
	adrp	x0, .LC2	// tmp103,
	add	x0, x0, :lo12:.LC2	//, tmp103,
	bl	printf		//
	ldr	w0, [sp, 92]	// _6, retval
	ldr	x19, [sp, 16]	//,
	ldp	x29, x30, [sp], 96	//,,,
	.cfi_restore 30
	.cfi_restore 29
	.cfi_restore 19
	.cfi_def_cfa_offset 0
	ret	
	.cfi_endproc
.LFE113:
	.size	use_indirect_va_list_few_hfa_4_doubles, .-use_indirect_va_list_few_hfa_4_doubles
	.align	2
	.global	test_indirect_va_list_few_hfa_4_doubles
	.type	test_indirect_va_list_few_hfa_4_doubles, %function
test_indirect_va_list_few_hfa_4_doubles:
.LFB114:
	.cfi_startproc
	stp	x29, x30, [sp, -304]!	//,,,
	.cfi_def_cfa_offset 304
	.cfi_offset 29, -304
	.cfi_offset 30, -296
	mov	x29, sp	//,
	str	x0, [sp, 56]	// func, func
	str	x1, [sp, 248]	//,
	str	x2, [sp, 256]	//,
	str	x3, [sp, 264]	//,
	str	x4, [sp, 272]	//,
	str	x5, [sp, 280]	//,
	str	x6, [sp, 288]	//,
	str	x7, [sp, 296]	//,
	str	q0, [sp, 112]	//,
	str	q1, [sp, 128]	//,
	str	q2, [sp, 144]	//,
	str	q3, [sp, 160]	//,
	str	q4, [sp, 176]	//,
	str	q5, [sp, 192]	//,
	str	q6, [sp, 208]	//,
	str	q7, [sp, 224]	//,
// varargs-use-dll.c:140: DECLARE_TEST (few_hfa_4_doubles);
	adrp	x0, :got:__stack_chk_guard	// tmp95,
	ldr	x0, [x0, #:got_lo12:__stack_chk_guard]	// tmp94, tmp95,
	ldr	x1, [x0]	// tmp108,
	str	x1, [sp, 104]	// tmp108, D.7127
	mov	x1, 0	// tmp108
	add	x0, sp, 304	// tmp113,,
	str	x0, [sp, 72]	// tmp113, MEM[(struct  *)&argv].__stack
	add	x0, sp, 304	// tmp114,,
	str	x0, [sp, 80]	// tmp114, MEM[(struct  *)&argv].__gr_top
	add	x0, sp, 240	// tmp97,,
	str	x0, [sp, 88]	// tmp97, MEM[(struct  *)&argv].__vr_top
	mov	w0, -56	// tmp98,
	str	w0, [sp, 96]	// tmp98, MEM[(struct  *)&argv].__gr_offs
	mov	w0, -128	// tmp99,
	str	w0, [sp, 100]	// tmp99, MEM[(struct  *)&argv].__vr_offs
	add	x0, sp, 16	// tmp100,,
	add	x1, sp, 72	// tmp101,,
	ldp	q0, q1, [x1]	// tmp102, tmp103, argv
	stp	q0, q1, [x0]	// tmp102, tmp103,
	add	x0, sp, 16	// tmp104,,
	mov	x1, x0	//, tmp104
	ldr	x0, [sp, 56]	//, func
	bl	use_indirect_va_list_few_hfa_4_doubles		//
	str	w0, [sp, 68]	//, retval
	ldr	w0, [sp, 68]	// _7, retval
	mov	w1, w0	// <retval>, _7
	adrp	x0, :got:__stack_chk_guard	// tmp107,
	ldr	x0, [x0, #:got_lo12:__stack_chk_guard]	// tmp106, tmp107,
	ldr	x3, [sp, 104]	// tmp109, D.7127
	ldr	x2, [x0]	// tmp110,
	subs	x3, x3, x2	// tmp109, tmp110
	mov	x2, 0	// tmp110
	beq	.L305		//,
	bl	__stack_chk_fail		//
.L305:
	mov	w0, w1	//, <retval>
	ldp	x29, x30, [sp], 304	//,,,
	.cfi_restore 30
	.cfi_restore 29
	.cfi_def_cfa_offset 0
	ret	
	.cfi_endproc
.LFE114:
	.size	test_indirect_va_list_few_hfa_4_doubles, .-test_indirect_va_list_few_hfa_4_doubles
	.section	.rodata
	.align	3
.LC40:
	.string	"several_hfa_4_doubles"
	.text
	.align	2
	.global	test_va_list_several_hfa_4_doubles
	.type	test_va_list_several_hfa_4_doubles, %function
test_va_list_several_hfa_4_doubles:
.LFB115:
	.cfi_startproc
	stp	x29, x30, [sp, -304]!	//,,,
	.cfi_def_cfa_offset 304
	.cfi_offset 29, -304
	.cfi_offset 30, -296
	mov	x29, sp	//,
	str	x0, [sp, 56]	// func, func
	str	x1, [sp, 248]	//,
	str	x2, [sp, 256]	//,
	str	x3, [sp, 264]	//,
	str	x4, [sp, 272]	//,
	str	x5, [sp, 280]	//,
	str	x6, [sp, 288]	//,
	str	x7, [sp, 296]	//,
	str	q0, [sp, 112]	//,
	str	q1, [sp, 128]	//,
	str	q2, [sp, 144]	//,
	str	q3, [sp, 160]	//,
	str	q4, [sp, 176]	//,
	str	q5, [sp, 192]	//,
	str	q6, [sp, 208]	//,
	str	q7, [sp, 224]	//,
// varargs-use-dll.c:141: DECLARE_TEST (several_hfa_4_doubles);
	adrp	x0, :got:__stack_chk_guard	// tmp95,
	ldr	x0, [x0, #:got_lo12:__stack_chk_guard]	// tmp94, tmp95,
	ldr	x1, [x0]	// tmp112,
	str	x1, [sp, 104]	// tmp112, D.7132
	mov	x1, 0	// tmp112
	add	x0, sp, 304	// tmp117,,
	str	x0, [sp, 72]	// tmp117, MEM[(struct  *)&argv].__stack
	add	x0, sp, 304	// tmp118,,
	str	x0, [sp, 80]	// tmp118, MEM[(struct  *)&argv].__gr_top
	add	x0, sp, 240	// tmp97,,
	str	x0, [sp, 88]	// tmp97, MEM[(struct  *)&argv].__vr_top
	mov	w0, -56	// tmp98,
	str	w0, [sp, 96]	// tmp98, MEM[(struct  *)&argv].__gr_offs
	mov	w0, -128	// tmp99,
	str	w0, [sp, 100]	// tmp99, MEM[(struct  *)&argv].__vr_offs
	add	x0, sp, 16	// tmp100,,
	add	x1, sp, 72	// tmp101,,
	ldp	q0, q1, [x1]	// tmp102, tmp103, argv
	stp	q0, q1, [x0]	// tmp102, tmp103,
	add	x0, sp, 16	// tmp104,,
	ldr	x2, [sp, 56]	// tmp105, func
	mov	x1, x0	//, tmp104
	adrp	x0, .LC40	// tmp106,
	add	x0, x0, :lo12:.LC40	//, tmp106,
	blr	x2		// tmp105
	str	w0, [sp, 68]	//, retval
	ldr	w2, [sp, 68]	//, retval
	adrp	x0, .LC40	// tmp107,
	add	x1, x0, :lo12:.LC40	//, tmp107,
	adrp	x0, .LC1	// tmp108,
	add	x0, x0, :lo12:.LC1	//, tmp108,
	bl	printf		//
	ldr	w0, [sp, 68]	// _8, retval
	mov	w1, w0	// <retval>, _8
	adrp	x0, :got:__stack_chk_guard	// tmp111,
	ldr	x0, [x0, #:got_lo12:__stack_chk_guard]	// tmp110, tmp111,
	ldr	x3, [sp, 104]	// tmp113, D.7132
	ldr	x2, [x0]	// tmp114,
	subs	x3, x3, x2	// tmp113, tmp114
	mov	x2, 0	// tmp114
	beq	.L308		//,
	bl	__stack_chk_fail		//
.L308:
	mov	w0, w1	//, <retval>
	ldp	x29, x30, [sp], 304	//,,,
	.cfi_restore 30
	.cfi_restore 29
	.cfi_def_cfa_offset 0
	ret	
	.cfi_endproc
.LFE115:
	.size	test_va_list_several_hfa_4_doubles, .-test_va_list_several_hfa_4_doubles
	.align	2
	.global	use_indirect_va_list_several_hfa_4_doubles
	.type	use_indirect_va_list_several_hfa_4_doubles, %function
use_indirect_va_list_several_hfa_4_doubles:
.LFB116:
	.cfi_startproc
	stp	x29, x30, [sp, -96]!	//,,,
	.cfi_def_cfa_offset 96
	.cfi_offset 29, -96
	.cfi_offset 30, -88
	mov	x29, sp	//,
	str	x19, [sp, 16]	//,
	.cfi_offset 19, -80
	str	x0, [sp, 72]	// func, func
	mov	x19, x1	// tmp94,
// varargs-use-dll.c:141: DECLARE_TEST (several_hfa_4_doubles);
	add	x0, sp, 32	// tmp95,,
	mov	x1, x19	// tmp96, tmp94
	ldp	q0, q1, [x1]	// tmp97, tmp98, argv
	stp	q0, q1, [x0]	// tmp97, tmp98,
	add	x0, sp, 32	// tmp99,,
	ldr	x2, [sp, 72]	// tmp100, func
	mov	x1, x0	//, tmp99
	adrp	x0, .LC40	// tmp101,
	add	x0, x0, :lo12:.LC40	//, tmp101,
	blr	x2		// tmp100
	str	w0, [sp, 92]	//, retval
	ldr	w2, [sp, 92]	//, retval
	adrp	x0, .LC40	// tmp102,
	add	x1, x0, :lo12:.LC40	//, tmp102,
	adrp	x0, .LC2	// tmp103,
	add	x0, x0, :lo12:.LC2	//, tmp103,
	bl	printf		//
	ldr	w0, [sp, 92]	// _6, retval
	ldr	x19, [sp, 16]	//,
	ldp	x29, x30, [sp], 96	//,,,
	.cfi_restore 30
	.cfi_restore 29
	.cfi_restore 19
	.cfi_def_cfa_offset 0
	ret	
	.cfi_endproc
.LFE116:
	.size	use_indirect_va_list_several_hfa_4_doubles, .-use_indirect_va_list_several_hfa_4_doubles
	.align	2
	.global	test_indirect_va_list_several_hfa_4_doubles
	.type	test_indirect_va_list_several_hfa_4_doubles, %function
test_indirect_va_list_several_hfa_4_doubles:
.LFB117:
	.cfi_startproc
	stp	x29, x30, [sp, -304]!	//,,,
	.cfi_def_cfa_offset 304
	.cfi_offset 29, -304
	.cfi_offset 30, -296
	mov	x29, sp	//,
	str	x0, [sp, 56]	// func, func
	str	x1, [sp, 248]	//,
	str	x2, [sp, 256]	//,
	str	x3, [sp, 264]	//,
	str	x4, [sp, 272]	//,
	str	x5, [sp, 280]	//,
	str	x6, [sp, 288]	//,
	str	x7, [sp, 296]	//,
	str	q0, [sp, 112]	//,
	str	q1, [sp, 128]	//,
	str	q2, [sp, 144]	//,
	str	q3, [sp, 160]	//,
	str	q4, [sp, 176]	//,
	str	q5, [sp, 192]	//,
	str	q6, [sp, 208]	//,
	str	q7, [sp, 224]	//,
// varargs-use-dll.c:141: DECLARE_TEST (several_hfa_4_doubles);
	adrp	x0, :got:__stack_chk_guard	// tmp95,
	ldr	x0, [x0, #:got_lo12:__stack_chk_guard]	// tmp94, tmp95,
	ldr	x1, [x0]	// tmp108,
	str	x1, [sp, 104]	// tmp108, D.7139
	mov	x1, 0	// tmp108
	add	x0, sp, 304	// tmp113,,
	str	x0, [sp, 72]	// tmp113, MEM[(struct  *)&argv].__stack
	add	x0, sp, 304	// tmp114,,
	str	x0, [sp, 80]	// tmp114, MEM[(struct  *)&argv].__gr_top
	add	x0, sp, 240	// tmp97,,
	str	x0, [sp, 88]	// tmp97, MEM[(struct  *)&argv].__vr_top
	mov	w0, -56	// tmp98,
	str	w0, [sp, 96]	// tmp98, MEM[(struct  *)&argv].__gr_offs
	mov	w0, -128	// tmp99,
	str	w0, [sp, 100]	// tmp99, MEM[(struct  *)&argv].__vr_offs
	add	x0, sp, 16	// tmp100,,
	add	x1, sp, 72	// tmp101,,
	ldp	q0, q1, [x1]	// tmp102, tmp103, argv
	stp	q0, q1, [x0]	// tmp102, tmp103,
	add	x0, sp, 16	// tmp104,,
	mov	x1, x0	//, tmp104
	ldr	x0, [sp, 56]	//, func
	bl	use_indirect_va_list_several_hfa_4_doubles		//
	str	w0, [sp, 68]	//, retval
	ldr	w0, [sp, 68]	// _7, retval
	mov	w1, w0	// <retval>, _7
	adrp	x0, :got:__stack_chk_guard	// tmp107,
	ldr	x0, [x0, #:got_lo12:__stack_chk_guard]	// tmp106, tmp107,
	ldr	x3, [sp, 104]	// tmp109, D.7139
	ldr	x2, [x0]	// tmp110,
	subs	x3, x3, x2	// tmp109, tmp110
	mov	x2, 0	// tmp110
	beq	.L313		//,
	bl	__stack_chk_fail		//
.L313:
	mov	w0, w1	//, <retval>
	ldp	x29, x30, [sp], 304	//,,,
	.cfi_restore 30
	.cfi_restore 29
	.cfi_def_cfa_offset 0
	ret	
	.cfi_endproc
.LFE117:
	.size	test_indirect_va_list_several_hfa_4_doubles, .-test_indirect_va_list_several_hfa_4_doubles
	.section	.rodata
	.align	3
.LC41:
	.string	"many_hfa_4_doubles"
	.text
	.align	2
	.global	test_va_list_many_hfa_4_doubles
	.type	test_va_list_many_hfa_4_doubles, %function
test_va_list_many_hfa_4_doubles:
.LFB118:
	.cfi_startproc
	stp	x29, x30, [sp, -304]!	//,,,
	.cfi_def_cfa_offset 304
	.cfi_offset 29, -304
	.cfi_offset 30, -296
	mov	x29, sp	//,
	str	x0, [sp, 56]	// func, func
	str	x1, [sp, 248]	//,
	str	x2, [sp, 256]	//,
	str	x3, [sp, 264]	//,
	str	x4, [sp, 272]	//,
	str	x5, [sp, 280]	//,
	str	x6, [sp, 288]	//,
	str	x7, [sp, 296]	//,
	str	q0, [sp, 112]	//,
	str	q1, [sp, 128]	//,
	str	q2, [sp, 144]	//,
	str	q3, [sp, 160]	//,
	str	q4, [sp, 176]	//,
	str	q5, [sp, 192]	//,
	str	q6, [sp, 208]	//,
	str	q7, [sp, 224]	//,
// varargs-use-dll.c:142: DECLARE_TEST (many_hfa_4_doubles);
	adrp	x0, :got:__stack_chk_guard	// tmp95,
	ldr	x0, [x0, #:got_lo12:__stack_chk_guard]	// tmp94, tmp95,
	ldr	x1, [x0]	// tmp112,
	str	x1, [sp, 104]	// tmp112, D.7144
	mov	x1, 0	// tmp112
	add	x0, sp, 304	// tmp117,,
	str	x0, [sp, 72]	// tmp117, MEM[(struct  *)&argv].__stack
	add	x0, sp, 304	// tmp118,,
	str	x0, [sp, 80]	// tmp118, MEM[(struct  *)&argv].__gr_top
	add	x0, sp, 240	// tmp97,,
	str	x0, [sp, 88]	// tmp97, MEM[(struct  *)&argv].__vr_top
	mov	w0, -56	// tmp98,
	str	w0, [sp, 96]	// tmp98, MEM[(struct  *)&argv].__gr_offs
	mov	w0, -128	// tmp99,
	str	w0, [sp, 100]	// tmp99, MEM[(struct  *)&argv].__vr_offs
	add	x0, sp, 16	// tmp100,,
	add	x1, sp, 72	// tmp101,,
	ldp	q0, q1, [x1]	// tmp102, tmp103, argv
	stp	q0, q1, [x0]	// tmp102, tmp103,
	add	x0, sp, 16	// tmp104,,
	ldr	x2, [sp, 56]	// tmp105, func
	mov	x1, x0	//, tmp104
	adrp	x0, .LC41	// tmp106,
	add	x0, x0, :lo12:.LC41	//, tmp106,
	blr	x2		// tmp105
	str	w0, [sp, 68]	//, retval
	ldr	w2, [sp, 68]	//, retval
	adrp	x0, .LC41	// tmp107,
	add	x1, x0, :lo12:.LC41	//, tmp107,
	adrp	x0, .LC1	// tmp108,
	add	x0, x0, :lo12:.LC1	//, tmp108,
	bl	printf		//
	ldr	w0, [sp, 68]	// _8, retval
	mov	w1, w0	// <retval>, _8
	adrp	x0, :got:__stack_chk_guard	// tmp111,
	ldr	x0, [x0, #:got_lo12:__stack_chk_guard]	// tmp110, tmp111,
	ldr	x3, [sp, 104]	// tmp113, D.7144
	ldr	x2, [x0]	// tmp114,
	subs	x3, x3, x2	// tmp113, tmp114
	mov	x2, 0	// tmp114
	beq	.L316		//,
	bl	__stack_chk_fail		//
.L316:
	mov	w0, w1	//, <retval>
	ldp	x29, x30, [sp], 304	//,,,
	.cfi_restore 30
	.cfi_restore 29
	.cfi_def_cfa_offset 0
	ret	
	.cfi_endproc
.LFE118:
	.size	test_va_list_many_hfa_4_doubles, .-test_va_list_many_hfa_4_doubles
	.align	2
	.global	use_indirect_va_list_many_hfa_4_doubles
	.type	use_indirect_va_list_many_hfa_4_doubles, %function
use_indirect_va_list_many_hfa_4_doubles:
.LFB119:
	.cfi_startproc
	stp	x29, x30, [sp, -96]!	//,,,
	.cfi_def_cfa_offset 96
	.cfi_offset 29, -96
	.cfi_offset 30, -88
	mov	x29, sp	//,
	str	x19, [sp, 16]	//,
	.cfi_offset 19, -80
	str	x0, [sp, 72]	// func, func
	mov	x19, x1	// tmp94,
// varargs-use-dll.c:142: DECLARE_TEST (many_hfa_4_doubles);
	add	x0, sp, 32	// tmp95,,
	mov	x1, x19	// tmp96, tmp94
	ldp	q0, q1, [x1]	// tmp97, tmp98, argv
	stp	q0, q1, [x0]	// tmp97, tmp98,
	add	x0, sp, 32	// tmp99,,
	ldr	x2, [sp, 72]	// tmp100, func
	mov	x1, x0	//, tmp99
	adrp	x0, .LC41	// tmp101,
	add	x0, x0, :lo12:.LC41	//, tmp101,
	blr	x2		// tmp100
	str	w0, [sp, 92]	//, retval
	ldr	w2, [sp, 92]	//, retval
	adrp	x0, .LC41	// tmp102,
	add	x1, x0, :lo12:.LC41	//, tmp102,
	adrp	x0, .LC2	// tmp103,
	add	x0, x0, :lo12:.LC2	//, tmp103,
	bl	printf		//
	ldr	w0, [sp, 92]	// _6, retval
	ldr	x19, [sp, 16]	//,
	ldp	x29, x30, [sp], 96	//,,,
	.cfi_restore 30
	.cfi_restore 29
	.cfi_restore 19
	.cfi_def_cfa_offset 0
	ret	
	.cfi_endproc
.LFE119:
	.size	use_indirect_va_list_many_hfa_4_doubles, .-use_indirect_va_list_many_hfa_4_doubles
	.align	2
	.global	test_indirect_va_list_many_hfa_4_doubles
	.type	test_indirect_va_list_many_hfa_4_doubles, %function
test_indirect_va_list_many_hfa_4_doubles:
.LFB120:
	.cfi_startproc
	stp	x29, x30, [sp, -304]!	//,,,
	.cfi_def_cfa_offset 304
	.cfi_offset 29, -304
	.cfi_offset 30, -296
	mov	x29, sp	//,
	str	x0, [sp, 56]	// func, func
	str	x1, [sp, 248]	//,
	str	x2, [sp, 256]	//,
	str	x3, [sp, 264]	//,
	str	x4, [sp, 272]	//,
	str	x5, [sp, 280]	//,
	str	x6, [sp, 288]	//,
	str	x7, [sp, 296]	//,
	str	q0, [sp, 112]	//,
	str	q1, [sp, 128]	//,
	str	q2, [sp, 144]	//,
	str	q3, [sp, 160]	//,
	str	q4, [sp, 176]	//,
	str	q5, [sp, 192]	//,
	str	q6, [sp, 208]	//,
	str	q7, [sp, 224]	//,
// varargs-use-dll.c:142: DECLARE_TEST (many_hfa_4_doubles);
	adrp	x0, :got:__stack_chk_guard	// tmp95,
	ldr	x0, [x0, #:got_lo12:__stack_chk_guard]	// tmp94, tmp95,
	ldr	x1, [x0]	// tmp108,
	str	x1, [sp, 104]	// tmp108, D.7151
	mov	x1, 0	// tmp108
	add	x0, sp, 304	// tmp113,,
	str	x0, [sp, 72]	// tmp113, MEM[(struct  *)&argv].__stack
	add	x0, sp, 304	// tmp114,,
	str	x0, [sp, 80]	// tmp114, MEM[(struct  *)&argv].__gr_top
	add	x0, sp, 240	// tmp97,,
	str	x0, [sp, 88]	// tmp97, MEM[(struct  *)&argv].__vr_top
	mov	w0, -56	// tmp98,
	str	w0, [sp, 96]	// tmp98, MEM[(struct  *)&argv].__gr_offs
	mov	w0, -128	// tmp99,
	str	w0, [sp, 100]	// tmp99, MEM[(struct  *)&argv].__vr_offs
	add	x0, sp, 16	// tmp100,,
	add	x1, sp, 72	// tmp101,,
	ldp	q0, q1, [x1]	// tmp102, tmp103, argv
	stp	q0, q1, [x0]	// tmp102, tmp103,
	add	x0, sp, 16	// tmp104,,
	mov	x1, x0	//, tmp104
	ldr	x0, [sp, 56]	//, func
	bl	use_indirect_va_list_many_hfa_4_doubles		//
	str	w0, [sp, 68]	//, retval
	ldr	w0, [sp, 68]	// _7, retval
	mov	w1, w0	// <retval>, _7
	adrp	x0, :got:__stack_chk_guard	// tmp107,
	ldr	x0, [x0, #:got_lo12:__stack_chk_guard]	// tmp106, tmp107,
	ldr	x3, [sp, 104]	// tmp109, D.7151
	ldr	x2, [x0]	// tmp110,
	subs	x3, x3, x2	// tmp109, tmp110
	mov	x2, 0	// tmp110
	beq	.L321		//,
	bl	__stack_chk_fail		//
.L321:
	mov	w0, w1	//, <retval>
	ldp	x29, x30, [sp], 304	//,,,
	.cfi_restore 30
	.cfi_restore 29
	.cfi_def_cfa_offset 0
	ret	
	.cfi_endproc
.LFE120:
	.size	test_indirect_va_list_many_hfa_4_doubles, .-test_indirect_va_list_many_hfa_4_doubles
	.section	.rodata
	.align	3
.LC42:
	.string	"few_hva_2_short_vector_8_bytes"
	.text
	.align	2
	.global	test_va_list_few_hva_2_short_vector_8_bytes
	.type	test_va_list_few_hva_2_short_vector_8_bytes, %function
test_va_list_few_hva_2_short_vector_8_bytes:
.LFB121:
	.cfi_startproc
	stp	x29, x30, [sp, -304]!	//,,,
	.cfi_def_cfa_offset 304
	.cfi_offset 29, -304
	.cfi_offset 30, -296
	mov	x29, sp	//,
	str	x0, [sp, 56]	// func, func
	str	x1, [sp, 248]	//,
	str	x2, [sp, 256]	//,
	str	x3, [sp, 264]	//,
	str	x4, [sp, 272]	//,
	str	x5, [sp, 280]	//,
	str	x6, [sp, 288]	//,
	str	x7, [sp, 296]	//,
	str	q0, [sp, 112]	//,
	str	q1, [sp, 128]	//,
	str	q2, [sp, 144]	//,
	str	q3, [sp, 160]	//,
	str	q4, [sp, 176]	//,
	str	q5, [sp, 192]	//,
	str	q6, [sp, 208]	//,
	str	q7, [sp, 224]	//,
// varargs-use-dll.c:144: DECLARE_TEST (few_hva_2_short_vector_8_bytes);
	adrp	x0, :got:__stack_chk_guard	// tmp95,
	ldr	x0, [x0, #:got_lo12:__stack_chk_guard]	// tmp94, tmp95,
	ldr	x1, [x0]	// tmp112,
	str	x1, [sp, 104]	// tmp112, D.7156
	mov	x1, 0	// tmp112
	add	x0, sp, 304	// tmp117,,
	str	x0, [sp, 72]	// tmp117, MEM[(struct  *)&argv].__stack
	add	x0, sp, 304	// tmp118,,
	str	x0, [sp, 80]	// tmp118, MEM[(struct  *)&argv].__gr_top
	add	x0, sp, 240	// tmp97,,
	str	x0, [sp, 88]	// tmp97, MEM[(struct  *)&argv].__vr_top
	mov	w0, -56	// tmp98,
	str	w0, [sp, 96]	// tmp98, MEM[(struct  *)&argv].__gr_offs
	mov	w0, -128	// tmp99,
	str	w0, [sp, 100]	// tmp99, MEM[(struct  *)&argv].__vr_offs
	add	x0, sp, 16	// tmp100,,
	add	x1, sp, 72	// tmp101,,
	ldp	q0, q1, [x1]	// tmp102, tmp103, argv
	stp	q0, q1, [x0]	// tmp102, tmp103,
	add	x0, sp, 16	// tmp104,,
	ldr	x2, [sp, 56]	// tmp105, func
	mov	x1, x0	//, tmp104
	adrp	x0, .LC42	// tmp106,
	add	x0, x0, :lo12:.LC42	//, tmp106,
	blr	x2		// tmp105
	str	w0, [sp, 68]	//, retval
	ldr	w2, [sp, 68]	//, retval
	adrp	x0, .LC42	// tmp107,
	add	x1, x0, :lo12:.LC42	//, tmp107,
	adrp	x0, .LC1	// tmp108,
	add	x0, x0, :lo12:.LC1	//, tmp108,
	bl	printf		//
	ldr	w0, [sp, 68]	// _8, retval
	mov	w1, w0	// <retval>, _8
	adrp	x0, :got:__stack_chk_guard	// tmp111,
	ldr	x0, [x0, #:got_lo12:__stack_chk_guard]	// tmp110, tmp111,
	ldr	x3, [sp, 104]	// tmp113, D.7156
	ldr	x2, [x0]	// tmp114,
	subs	x3, x3, x2	// tmp113, tmp114
	mov	x2, 0	// tmp114
	beq	.L324		//,
	bl	__stack_chk_fail		//
.L324:
	mov	w0, w1	//, <retval>
	ldp	x29, x30, [sp], 304	//,,,
	.cfi_restore 30
	.cfi_restore 29
	.cfi_def_cfa_offset 0
	ret	
	.cfi_endproc
.LFE121:
	.size	test_va_list_few_hva_2_short_vector_8_bytes, .-test_va_list_few_hva_2_short_vector_8_bytes
	.align	2
	.global	use_indirect_va_list_few_hva_2_short_vector_8_bytes
	.type	use_indirect_va_list_few_hva_2_short_vector_8_bytes, %function
use_indirect_va_list_few_hva_2_short_vector_8_bytes:
.LFB122:
	.cfi_startproc
	stp	x29, x30, [sp, -96]!	//,,,
	.cfi_def_cfa_offset 96
	.cfi_offset 29, -96
	.cfi_offset 30, -88
	mov	x29, sp	//,
	str	x19, [sp, 16]	//,
	.cfi_offset 19, -80
	str	x0, [sp, 72]	// func, func
	mov	x19, x1	// tmp94,
// varargs-use-dll.c:144: DECLARE_TEST (few_hva_2_short_vector_8_bytes);
	add	x0, sp, 32	// tmp95,,
	mov	x1, x19	// tmp96, tmp94
	ldp	q0, q1, [x1]	// tmp97, tmp98, argv
	stp	q0, q1, [x0]	// tmp97, tmp98,
	add	x0, sp, 32	// tmp99,,
	ldr	x2, [sp, 72]	// tmp100, func
	mov	x1, x0	//, tmp99
	adrp	x0, .LC42	// tmp101,
	add	x0, x0, :lo12:.LC42	//, tmp101,
	blr	x2		// tmp100
	str	w0, [sp, 92]	//, retval
	ldr	w2, [sp, 92]	//, retval
	adrp	x0, .LC42	// tmp102,
	add	x1, x0, :lo12:.LC42	//, tmp102,
	adrp	x0, .LC2	// tmp103,
	add	x0, x0, :lo12:.LC2	//, tmp103,
	bl	printf		//
	ldr	w0, [sp, 92]	// _6, retval
	ldr	x19, [sp, 16]	//,
	ldp	x29, x30, [sp], 96	//,,,
	.cfi_restore 30
	.cfi_restore 29
	.cfi_restore 19
	.cfi_def_cfa_offset 0
	ret	
	.cfi_endproc
.LFE122:
	.size	use_indirect_va_list_few_hva_2_short_vector_8_bytes, .-use_indirect_va_list_few_hva_2_short_vector_8_bytes
	.align	2
	.global	test_indirect_va_list_few_hva_2_short_vector_8_bytes
	.type	test_indirect_va_list_few_hva_2_short_vector_8_bytes, %function
test_indirect_va_list_few_hva_2_short_vector_8_bytes:
.LFB123:
	.cfi_startproc
	stp	x29, x30, [sp, -304]!	//,,,
	.cfi_def_cfa_offset 304
	.cfi_offset 29, -304
	.cfi_offset 30, -296
	mov	x29, sp	//,
	str	x0, [sp, 56]	// func, func
	str	x1, [sp, 248]	//,
	str	x2, [sp, 256]	//,
	str	x3, [sp, 264]	//,
	str	x4, [sp, 272]	//,
	str	x5, [sp, 280]	//,
	str	x6, [sp, 288]	//,
	str	x7, [sp, 296]	//,
	str	q0, [sp, 112]	//,
	str	q1, [sp, 128]	//,
	str	q2, [sp, 144]	//,
	str	q3, [sp, 160]	//,
	str	q4, [sp, 176]	//,
	str	q5, [sp, 192]	//,
	str	q6, [sp, 208]	//,
	str	q7, [sp, 224]	//,
// varargs-use-dll.c:144: DECLARE_TEST (few_hva_2_short_vector_8_bytes);
	adrp	x0, :got:__stack_chk_guard	// tmp95,
	ldr	x0, [x0, #:got_lo12:__stack_chk_guard]	// tmp94, tmp95,
	ldr	x1, [x0]	// tmp108,
	str	x1, [sp, 104]	// tmp108, D.7163
	mov	x1, 0	// tmp108
	add	x0, sp, 304	// tmp113,,
	str	x0, [sp, 72]	// tmp113, MEM[(struct  *)&argv].__stack
	add	x0, sp, 304	// tmp114,,
	str	x0, [sp, 80]	// tmp114, MEM[(struct  *)&argv].__gr_top
	add	x0, sp, 240	// tmp97,,
	str	x0, [sp, 88]	// tmp97, MEM[(struct  *)&argv].__vr_top
	mov	w0, -56	// tmp98,
	str	w0, [sp, 96]	// tmp98, MEM[(struct  *)&argv].__gr_offs
	mov	w0, -128	// tmp99,
	str	w0, [sp, 100]	// tmp99, MEM[(struct  *)&argv].__vr_offs
	add	x0, sp, 16	// tmp100,,
	add	x1, sp, 72	// tmp101,,
	ldp	q0, q1, [x1]	// tmp102, tmp103, argv
	stp	q0, q1, [x0]	// tmp102, tmp103,
	add	x0, sp, 16	// tmp104,,
	mov	x1, x0	//, tmp104
	ldr	x0, [sp, 56]	//, func
	bl	use_indirect_va_list_few_hva_2_short_vector_8_bytes		//
	str	w0, [sp, 68]	//, retval
	ldr	w0, [sp, 68]	// _7, retval
	mov	w1, w0	// <retval>, _7
	adrp	x0, :got:__stack_chk_guard	// tmp107,
	ldr	x0, [x0, #:got_lo12:__stack_chk_guard]	// tmp106, tmp107,
	ldr	x3, [sp, 104]	// tmp109, D.7163
	ldr	x2, [x0]	// tmp110,
	subs	x3, x3, x2	// tmp109, tmp110
	mov	x2, 0	// tmp110
	beq	.L329		//,
	bl	__stack_chk_fail		//
.L329:
	mov	w0, w1	//, <retval>
	ldp	x29, x30, [sp], 304	//,,,
	.cfi_restore 30
	.cfi_restore 29
	.cfi_def_cfa_offset 0
	ret	
	.cfi_endproc
.LFE123:
	.size	test_indirect_va_list_few_hva_2_short_vector_8_bytes, .-test_indirect_va_list_few_hva_2_short_vector_8_bytes
	.section	.rodata
	.align	3
.LC43:
	.string	"several_hva_2_short_vector_8_bytes"
	.text
	.align	2
	.global	test_va_list_several_hva_2_short_vector_8_bytes
	.type	test_va_list_several_hva_2_short_vector_8_bytes, %function
test_va_list_several_hva_2_short_vector_8_bytes:
.LFB124:
	.cfi_startproc
	stp	x29, x30, [sp, -304]!	//,,,
	.cfi_def_cfa_offset 304
	.cfi_offset 29, -304
	.cfi_offset 30, -296
	mov	x29, sp	//,
	str	x0, [sp, 56]	// func, func
	str	x1, [sp, 248]	//,
	str	x2, [sp, 256]	//,
	str	x3, [sp, 264]	//,
	str	x4, [sp, 272]	//,
	str	x5, [sp, 280]	//,
	str	x6, [sp, 288]	//,
	str	x7, [sp, 296]	//,
	str	q0, [sp, 112]	//,
	str	q1, [sp, 128]	//,
	str	q2, [sp, 144]	//,
	str	q3, [sp, 160]	//,
	str	q4, [sp, 176]	//,
	str	q5, [sp, 192]	//,
	str	q6, [sp, 208]	//,
	str	q7, [sp, 224]	//,
// varargs-use-dll.c:145: DECLARE_TEST (several_hva_2_short_vector_8_bytes);
	adrp	x0, :got:__stack_chk_guard	// tmp95,
	ldr	x0, [x0, #:got_lo12:__stack_chk_guard]	// tmp94, tmp95,
	ldr	x1, [x0]	// tmp112,
	str	x1, [sp, 104]	// tmp112, D.7168
	mov	x1, 0	// tmp112
	add	x0, sp, 304	// tmp117,,
	str	x0, [sp, 72]	// tmp117, MEM[(struct  *)&argv].__stack
	add	x0, sp, 304	// tmp118,,
	str	x0, [sp, 80]	// tmp118, MEM[(struct  *)&argv].__gr_top
	add	x0, sp, 240	// tmp97,,
	str	x0, [sp, 88]	// tmp97, MEM[(struct  *)&argv].__vr_top
	mov	w0, -56	// tmp98,
	str	w0, [sp, 96]	// tmp98, MEM[(struct  *)&argv].__gr_offs
	mov	w0, -128	// tmp99,
	str	w0, [sp, 100]	// tmp99, MEM[(struct  *)&argv].__vr_offs
	add	x0, sp, 16	// tmp100,,
	add	x1, sp, 72	// tmp101,,
	ldp	q0, q1, [x1]	// tmp102, tmp103, argv
	stp	q0, q1, [x0]	// tmp102, tmp103,
	add	x0, sp, 16	// tmp104,,
	ldr	x2, [sp, 56]	// tmp105, func
	mov	x1, x0	//, tmp104
	adrp	x0, .LC43	// tmp106,
	add	x0, x0, :lo12:.LC43	//, tmp106,
	blr	x2		// tmp105
	str	w0, [sp, 68]	//, retval
	ldr	w2, [sp, 68]	//, retval
	adrp	x0, .LC43	// tmp107,
	add	x1, x0, :lo12:.LC43	//, tmp107,
	adrp	x0, .LC1	// tmp108,
	add	x0, x0, :lo12:.LC1	//, tmp108,
	bl	printf		//
	ldr	w0, [sp, 68]	// _8, retval
	mov	w1, w0	// <retval>, _8
	adrp	x0, :got:__stack_chk_guard	// tmp111,
	ldr	x0, [x0, #:got_lo12:__stack_chk_guard]	// tmp110, tmp111,
	ldr	x3, [sp, 104]	// tmp113, D.7168
	ldr	x2, [x0]	// tmp114,
	subs	x3, x3, x2	// tmp113, tmp114
	mov	x2, 0	// tmp114
	beq	.L332		//,
	bl	__stack_chk_fail		//
.L332:
	mov	w0, w1	//, <retval>
	ldp	x29, x30, [sp], 304	//,,,
	.cfi_restore 30
	.cfi_restore 29
	.cfi_def_cfa_offset 0
	ret	
	.cfi_endproc
.LFE124:
	.size	test_va_list_several_hva_2_short_vector_8_bytes, .-test_va_list_several_hva_2_short_vector_8_bytes
	.align	2
	.global	use_indirect_va_list_several_hva_2_short_vector_8_bytes
	.type	use_indirect_va_list_several_hva_2_short_vector_8_bytes, %function
use_indirect_va_list_several_hva_2_short_vector_8_bytes:
.LFB125:
	.cfi_startproc
	stp	x29, x30, [sp, -96]!	//,,,
	.cfi_def_cfa_offset 96
	.cfi_offset 29, -96
	.cfi_offset 30, -88
	mov	x29, sp	//,
	str	x19, [sp, 16]	//,
	.cfi_offset 19, -80
	str	x0, [sp, 72]	// func, func
	mov	x19, x1	// tmp94,
// varargs-use-dll.c:145: DECLARE_TEST (several_hva_2_short_vector_8_bytes);
	add	x0, sp, 32	// tmp95,,
	mov	x1, x19	// tmp96, tmp94
	ldp	q0, q1, [x1]	// tmp97, tmp98, argv
	stp	q0, q1, [x0]	// tmp97, tmp98,
	add	x0, sp, 32	// tmp99,,
	ldr	x2, [sp, 72]	// tmp100, func
	mov	x1, x0	//, tmp99
	adrp	x0, .LC43	// tmp101,
	add	x0, x0, :lo12:.LC43	//, tmp101,
	blr	x2		// tmp100
	str	w0, [sp, 92]	//, retval
	ldr	w2, [sp, 92]	//, retval
	adrp	x0, .LC43	// tmp102,
	add	x1, x0, :lo12:.LC43	//, tmp102,
	adrp	x0, .LC2	// tmp103,
	add	x0, x0, :lo12:.LC2	//, tmp103,
	bl	printf		//
	ldr	w0, [sp, 92]	// _6, retval
	ldr	x19, [sp, 16]	//,
	ldp	x29, x30, [sp], 96	//,,,
	.cfi_restore 30
	.cfi_restore 29
	.cfi_restore 19
	.cfi_def_cfa_offset 0
	ret	
	.cfi_endproc
.LFE125:
	.size	use_indirect_va_list_several_hva_2_short_vector_8_bytes, .-use_indirect_va_list_several_hva_2_short_vector_8_bytes
	.align	2
	.global	test_indirect_va_list_several_hva_2_short_vector_8_bytes
	.type	test_indirect_va_list_several_hva_2_short_vector_8_bytes, %function
test_indirect_va_list_several_hva_2_short_vector_8_bytes:
.LFB126:
	.cfi_startproc
	stp	x29, x30, [sp, -304]!	//,,,
	.cfi_def_cfa_offset 304
	.cfi_offset 29, -304
	.cfi_offset 30, -296
	mov	x29, sp	//,
	str	x0, [sp, 56]	// func, func
	str	x1, [sp, 248]	//,
	str	x2, [sp, 256]	//,
	str	x3, [sp, 264]	//,
	str	x4, [sp, 272]	//,
	str	x5, [sp, 280]	//,
	str	x6, [sp, 288]	//,
	str	x7, [sp, 296]	//,
	str	q0, [sp, 112]	//,
	str	q1, [sp, 128]	//,
	str	q2, [sp, 144]	//,
	str	q3, [sp, 160]	//,
	str	q4, [sp, 176]	//,
	str	q5, [sp, 192]	//,
	str	q6, [sp, 208]	//,
	str	q7, [sp, 224]	//,
// varargs-use-dll.c:145: DECLARE_TEST (several_hva_2_short_vector_8_bytes);
	adrp	x0, :got:__stack_chk_guard	// tmp95,
	ldr	x0, [x0, #:got_lo12:__stack_chk_guard]	// tmp94, tmp95,
	ldr	x1, [x0]	// tmp108,
	str	x1, [sp, 104]	// tmp108, D.7175
	mov	x1, 0	// tmp108
	add	x0, sp, 304	// tmp113,,
	str	x0, [sp, 72]	// tmp113, MEM[(struct  *)&argv].__stack
	add	x0, sp, 304	// tmp114,,
	str	x0, [sp, 80]	// tmp114, MEM[(struct  *)&argv].__gr_top
	add	x0, sp, 240	// tmp97,,
	str	x0, [sp, 88]	// tmp97, MEM[(struct  *)&argv].__vr_top
	mov	w0, -56	// tmp98,
	str	w0, [sp, 96]	// tmp98, MEM[(struct  *)&argv].__gr_offs
	mov	w0, -128	// tmp99,
	str	w0, [sp, 100]	// tmp99, MEM[(struct  *)&argv].__vr_offs
	add	x0, sp, 16	// tmp100,,
	add	x1, sp, 72	// tmp101,,
	ldp	q0, q1, [x1]	// tmp102, tmp103, argv
	stp	q0, q1, [x0]	// tmp102, tmp103,
	add	x0, sp, 16	// tmp104,,
	mov	x1, x0	//, tmp104
	ldr	x0, [sp, 56]	//, func
	bl	use_indirect_va_list_several_hva_2_short_vector_8_bytes		//
	str	w0, [sp, 68]	//, retval
	ldr	w0, [sp, 68]	// _7, retval
	mov	w1, w0	// <retval>, _7
	adrp	x0, :got:__stack_chk_guard	// tmp107,
	ldr	x0, [x0, #:got_lo12:__stack_chk_guard]	// tmp106, tmp107,
	ldr	x3, [sp, 104]	// tmp109, D.7175
	ldr	x2, [x0]	// tmp110,
	subs	x3, x3, x2	// tmp109, tmp110
	mov	x2, 0	// tmp110
	beq	.L337		//,
	bl	__stack_chk_fail		//
.L337:
	mov	w0, w1	//, <retval>
	ldp	x29, x30, [sp], 304	//,,,
	.cfi_restore 30
	.cfi_restore 29
	.cfi_def_cfa_offset 0
	ret	
	.cfi_endproc
.LFE126:
	.size	test_indirect_va_list_several_hva_2_short_vector_8_bytes, .-test_indirect_va_list_several_hva_2_short_vector_8_bytes
	.section	.rodata
	.align	3
.LC44:
	.string	"many_hva_2_short_vector_8_bytes"
	.text
	.align	2
	.global	test_va_list_many_hva_2_short_vector_8_bytes
	.type	test_va_list_many_hva_2_short_vector_8_bytes, %function
test_va_list_many_hva_2_short_vector_8_bytes:
.LFB127:
	.cfi_startproc
	stp	x29, x30, [sp, -304]!	//,,,
	.cfi_def_cfa_offset 304
	.cfi_offset 29, -304
	.cfi_offset 30, -296
	mov	x29, sp	//,
	str	x0, [sp, 56]	// func, func
	str	x1, [sp, 248]	//,
	str	x2, [sp, 256]	//,
	str	x3, [sp, 264]	//,
	str	x4, [sp, 272]	//,
	str	x5, [sp, 280]	//,
	str	x6, [sp, 288]	//,
	str	x7, [sp, 296]	//,
	str	q0, [sp, 112]	//,
	str	q1, [sp, 128]	//,
	str	q2, [sp, 144]	//,
	str	q3, [sp, 160]	//,
	str	q4, [sp, 176]	//,
	str	q5, [sp, 192]	//,
	str	q6, [sp, 208]	//,
	str	q7, [sp, 224]	//,
// varargs-use-dll.c:146: DECLARE_TEST (many_hva_2_short_vector_8_bytes);
	adrp	x0, :got:__stack_chk_guard	// tmp95,
	ldr	x0, [x0, #:got_lo12:__stack_chk_guard]	// tmp94, tmp95,
	ldr	x1, [x0]	// tmp112,
	str	x1, [sp, 104]	// tmp112, D.7180
	mov	x1, 0	// tmp112
	add	x0, sp, 304	// tmp117,,
	str	x0, [sp, 72]	// tmp117, MEM[(struct  *)&argv].__stack
	add	x0, sp, 304	// tmp118,,
	str	x0, [sp, 80]	// tmp118, MEM[(struct  *)&argv].__gr_top
	add	x0, sp, 240	// tmp97,,
