	.text
	.def	@feat.00;
	.scl	3;
	.type	0;
	.endef
	.globl	@feat.00
.set @feat.00, 0
	.file	"varargs-use-dll.c"
	.def	vswprintf;
	.scl	3;
	.type	32;
	.endef
	.p2align	2                               // -- Begin function vswprintf
vswprintf:                              // @vswprintf
.seh_proc vswprintf
// %bb.0:
	sub	sp, sp, #48
	.seh_stackalloc	48
	str	x30, [sp, #32]                  // 8-byte Folded Spill
	.seh_save_reg	x30, 32
	.seh_endprologue
	str	x0, [sp, #24]
	str	x1, [sp, #16]
	str	x2, [sp, #8]
	str	x3, [sp]
	ldr	x0, [sp, #24]
	ldr	x1, [sp, #16]
	ldr	x2, [sp, #8]
	ldr	x3, [sp]
	bl	__mingw_vswprintf
	.seh_startepilogue
	ldr	x30, [sp, #32]                  // 8-byte Folded Reload
	.seh_save_reg	x30, 32
	add	sp, sp, #48
	.seh_stackalloc	48
	.seh_endepilogue
	ret
	.seh_endfunclet
	.seh_endproc
                                        // -- End function
	.def	__chkstk;
	.scl	2;
	.type	32;
	.endef
	.globl	__chkstk                        // -- Begin function __chkstk
	.p2align	2
__chkstk:                               // @__chkstk
// %bb.0:
	ret
                                        // -- End function
	.def	test_va_list_no_arguments;
	.scl	2;
	.type	32;
	.endef
	.globl	test_va_list_no_arguments       // -- Begin function test_va_list_no_arguments
	.p2align	2
test_va_list_no_arguments:              // @test_va_list_no_arguments
.seh_proc test_va_list_no_arguments
// %bb.0:
	sub	sp, sp, #112
	.seh_stackalloc	112
	str	x30, [sp, #32]                  // 8-byte Folded Spill
	.seh_save_reg	x30, 32
	.seh_endprologue
	str	x7, [sp, #104]
	str	x6, [sp, #96]
	str	x5, [sp, #88]
	str	x4, [sp, #80]
	str	x3, [sp, #72]
	str	x2, [sp, #64]
	str	x1, [sp, #56]
	str	x0, [sp, #24]
	add	x8, sp, #56
	str	x8, [sp, #16]
	ldr	x8, [sp, #24]
	ldr	x1, [sp, #16]
	adrp	x0, .L.str
	add	x0, x0, :lo12:.L.str
	str	x0, [sp]                        // 8-byte Folded Spill
	blr	x8
	ldr	x1, [sp]                        // 8-byte Folded Reload
	str	w0, [sp, #12]
	ldr	w2, [sp, #12]
	adrp	x0, .L.str.1
	add	x0, x0, :lo12:.L.str.1
	bl	__mingw_printf
	ldr	w0, [sp, #12]
	.seh_startepilogue
	ldr	x30, [sp, #32]                  // 8-byte Folded Reload
	.seh_save_reg	x30, 32
	add	sp, sp, #112
	.seh_stackalloc	112
	.seh_endepilogue
	ret
	.seh_endfunclet
	.seh_endproc
                                        // -- End function
	.def	use_indirect_va_list_no_arguments;
	.scl	2;
	.type	32;
	.endef
	.globl	use_indirect_va_list_no_arguments // -- Begin function use_indirect_va_list_no_arguments
	.p2align	2
use_indirect_va_list_no_arguments:      // @use_indirect_va_list_no_arguments
.seh_proc use_indirect_va_list_no_arguments
// %bb.0:
	sub	sp, sp, #48
	.seh_stackalloc	48
	str	x30, [sp, #32]                  // 8-byte Folded Spill
	.seh_save_reg	x30, 32
	.seh_endprologue
	str	x0, [sp, #24]
	str	x1, [sp, #16]
	ldr	x8, [sp, #24]
	ldr	x1, [sp, #16]
	adrp	x0, .L.str
	add	x0, x0, :lo12:.L.str
	str	x0, [sp]                        // 8-byte Folded Spill
	blr	x8
	ldr	x1, [sp]                        // 8-byte Folded Reload
	str	w0, [sp, #12]
	ldr	w2, [sp, #12]
	adrp	x0, .L.str.2
	add	x0, x0, :lo12:.L.str.2
	bl	__mingw_printf
	ldr	w0, [sp, #12]
	.seh_startepilogue
	ldr	x30, [sp, #32]                  // 8-byte Folded Reload
	.seh_save_reg	x30, 32
	add	sp, sp, #48
	.seh_stackalloc	48
	.seh_endepilogue
	ret
	.seh_endfunclet
	.seh_endproc
                                        // -- End function
	.def	test_indirect_va_list_no_arguments;
	.scl	2;
	.type	32;
	.endef
	.globl	test_indirect_va_list_no_arguments // -- Begin function test_indirect_va_list_no_arguments
	.p2align	2
test_indirect_va_list_no_arguments:     // @test_indirect_va_list_no_arguments
.seh_proc test_indirect_va_list_no_arguments
// %bb.0:
	sub	sp, sp, #112
	.seh_stackalloc	112
	str	x30, [sp, #32]                  // 8-byte Folded Spill
	.seh_save_reg	x30, 32
	.seh_endprologue
	str	x7, [sp, #104]
	str	x6, [sp, #96]
	str	x5, [sp, #88]
	str	x4, [sp, #80]
	str	x3, [sp, #72]
	str	x2, [sp, #64]
	str	x1, [sp, #56]
	str	x0, [sp, #24]
	add	x8, sp, #56
	str	x8, [sp, #16]
	ldr	x0, [sp, #24]
	ldr	x1, [sp, #16]
	bl	use_indirect_va_list_no_arguments
	str	w0, [sp, #12]
	ldr	w0, [sp, #12]
	.seh_startepilogue
	ldr	x30, [sp, #32]                  // 8-byte Folded Reload
	.seh_save_reg	x30, 32
	add	sp, sp, #112
	.seh_stackalloc	112
	.seh_endepilogue
	ret
	.seh_endfunclet
	.seh_endproc
                                        // -- End function
	.def	test_va_list_few_longs;
	.scl	2;
	.type	32;
	.endef
	.globl	test_va_list_few_longs          // -- Begin function test_va_list_few_longs
	.p2align	2
test_va_list_few_longs:                 // @test_va_list_few_longs
.seh_proc test_va_list_few_longs
// %bb.0:
	sub	sp, sp, #112
	.seh_stackalloc	112
	str	x30, [sp, #32]                  // 8-byte Folded Spill
	.seh_save_reg	x30, 32
	.seh_endprologue
	str	x7, [sp, #104]
	str	x6, [sp, #96]
	str	x5, [sp, #88]
	str	x4, [sp, #80]
	str	x3, [sp, #72]
	str	x2, [sp, #64]
	str	x1, [sp, #56]
	str	x0, [sp, #24]
	add	x8, sp, #56
	str	x8, [sp, #16]
	ldr	x8, [sp, #24]
	ldr	x1, [sp, #16]
	adrp	x0, .L.str.3
	add	x0, x0, :lo12:.L.str.3
	str	x0, [sp]                        // 8-byte Folded Spill
	blr	x8
	ldr	x1, [sp]                        // 8-byte Folded Reload
	str	w0, [sp, #12]
	ldr	w2, [sp, #12]
	adrp	x0, .L.str.1
	add	x0, x0, :lo12:.L.str.1
	bl	__mingw_printf
	ldr	w0, [sp, #12]
	.seh_startepilogue
	ldr	x30, [sp, #32]                  // 8-byte Folded Reload
	.seh_save_reg	x30, 32
	add	sp, sp, #112
	.seh_stackalloc	112
	.seh_endepilogue
	ret
	.seh_endfunclet
	.seh_endproc
                                        // -- End function
	.def	use_indirect_va_list_few_longs;
	.scl	2;
	.type	32;
	.endef
	.globl	use_indirect_va_list_few_longs  // -- Begin function use_indirect_va_list_few_longs
	.p2align	2
use_indirect_va_list_few_longs:         // @use_indirect_va_list_few_longs
.seh_proc use_indirect_va_list_few_longs
// %bb.0:
	sub	sp, sp, #48
	.seh_stackalloc	48
	str	x30, [sp, #32]                  // 8-byte Folded Spill
	.seh_save_reg	x30, 32
	.seh_endprologue
	str	x0, [sp, #24]
	str	x1, [sp, #16]
	ldr	x8, [sp, #24]
	ldr	x1, [sp, #16]
	adrp	x0, .L.str.3
	add	x0, x0, :lo12:.L.str.3
	str	x0, [sp]                        // 8-byte Folded Spill
	blr	x8
	ldr	x1, [sp]                        // 8-byte Folded Reload
	str	w0, [sp, #12]
	ldr	w2, [sp, #12]
	adrp	x0, .L.str.2
	add	x0, x0, :lo12:.L.str.2
	bl	__mingw_printf
	ldr	w0, [sp, #12]
	.seh_startepilogue
	ldr	x30, [sp, #32]                  // 8-byte Folded Reload
	.seh_save_reg	x30, 32
	add	sp, sp, #48
	.seh_stackalloc	48
	.seh_endepilogue
	ret
	.seh_endfunclet
	.seh_endproc
                                        // -- End function
	.def	test_indirect_va_list_few_longs;
	.scl	2;
	.type	32;
	.endef
	.globl	test_indirect_va_list_few_longs // -- Begin function test_indirect_va_list_few_longs
	.p2align	2
test_indirect_va_list_few_longs:        // @test_indirect_va_list_few_longs
.seh_proc test_indirect_va_list_few_longs
// %bb.0:
	sub	sp, sp, #112
	.seh_stackalloc	112
	str	x30, [sp, #32]                  // 8-byte Folded Spill
	.seh_save_reg	x30, 32
	.seh_endprologue
	str	x7, [sp, #104]
	str	x6, [sp, #96]
	str	x5, [sp, #88]
	str	x4, [sp, #80]
	str	x3, [sp, #72]
	str	x2, [sp, #64]
	str	x1, [sp, #56]
	str	x0, [sp, #24]
	add	x8, sp, #56
	str	x8, [sp, #16]
	ldr	x0, [sp, #24]
	ldr	x1, [sp, #16]
	bl	use_indirect_va_list_few_longs
	str	w0, [sp, #12]
	ldr	w0, [sp, #12]
	.seh_startepilogue
	ldr	x30, [sp, #32]                  // 8-byte Folded Reload
	.seh_save_reg	x30, 32
	add	sp, sp, #112
	.seh_stackalloc	112
	.seh_endepilogue
	ret
	.seh_endfunclet
	.seh_endproc
                                        // -- End function
	.def	test_va_list_several_longs;
	.scl	2;
	.type	32;
	.endef
	.globl	test_va_list_several_longs      // -- Begin function test_va_list_several_longs
	.p2align	2
test_va_list_several_longs:             // @test_va_list_several_longs
.seh_proc test_va_list_several_longs
// %bb.0:
	sub	sp, sp, #112
	.seh_stackalloc	112
	str	x30, [sp, #32]                  // 8-byte Folded Spill
	.seh_save_reg	x30, 32
	.seh_endprologue
	str	x7, [sp, #104]
	str	x6, [sp, #96]
	str	x5, [sp, #88]
	str	x4, [sp, #80]
	str	x3, [sp, #72]
	str	x2, [sp, #64]
	str	x1, [sp, #56]
	str	x0, [sp, #24]
	add	x8, sp, #56
	str	x8, [sp, #16]
	ldr	x8, [sp, #24]
	ldr	x1, [sp, #16]
	adrp	x0, .L.str.4
	add	x0, x0, :lo12:.L.str.4
	str	x0, [sp]                        // 8-byte Folded Spill
	blr	x8
	ldr	x1, [sp]                        // 8-byte Folded Reload
	str	w0, [sp, #12]
	ldr	w2, [sp, #12]
	adrp	x0, .L.str.1
	add	x0, x0, :lo12:.L.str.1
	bl	__mingw_printf
	ldr	w0, [sp, #12]
	.seh_startepilogue
	ldr	x30, [sp, #32]                  // 8-byte Folded Reload
	.seh_save_reg	x30, 32
	add	sp, sp, #112
	.seh_stackalloc	112
	.seh_endepilogue
	ret
	.seh_endfunclet
	.seh_endproc
                                        // -- End function
	.def	use_indirect_va_list_several_longs;
	.scl	2;
	.type	32;
	.endef
	.globl	use_indirect_va_list_several_longs // -- Begin function use_indirect_va_list_several_longs
	.p2align	2
use_indirect_va_list_several_longs:     // @use_indirect_va_list_several_longs
.seh_proc use_indirect_va_list_several_longs
// %bb.0:
	sub	sp, sp, #48
	.seh_stackalloc	48
	str	x30, [sp, #32]                  // 8-byte Folded Spill
	.seh_save_reg	x30, 32
	.seh_endprologue
	str	x0, [sp, #24]
	str	x1, [sp, #16]
	ldr	x8, [sp, #24]
	ldr	x1, [sp, #16]
	adrp	x0, .L.str.4
	add	x0, x0, :lo12:.L.str.4
	str	x0, [sp]                        // 8-byte Folded Spill
	blr	x8
	ldr	x1, [sp]                        // 8-byte Folded Reload
	str	w0, [sp, #12]
	ldr	w2, [sp, #12]
	adrp	x0, .L.str.2
	add	x0, x0, :lo12:.L.str.2
	bl	__mingw_printf
	ldr	w0, [sp, #12]
	.seh_startepilogue
	ldr	x30, [sp, #32]                  // 8-byte Folded Reload
	.seh_save_reg	x30, 32
	add	sp, sp, #48
	.seh_stackalloc	48
	.seh_endepilogue
	ret
	.seh_endfunclet
	.seh_endproc
                                        // -- End function
	.def	test_indirect_va_list_several_longs;
	.scl	2;
	.type	32;
	.endef
	.globl	test_indirect_va_list_several_longs // -- Begin function test_indirect_va_list_several_longs
	.p2align	2
test_indirect_va_list_several_longs:    // @test_indirect_va_list_several_longs
.seh_proc test_indirect_va_list_several_longs
// %bb.0:
	sub	sp, sp, #112
	.seh_stackalloc	112
	str	x30, [sp, #32]                  // 8-byte Folded Spill
	.seh_save_reg	x30, 32
	.seh_endprologue
	str	x7, [sp, #104]
	str	x6, [sp, #96]
	str	x5, [sp, #88]
	str	x4, [sp, #80]
	str	x3, [sp, #72]
	str	x2, [sp, #64]
	str	x1, [sp, #56]
	str	x0, [sp, #24]
	add	x8, sp, #56
	str	x8, [sp, #16]
	ldr	x0, [sp, #24]
	ldr	x1, [sp, #16]
	bl	use_indirect_va_list_several_longs
	str	w0, [sp, #12]
	ldr	w0, [sp, #12]
	.seh_startepilogue
	ldr	x30, [sp, #32]                  // 8-byte Folded Reload
	.seh_save_reg	x30, 32
	add	sp, sp, #112
	.seh_stackalloc	112
	.seh_endepilogue
	ret
	.seh_endfunclet
	.seh_endproc
                                        // -- End function
	.def	test_va_list_many_longs;
	.scl	2;
	.type	32;
	.endef
	.globl	test_va_list_many_longs         // -- Begin function test_va_list_many_longs
	.p2align	2
test_va_list_many_longs:                // @test_va_list_many_longs
.seh_proc test_va_list_many_longs
// %bb.0:
	sub	sp, sp, #112
	.seh_stackalloc	112
	str	x30, [sp, #32]                  // 8-byte Folded Spill
	.seh_save_reg	x30, 32
	.seh_endprologue
	str	x7, [sp, #104]
	str	x6, [sp, #96]
	str	x5, [sp, #88]
	str	x4, [sp, #80]
	str	x3, [sp, #72]
	str	x2, [sp, #64]
	str	x1, [sp, #56]
	str	x0, [sp, #24]
	add	x8, sp, #56
	str	x8, [sp, #16]
	ldr	x8, [sp, #24]
	ldr	x1, [sp, #16]
	adrp	x0, .L.str.5
	add	x0, x0, :lo12:.L.str.5
	str	x0, [sp]                        // 8-byte Folded Spill
	blr	x8
	ldr	x1, [sp]                        // 8-byte Folded Reload
	str	w0, [sp, #12]
	ldr	w2, [sp, #12]
	adrp	x0, .L.str.1
	add	x0, x0, :lo12:.L.str.1
	bl	__mingw_printf
	ldr	w0, [sp, #12]
	.seh_startepilogue
	ldr	x30, [sp, #32]                  // 8-byte Folded Reload
	.seh_save_reg	x30, 32
	add	sp, sp, #112
	.seh_stackalloc	112
	.seh_endepilogue
	ret
	.seh_endfunclet
	.seh_endproc
                                        // -- End function
	.def	use_indirect_va_list_many_longs;
	.scl	2;
	.type	32;
	.endef
	.globl	use_indirect_va_list_many_longs // -- Begin function use_indirect_va_list_many_longs
	.p2align	2
use_indirect_va_list_many_longs:        // @use_indirect_va_list_many_longs
.seh_proc use_indirect_va_list_many_longs
// %bb.0:
	sub	sp, sp, #48
	.seh_stackalloc	48
	str	x30, [sp, #32]                  // 8-byte Folded Spill
	.seh_save_reg	x30, 32
	.seh_endprologue
	str	x0, [sp, #24]
	str	x1, [sp, #16]
	ldr	x8, [sp, #24]
	ldr	x1, [sp, #16]
	adrp	x0, .L.str.5
	add	x0, x0, :lo12:.L.str.5
	str	x0, [sp]                        // 8-byte Folded Spill
	blr	x8
	ldr	x1, [sp]                        // 8-byte Folded Reload
	str	w0, [sp, #12]
	ldr	w2, [sp, #12]
	adrp	x0, .L.str.2
	add	x0, x0, :lo12:.L.str.2
	bl	__mingw_printf
	ldr	w0, [sp, #12]
	.seh_startepilogue
	ldr	x30, [sp, #32]                  // 8-byte Folded Reload
	.seh_save_reg	x30, 32
	add	sp, sp, #48
	.seh_stackalloc	48
	.seh_endepilogue
	ret
	.seh_endfunclet
	.seh_endproc
                                        // -- End function
	.def	test_indirect_va_list_many_longs;
	.scl	2;
	.type	32;
	.endef
	.globl	test_indirect_va_list_many_longs // -- Begin function test_indirect_va_list_many_longs
	.p2align	2
test_indirect_va_list_many_longs:       // @test_indirect_va_list_many_longs
.seh_proc test_indirect_va_list_many_longs
// %bb.0:
	sub	sp, sp, #112
	.seh_stackalloc	112
	str	x30, [sp, #32]                  // 8-byte Folded Spill
	.seh_save_reg	x30, 32
	.seh_endprologue
	str	x7, [sp, #104]
	str	x6, [sp, #96]
	str	x5, [sp, #88]
	str	x4, [sp, #80]
	str	x3, [sp, #72]
	str	x2, [sp, #64]
	str	x1, [sp, #56]
	str	x0, [sp, #24]
	add	x8, sp, #56
	str	x8, [sp, #16]
	ldr	x0, [sp, #24]
	ldr	x1, [sp, #16]
	bl	use_indirect_va_list_many_longs
	str	w0, [sp, #12]
	ldr	w0, [sp, #12]
	.seh_startepilogue
	ldr	x30, [sp, #32]                  // 8-byte Folded Reload
	.seh_save_reg	x30, 32
	add	sp, sp, #112
	.seh_stackalloc	112
	.seh_endepilogue
	ret
	.seh_endfunclet
	.seh_endproc
                                        // -- End function
	.def	test_va_list_few_ints;
	.scl	2;
	.type	32;
	.endef
	.globl	test_va_list_few_ints           // -- Begin function test_va_list_few_ints
	.p2align	2
test_va_list_few_ints:                  // @test_va_list_few_ints
.seh_proc test_va_list_few_ints
// %bb.0:
	sub	sp, sp, #112
	.seh_stackalloc	112
	str	x30, [sp, #32]                  // 8-byte Folded Spill
	.seh_save_reg	x30, 32
	.seh_endprologue
	str	x7, [sp, #104]
	str	x6, [sp, #96]
	str	x5, [sp, #88]
	str	x4, [sp, #80]
	str	x3, [sp, #72]
	str	x2, [sp, #64]
	str	x1, [sp, #56]
	str	x0, [sp, #24]
	add	x8, sp, #56
	str	x8, [sp, #16]
	ldr	x8, [sp, #24]
	ldr	x1, [sp, #16]
	adrp	x0, .L.str.6
	add	x0, x0, :lo12:.L.str.6
	str	x0, [sp]                        // 8-byte Folded Spill
	blr	x8
	ldr	x1, [sp]                        // 8-byte Folded Reload
	str	w0, [sp, #12]
	ldr	w2, [sp, #12]
	adrp	x0, .L.str.1
	add	x0, x0, :lo12:.L.str.1
	bl	__mingw_printf
	ldr	w0, [sp, #12]
	.seh_startepilogue
	ldr	x30, [sp, #32]                  // 8-byte Folded Reload
	.seh_save_reg	x30, 32
	add	sp, sp, #112
	.seh_stackalloc	112
	.seh_endepilogue
	ret
	.seh_endfunclet
	.seh_endproc
                                        // -- End function
	.def	use_indirect_va_list_few_ints;
	.scl	2;
	.type	32;
	.endef
	.globl	use_indirect_va_list_few_ints   // -- Begin function use_indirect_va_list_few_ints
	.p2align	2
use_indirect_va_list_few_ints:          // @use_indirect_va_list_few_ints
.seh_proc use_indirect_va_list_few_ints
// %bb.0:
	sub	sp, sp, #48
	.seh_stackalloc	48
	str	x30, [sp, #32]                  // 8-byte Folded Spill
	.seh_save_reg	x30, 32
	.seh_endprologue
	str	x0, [sp, #24]
	str	x1, [sp, #16]
	ldr	x8, [sp, #24]
	ldr	x1, [sp, #16]
	adrp	x0, .L.str.6
	add	x0, x0, :lo12:.L.str.6
	str	x0, [sp]                        // 8-byte Folded Spill
	blr	x8
	ldr	x1, [sp]                        // 8-byte Folded Reload
	str	w0, [sp, #12]
	ldr	w2, [sp, #12]
	adrp	x0, .L.str.2
	add	x0, x0, :lo12:.L.str.2
	bl	__mingw_printf
	ldr	w0, [sp, #12]
	.seh_startepilogue
	ldr	x30, [sp, #32]                  // 8-byte Folded Reload
	.seh_save_reg	x30, 32
	add	sp, sp, #48
	.seh_stackalloc	48
	.seh_endepilogue
	ret
	.seh_endfunclet
	.seh_endproc
                                        // -- End function
	.def	test_indirect_va_list_few_ints;
	.scl	2;
	.type	32;
	.endef
	.globl	test_indirect_va_list_few_ints  // -- Begin function test_indirect_va_list_few_ints
	.p2align	2
test_indirect_va_list_few_ints:         // @test_indirect_va_list_few_ints
.seh_proc test_indirect_va_list_few_ints
// %bb.0:
	sub	sp, sp, #112
	.seh_stackalloc	112
	str	x30, [sp, #32]                  // 8-byte Folded Spill
	.seh_save_reg	x30, 32
	.seh_endprologue
	str	x7, [sp, #104]
	str	x6, [sp, #96]
	str	x5, [sp, #88]
	str	x4, [sp, #80]
	str	x3, [sp, #72]
	str	x2, [sp, #64]
	str	x1, [sp, #56]
	str	x0, [sp, #24]
	add	x8, sp, #56
	str	x8, [sp, #16]
	ldr	x0, [sp, #24]
	ldr	x1, [sp, #16]
	bl	use_indirect_va_list_few_ints
	str	w0, [sp, #12]
	ldr	w0, [sp, #12]
	.seh_startepilogue
	ldr	x30, [sp, #32]                  // 8-byte Folded Reload
	.seh_save_reg	x30, 32
	add	sp, sp, #112
	.seh_stackalloc	112
	.seh_endepilogue
	ret
	.seh_endfunclet
	.seh_endproc
                                        // -- End function
	.def	test_va_list_several_ints;
	.scl	2;
	.type	32;
	.endef
	.globl	test_va_list_several_ints       // -- Begin function test_va_list_several_ints
	.p2align	2
test_va_list_several_ints:              // @test_va_list_several_ints
.seh_proc test_va_list_several_ints
// %bb.0:
	sub	sp, sp, #112
	.seh_stackalloc	112
	str	x30, [sp, #32]                  // 8-byte Folded Spill
	.seh_save_reg	x30, 32
	.seh_endprologue
	str	x7, [sp, #104]
	str	x6, [sp, #96]
	str	x5, [sp, #88]
	str	x4, [sp, #80]
	str	x3, [sp, #72]
	str	x2, [sp, #64]
	str	x1, [sp, #56]
	str	x0, [sp, #24]
	add	x8, sp, #56
	str	x8, [sp, #16]
	ldr	x8, [sp, #24]
	ldr	x1, [sp, #16]
	adrp	x0, .L.str.7
	add	x0, x0, :lo12:.L.str.7
	str	x0, [sp]                        // 8-byte Folded Spill
	blr	x8
	ldr	x1, [sp]                        // 8-byte Folded Reload
	str	w0, [sp, #12]
	ldr	w2, [sp, #12]
	adrp	x0, .L.str.1
	add	x0, x0, :lo12:.L.str.1
	bl	__mingw_printf
	ldr	w0, [sp, #12]
	.seh_startepilogue
	ldr	x30, [sp, #32]                  // 8-byte Folded Reload
	.seh_save_reg	x30, 32
	add	sp, sp, #112
	.seh_stackalloc	112
	.seh_endepilogue
	ret
	.seh_endfunclet
	.seh_endproc
                                        // -- End function
	.def	use_indirect_va_list_several_ints;
	.scl	2;
	.type	32;
	.endef
	.globl	use_indirect_va_list_several_ints // -- Begin function use_indirect_va_list_several_ints
	.p2align	2
use_indirect_va_list_several_ints:      // @use_indirect_va_list_several_ints
.seh_proc use_indirect_va_list_several_ints
// %bb.0:
	sub	sp, sp, #48
	.seh_stackalloc	48
	str	x30, [sp, #32]                  // 8-byte Folded Spill
	.seh_save_reg	x30, 32
	.seh_endprologue
	str	x0, [sp, #24]
	str	x1, [sp, #16]
	ldr	x8, [sp, #24]
	ldr	x1, [sp, #16]
	adrp	x0, .L.str.7
	add	x0, x0, :lo12:.L.str.7
	str	x0, [sp]                        // 8-byte Folded Spill
	blr	x8
	ldr	x1, [sp]                        // 8-byte Folded Reload
	str	w0, [sp, #12]
	ldr	w2, [sp, #12]
	adrp	x0, .L.str.2
	add	x0, x0, :lo12:.L.str.2
	bl	__mingw_printf
	ldr	w0, [sp, #12]
	.seh_startepilogue
	ldr	x30, [sp, #32]                  // 8-byte Folded Reload
	.seh_save_reg	x30, 32
	add	sp, sp, #48
	.seh_stackalloc	48
	.seh_endepilogue
	ret
	.seh_endfunclet
	.seh_endproc
                                        // -- End function
	.def	test_indirect_va_list_several_ints;
	.scl	2;
	.type	32;
	.endef
	.globl	test_indirect_va_list_several_ints // -- Begin function test_indirect_va_list_several_ints
	.p2align	2
test_indirect_va_list_several_ints:     // @test_indirect_va_list_several_ints
.seh_proc test_indirect_va_list_several_ints
// %bb.0:
	sub	sp, sp, #112
	.seh_stackalloc	112
	str	x30, [sp, #32]                  // 8-byte Folded Spill
	.seh_save_reg	x30, 32
	.seh_endprologue
	str	x7, [sp, #104]
	str	x6, [sp, #96]
	str	x5, [sp, #88]
	str	x4, [sp, #80]
	str	x3, [sp, #72]
	str	x2, [sp, #64]
	str	x1, [sp, #56]
	str	x0, [sp, #24]
	add	x8, sp, #56
	str	x8, [sp, #16]
	ldr	x0, [sp, #24]
	ldr	x1, [sp, #16]
	bl	use_indirect_va_list_several_ints
	str	w0, [sp, #12]
	ldr	w0, [sp, #12]
	.seh_startepilogue
	ldr	x30, [sp, #32]                  // 8-byte Folded Reload
	.seh_save_reg	x30, 32
	add	sp, sp, #112
	.seh_stackalloc	112
	.seh_endepilogue
	ret
	.seh_endfunclet
	.seh_endproc
                                        // -- End function
	.def	test_va_list_many_ints;
	.scl	2;
	.type	32;
	.endef
	.globl	test_va_list_many_ints          // -- Begin function test_va_list_many_ints
	.p2align	2
test_va_list_many_ints:                 // @test_va_list_many_ints
.seh_proc test_va_list_many_ints
// %bb.0:
	sub	sp, sp, #112
	.seh_stackalloc	112
	str	x30, [sp, #32]                  // 8-byte Folded Spill
	.seh_save_reg	x30, 32
	.seh_endprologue
	str	x7, [sp, #104]
	str	x6, [sp, #96]
	str	x5, [sp, #88]
	str	x4, [sp, #80]
	str	x3, [sp, #72]
	str	x2, [sp, #64]
	str	x1, [sp, #56]
	str	x0, [sp, #24]
	add	x8, sp, #56
	str	x8, [sp, #16]
	ldr	x8, [sp, #24]
	ldr	x1, [sp, #16]
	adrp	x0, .L.str.8
	add	x0, x0, :lo12:.L.str.8
	str	x0, [sp]                        // 8-byte Folded Spill
	blr	x8
	ldr	x1, [sp]                        // 8-byte Folded Reload
	str	w0, [sp, #12]
	ldr	w2, [sp, #12]
	adrp	x0, .L.str.1
	add	x0, x0, :lo12:.L.str.1
	bl	__mingw_printf
	ldr	w0, [sp, #12]
	.seh_startepilogue
	ldr	x30, [sp, #32]                  // 8-byte Folded Reload
	.seh_save_reg	x30, 32
	add	sp, sp, #112
	.seh_stackalloc	112
	.seh_endepilogue
	ret
	.seh_endfunclet
	.seh_endproc
                                        // -- End function
	.def	use_indirect_va_list_many_ints;
	.scl	2;
	.type	32;
	.endef
	.globl	use_indirect_va_list_many_ints  // -- Begin function use_indirect_va_list_many_ints
	.p2align	2
use_indirect_va_list_many_ints:         // @use_indirect_va_list_many_ints
.seh_proc use_indirect_va_list_many_ints
// %bb.0:
	sub	sp, sp, #48
	.seh_stackalloc	48
	str	x30, [sp, #32]                  // 8-byte Folded Spill
	.seh_save_reg	x30, 32
	.seh_endprologue
	str	x0, [sp, #24]
	str	x1, [sp, #16]
	ldr	x8, [sp, #24]
	ldr	x1, [sp, #16]
	adrp	x0, .L.str.8
	add	x0, x0, :lo12:.L.str.8
	str	x0, [sp]                        // 8-byte Folded Spill
	blr	x8
	ldr	x1, [sp]                        // 8-byte Folded Reload
	str	w0, [sp, #12]
	ldr	w2, [sp, #12]
	adrp	x0, .L.str.2
	add	x0, x0, :lo12:.L.str.2
	bl	__mingw_printf
	ldr	w0, [sp, #12]
	.seh_startepilogue
	ldr	x30, [sp, #32]                  // 8-byte Folded Reload
	.seh_save_reg	x30, 32
	add	sp, sp, #48
	.seh_stackalloc	48
	.seh_endepilogue
	ret
	.seh_endfunclet
	.seh_endproc
                                        // -- End function
	.def	test_indirect_va_list_many_ints;
	.scl	2;
	.type	32;
	.endef
	.globl	test_indirect_va_list_many_ints // -- Begin function test_indirect_va_list_many_ints
	.p2align	2
test_indirect_va_list_many_ints:        // @test_indirect_va_list_many_ints
.seh_proc test_indirect_va_list_many_ints
// %bb.0:
	sub	sp, sp, #112
	.seh_stackalloc	112
	str	x30, [sp, #32]                  // 8-byte Folded Spill
	.seh_save_reg	x30, 32
	.seh_endprologue
	str	x7, [sp, #104]
	str	x6, [sp, #96]
	str	x5, [sp, #88]
	str	x4, [sp, #80]
	str	x3, [sp, #72]
	str	x2, [sp, #64]
	str	x1, [sp, #56]
	str	x0, [sp, #24]
	add	x8, sp, #56
	str	x8, [sp, #16]
	ldr	x0, [sp, #24]
	ldr	x1, [sp, #16]
	bl	use_indirect_va_list_many_ints
	str	w0, [sp, #12]
	ldr	w0, [sp, #12]
	.seh_startepilogue
	ldr	x30, [sp, #32]                  // 8-byte Folded Reload
	.seh_save_reg	x30, 32
	add	sp, sp, #112
	.seh_stackalloc	112
	.seh_endepilogue
	ret
	.seh_endfunclet
	.seh_endproc
                                        // -- End function
	.def	test_va_list_few_doubles;
	.scl	2;
	.type	32;
	.endef
	.globl	test_va_list_few_doubles        // -- Begin function test_va_list_few_doubles
	.p2align	2
test_va_list_few_doubles:               // @test_va_list_few_doubles
.seh_proc test_va_list_few_doubles
// %bb.0:
	sub	sp, sp, #112
	.seh_stackalloc	112
	str	x30, [sp, #32]                  // 8-byte Folded Spill
	.seh_save_reg	x30, 32
	.seh_endprologue
	str	x7, [sp, #104]
	str	x6, [sp, #96]
	str	x5, [sp, #88]
	str	x4, [sp, #80]
	str	x3, [sp, #72]
	str	x2, [sp, #64]
	str	x1, [sp, #56]
	str	x0, [sp, #24]
	add	x8, sp, #56
	str	x8, [sp, #16]
	ldr	x8, [sp, #24]
	ldr	x1, [sp, #16]
	adrp	x0, .L.str.9
	add	x0, x0, :lo12:.L.str.9
	str	x0, [sp]                        // 8-byte Folded Spill
	blr	x8
	ldr	x1, [sp]                        // 8-byte Folded Reload
	str	w0, [sp, #12]
	ldr	w2, [sp, #12]
	adrp	x0, .L.str.1
	add	x0, x0, :lo12:.L.str.1
	bl	__mingw_printf
	ldr	w0, [sp, #12]
	.seh_startepilogue
	ldr	x30, [sp, #32]                  // 8-byte Folded Reload
	.seh_save_reg	x30, 32
	add	sp, sp, #112
	.seh_stackalloc	112
	.seh_endepilogue
	ret
	.seh_endfunclet
	.seh_endproc
                                        // -- End function
	.def	use_indirect_va_list_few_doubles;
	.scl	2;
	.type	32;
	.endef
	.globl	use_indirect_va_list_few_doubles // -- Begin function use_indirect_va_list_few_doubles
	.p2align	2
use_indirect_va_list_few_doubles:       // @use_indirect_va_list_few_doubles
.seh_proc use_indirect_va_list_few_doubles
// %bb.0:
	sub	sp, sp, #48
	.seh_stackalloc	48
	str	x30, [sp, #32]                  // 8-byte Folded Spill
	.seh_save_reg	x30, 32
	.seh_endprologue
	str	x0, [sp, #24]
	str	x1, [sp, #16]
	ldr	x8, [sp, #24]
	ldr	x1, [sp, #16]
	adrp	x0, .L.str.9
	add	x0, x0, :lo12:.L.str.9
	str	x0, [sp]                        // 8-byte Folded Spill
	blr	x8
	ldr	x1, [sp]                        // 8-byte Folded Reload
	str	w0, [sp, #12]
	ldr	w2, [sp, #12]
	adrp	x0, .L.str.2
	add	x0, x0, :lo12:.L.str.2
	bl	__mingw_printf
	ldr	w0, [sp, #12]
	.seh_startepilogue
	ldr	x30, [sp, #32]                  // 8-byte Folded Reload
	.seh_save_reg	x30, 32
	add	sp, sp, #48
	.seh_stackalloc	48
	.seh_endepilogue
	ret
	.seh_endfunclet
	.seh_endproc
                                        // -- End function
	.def	test_indirect_va_list_few_doubles;
	.scl	2;
	.type	32;
	.endef
	.globl	test_indirect_va_list_few_doubles // -- Begin function test_indirect_va_list_few_doubles
	.p2align	2
test_indirect_va_list_few_doubles:      // @test_indirect_va_list_few_doubles
.seh_proc test_indirect_va_list_few_doubles
// %bb.0:
	sub	sp, sp, #112
	.seh_stackalloc	112
	str	x30, [sp, #32]                  // 8-byte Folded Spill
	.seh_save_reg	x30, 32
	.seh_endprologue
	str	x7, [sp, #104]
	str	x6, [sp, #96]
	str	x5, [sp, #88]
	str	x4, [sp, #80]
	str	x3, [sp, #72]
	str	x2, [sp, #64]
	str	x1, [sp, #56]
	str	x0, [sp, #24]
	add	x8, sp, #56
	str	x8, [sp, #16]
	ldr	x0, [sp, #24]
	ldr	x1, [sp, #16]
	bl	use_indirect_va_list_few_doubles
	str	w0, [sp, #12]
	ldr	w0, [sp, #12]
	.seh_startepilogue
	ldr	x30, [sp, #32]                  // 8-byte Folded Reload
	.seh_save_reg	x30, 32
	add	sp, sp, #112
	.seh_stackalloc	112
	.seh_endepilogue
	ret
	.seh_endfunclet
	.seh_endproc
                                        // -- End function
	.def	test_va_list_several_doubles;
	.scl	2;
	.type	32;
	.endef
	.globl	test_va_list_several_doubles    // -- Begin function test_va_list_several_doubles
	.p2align	2
test_va_list_several_doubles:           // @test_va_list_several_doubles
.seh_proc test_va_list_several_doubles
// %bb.0:
	sub	sp, sp, #112
	.seh_stackalloc	112
	str	x30, [sp, #32]                  // 8-byte Folded Spill
	.seh_save_reg	x30, 32
	.seh_endprologue
	str	x7, [sp, #104]
	str	x6, [sp, #96]
	str	x5, [sp, #88]
	str	x4, [sp, #80]
	str	x3, [sp, #72]
	str	x2, [sp, #64]
	str	x1, [sp, #56]
	str	x0, [sp, #24]
	add	x8, sp, #56
	str	x8, [sp, #16]
	ldr	x8, [sp, #24]
	ldr	x1, [sp, #16]
	adrp	x0, .L.str.10
	add	x0, x0, :lo12:.L.str.10
	str	x0, [sp]                        // 8-byte Folded Spill
	blr	x8
	ldr	x1, [sp]                        // 8-byte Folded Reload
	str	w0, [sp, #12]
	ldr	w2, [sp, #12]
	adrp	x0, .L.str.1
	add	x0, x0, :lo12:.L.str.1
	bl	__mingw_printf
	ldr	w0, [sp, #12]
	.seh_startepilogue
	ldr	x30, [sp, #32]                  // 8-byte Folded Reload
	.seh_save_reg	x30, 32
	add	sp, sp, #112
	.seh_stackalloc	112
	.seh_endepilogue
	ret
	.seh_endfunclet
	.seh_endproc
                                        // -- End function
	.def	use_indirect_va_list_several_doubles;
	.scl	2;
	.type	32;
	.endef
	.globl	use_indirect_va_list_several_doubles // -- Begin function use_indirect_va_list_several_doubles
	.p2align	2
use_indirect_va_list_several_doubles:   // @use_indirect_va_list_several_doubles
.seh_proc use_indirect_va_list_several_doubles
// %bb.0:
	sub	sp, sp, #48
	.seh_stackalloc	48
	str	x30, [sp, #32]                  // 8-byte Folded Spill
	.seh_save_reg	x30, 32
	.seh_endprologue
	str	x0, [sp, #24]
	str	x1, [sp, #16]
	ldr	x8, [sp, #24]
	ldr	x1, [sp, #16]
	adrp	x0, .L.str.10
	add	x0, x0, :lo12:.L.str.10
	str	x0, [sp]                        // 8-byte Folded Spill
	blr	x8
	ldr	x1, [sp]                        // 8-byte Folded Reload
	str	w0, [sp, #12]
	ldr	w2, [sp, #12]
	adrp	x0, .L.str.2
	add	x0, x0, :lo12:.L.str.2
	bl	__mingw_printf
	ldr	w0, [sp, #12]
	.seh_startepilogue
	ldr	x30, [sp, #32]                  // 8-byte Folded Reload
	.seh_save_reg	x30, 32
	add	sp, sp, #48
	.seh_stackalloc	48
	.seh_endepilogue
	ret
	.seh_endfunclet
	.seh_endproc
                                        // -- End function
	.def	test_indirect_va_list_several_doubles;
	.scl	2;
	.type	32;
	.endef
	.globl	test_indirect_va_list_several_doubles // -- Begin function test_indirect_va_list_several_doubles
	.p2align	2
test_indirect_va_list_several_doubles:  // @test_indirect_va_list_several_doubles
.seh_proc test_indirect_va_list_several_doubles
// %bb.0:
	sub	sp, sp, #112
	.seh_stackalloc	112
	str	x30, [sp, #32]                  // 8-byte Folded Spill
	.seh_save_reg	x30, 32
	.seh_endprologue
	str	x7, [sp, #104]
	str	x6, [sp, #96]
	str	x5, [sp, #88]
	str	x4, [sp, #80]
	str	x3, [sp, #72]
	str	x2, [sp, #64]
	str	x1, [sp, #56]
	str	x0, [sp, #24]
	add	x8, sp, #56
	str	x8, [sp, #16]
	ldr	x0, [sp, #24]
	ldr	x1, [sp, #16]
	bl	use_indirect_va_list_several_doubles
	str	w0, [sp, #12]
	ldr	w0, [sp, #12]
	.seh_startepilogue
	ldr	x30, [sp, #32]                  // 8-byte Folded Reload
	.seh_save_reg	x30, 32
	add	sp, sp, #112
	.seh_stackalloc	112
	.seh_endepilogue
	ret
	.seh_endfunclet
	.seh_endproc
                                        // -- End function
	.def	test_va_list_many_doubles;
	.scl	2;
	.type	32;
	.endef
	.globl	test_va_list_many_doubles       // -- Begin function test_va_list_many_doubles
	.p2align	2
test_va_list_many_doubles:              // @test_va_list_many_doubles
.seh_proc test_va_list_many_doubles
// %bb.0:
	sub	sp, sp, #112
	.seh_stackalloc	112
	str	x30, [sp, #32]                  // 8-byte Folded Spill
	.seh_save_reg	x30, 32
	.seh_endprologue
	str	x7, [sp, #104]
	str	x6, [sp, #96]
	str	x5, [sp, #88]
	str	x4, [sp, #80]
	str	x3, [sp, #72]
	str	x2, [sp, #64]
	str	x1, [sp, #56]
	str	x0, [sp, #24]
	add	x8, sp, #56
	str	x8, [sp, #16]
	ldr	x8, [sp, #24]
	ldr	x1, [sp, #16]
	adrp	x0, .L.str.11
	add	x0, x0, :lo12:.L.str.11
	str	x0, [sp]                        // 8-byte Folded Spill
	blr	x8
	ldr	x1, [sp]                        // 8-byte Folded Reload
	str	w0, [sp, #12]
	ldr	w2, [sp, #12]
	adrp	x0, .L.str.1
	add	x0, x0, :lo12:.L.str.1
	bl	__mingw_printf
	ldr	w0, [sp, #12]
	.seh_startepilogue
	ldr	x30, [sp, #32]                  // 8-byte Folded Reload
	.seh_save_reg	x30, 32
	add	sp, sp, #112
	.seh_stackalloc	112
	.seh_endepilogue
	ret
	.seh_endfunclet
	.seh_endproc
                                        // -- End function
	.def	use_indirect_va_list_many_doubles;
	.scl	2;
	.type	32;
	.endef
	.globl	use_indirect_va_list_many_doubles // -- Begin function use_indirect_va_list_many_doubles
	.p2align	2
use_indirect_va_list_many_doubles:      // @use_indirect_va_list_many_doubles
.seh_proc use_indirect_va_list_many_doubles
// %bb.0:
	sub	sp, sp, #48
	.seh_stackalloc	48
	str	x30, [sp, #32]                  // 8-byte Folded Spill
	.seh_save_reg	x30, 32
	.seh_endprologue
	str	x0, [sp, #24]
	str	x1, [sp, #16]
	ldr	x8, [sp, #24]
	ldr	x1, [sp, #16]
	adrp	x0, .L.str.11
	add	x0, x0, :lo12:.L.str.11
	str	x0, [sp]                        // 8-byte Folded Spill
	blr	x8
	ldr	x1, [sp]                        // 8-byte Folded Reload
	str	w0, [sp, #12]
	ldr	w2, [sp, #12]
	adrp	x0, .L.str.2
	add	x0, x0, :lo12:.L.str.2
	bl	__mingw_printf
	ldr	w0, [sp, #12]
	.seh_startepilogue
	ldr	x30, [sp, #32]                  // 8-byte Folded Reload
	.seh_save_reg	x30, 32
	add	sp, sp, #48
	.seh_stackalloc	48
	.seh_endepilogue
	ret
	.seh_endfunclet
	.seh_endproc
                                        // -- End function
	.def	test_indirect_va_list_many_doubles;
	.scl	2;
	.type	32;
	.endef
	.globl	test_indirect_va_list_many_doubles // -- Begin function test_indirect_va_list_many_doubles
	.p2align	2
test_indirect_va_list_many_doubles:     // @test_indirect_va_list_many_doubles
.seh_proc test_indirect_va_list_many_doubles
// %bb.0:
	sub	sp, sp, #112
	.seh_stackalloc	112
	str	x30, [sp, #32]                  // 8-byte Folded Spill
	.seh_save_reg	x30, 32
	.seh_endprologue
	str	x7, [sp, #104]
	str	x6, [sp, #96]
	str	x5, [sp, #88]
	str	x4, [sp, #80]
	str	x3, [sp, #72]
	str	x2, [sp, #64]
	str	x1, [sp, #56]
	str	x0, [sp, #24]
	add	x8, sp, #56
	str	x8, [sp, #16]
	ldr	x0, [sp, #24]
	ldr	x1, [sp, #16]
	bl	use_indirect_va_list_many_doubles
	str	w0, [sp, #12]
	ldr	w0, [sp, #12]
	.seh_startepilogue
	ldr	x30, [sp, #32]                  // 8-byte Folded Reload
	.seh_save_reg	x30, 32
	add	sp, sp, #112
	.seh_stackalloc	112
	.seh_endepilogue
	ret
	.seh_endfunclet
	.seh_endproc
                                        // -- End function
	.def	test_va_list_few_floats;
	.scl	2;
	.type	32;
	.endef
	.globl	test_va_list_few_floats         // -- Begin function test_va_list_few_floats
	.p2align	2
test_va_list_few_floats:                // @test_va_list_few_floats
.seh_proc test_va_list_few_floats
// %bb.0:
	sub	sp, sp, #112
	.seh_stackalloc	112
	str	x30, [sp, #32]                  // 8-byte Folded Spill
	.seh_save_reg	x30, 32
	.seh_endprologue
	str	x7, [sp, #104]
	str	x6, [sp, #96]
	str	x5, [sp, #88]
	str	x4, [sp, #80]
	str	x3, [sp, #72]
	str	x2, [sp, #64]
	str	x1, [sp, #56]
	str	x0, [sp, #24]
	add	x8, sp, #56
	str	x8, [sp, #16]
	ldr	x8, [sp, #24]
	ldr	x1, [sp, #16]
	adrp	x0, .L.str.12
	add	x0, x0, :lo12:.L.str.12
	str	x0, [sp]                        // 8-byte Folded Spill
	blr	x8
	ldr	x1, [sp]                        // 8-byte Folded Reload
	str	w0, [sp, #12]
	ldr	w2, [sp, #12]
	adrp	x0, .L.str.1
	add	x0, x0, :lo12:.L.str.1
	bl	__mingw_printf
	ldr	w0, [sp, #12]
	.seh_startepilogue
	ldr	x30, [sp, #32]                  // 8-byte Folded Reload
	.seh_save_reg	x30, 32
	add	sp, sp, #112
	.seh_stackalloc	112
	.seh_endepilogue
	ret
	.seh_endfunclet
	.seh_endproc
                                        // -- End function
	.def	use_indirect_va_list_few_floats;
	.scl	2;
	.type	32;
	.endef
	.globl	use_indirect_va_list_few_floats // -- Begin function use_indirect_va_list_few_floats
	.p2align	2
use_indirect_va_list_few_floats:        // @use_indirect_va_list_few_floats
.seh_proc use_indirect_va_list_few_floats
// %bb.0:
	sub	sp, sp, #48
	.seh_stackalloc	48
	str	x30, [sp, #32]                  // 8-byte Folded Spill
	.seh_save_reg	x30, 32
	.seh_endprologue
	str	x0, [sp, #24]
	str	x1, [sp, #16]
	ldr	x8, [sp, #24]
	ldr	x1, [sp, #16]
	adrp	x0, .L.str.12
	add	x0, x0, :lo12:.L.str.12
	str	x0, [sp]                        // 8-byte Folded Spill
	blr	x8
	ldr	x1, [sp]                        // 8-byte Folded Reload
	str	w0, [sp, #12]
	ldr	w2, [sp, #12]
	adrp	x0, .L.str.2
	add	x0, x0, :lo12:.L.str.2
	bl	__mingw_printf
	ldr	w0, [sp, #12]
	.seh_startepilogue
	ldr	x30, [sp, #32]                  // 8-byte Folded Reload
	.seh_save_reg	x30, 32
	add	sp, sp, #48
	.seh_stackalloc	48
	.seh_endepilogue
	ret
	.seh_endfunclet
	.seh_endproc
                                        // -- End function
	.def	test_indirect_va_list_few_floats;
	.scl	2;
	.type	32;
	.endef
	.globl	test_indirect_va_list_few_floats // -- Begin function test_indirect_va_list_few_floats
	.p2align	2
test_indirect_va_list_few_floats:       // @test_indirect_va_list_few_floats
.seh_proc test_indirect_va_list_few_floats
// %bb.0:
	sub	sp, sp, #112
	.seh_stackalloc	112
	str	x30, [sp, #32]                  // 8-byte Folded Spill
	.seh_save_reg	x30, 32
	.seh_endprologue
	str	x7, [sp, #104]
	str	x6, [sp, #96]
	str	x5, [sp, #88]
	str	x4, [sp, #80]
	str	x3, [sp, #72]
	str	x2, [sp, #64]
	str	x1, [sp, #56]
	str	x0, [sp, #24]
	add	x8, sp, #56
	str	x8, [sp, #16]
	ldr	x0, [sp, #24]
	ldr	x1, [sp, #16]
	bl	use_indirect_va_list_few_floats
	str	w0, [sp, #12]
	ldr	w0, [sp, #12]
	.seh_startepilogue
	ldr	x30, [sp, #32]                  // 8-byte Folded Reload
	.seh_save_reg	x30, 32
	add	sp, sp, #112
	.seh_stackalloc	112
	.seh_endepilogue
	ret
	.seh_endfunclet
	.seh_endproc
                                        // -- End function
	.def	test_va_list_several_floats;
	.scl	2;
	.type	32;
	.endef
	.globl	test_va_list_several_floats     // -- Begin function test_va_list_several_floats
	.p2align	2
test_va_list_several_floats:            // @test_va_list_several_floats
.seh_proc test_va_list_several_floats
// %bb.0:
	sub	sp, sp, #112
	.seh_stackalloc	112
	str	x30, [sp, #32]                  // 8-byte Folded Spill
	.seh_save_reg	x30, 32
	.seh_endprologue
	str	x7, [sp, #104]
	str	x6, [sp, #96]
	str	x5, [sp, #88]
	str	x4, [sp, #80]
	str	x3, [sp, #72]
	str	x2, [sp, #64]
	str	x1, [sp, #56]
	str	x0, [sp, #24]
	add	x8, sp, #56
	str	x8, [sp, #16]
	ldr	x8, [sp, #24]
	ldr	x1, [sp, #16]
	adrp	x0, .L.str.13
	add	x0, x0, :lo12:.L.str.13
	str	x0, [sp]                        // 8-byte Folded Spill
	blr	x8
	ldr	x1, [sp]                        // 8-byte Folded Reload
	str	w0, [sp, #12]
	ldr	w2, [sp, #12]
	adrp	x0, .L.str.1
	add	x0, x0, :lo12:.L.str.1
	bl	__mingw_printf
	ldr	w0, [sp, #12]
	.seh_startepilogue
	ldr	x30, [sp, #32]                  // 8-byte Folded Reload
	.seh_save_reg	x30, 32
	add	sp, sp, #112
	.seh_stackalloc	112
	.seh_endepilogue
	ret
	.seh_endfunclet
	.seh_endproc
                                        // -- End function
	.def	use_indirect_va_list_several_floats;
	.scl	2;
	.type	32;
	.endef
	.globl	use_indirect_va_list_several_floats // -- Begin function use_indirect_va_list_several_floats
	.p2align	2
use_indirect_va_list_several_floats:    // @use_indirect_va_list_several_floats
.seh_proc use_indirect_va_list_several_floats
// %bb.0:
	sub	sp, sp, #48
	.seh_stackalloc	48
	str	x30, [sp, #32]                  // 8-byte Folded Spill
	.seh_save_reg	x30, 32
	.seh_endprologue
	str	x0, [sp, #24]
	str	x1, [sp, #16]
	ldr	x8, [sp, #24]
	ldr	x1, [sp, #16]
	adrp	x0, .L.str.13
	add	x0, x0, :lo12:.L.str.13
	str	x0, [sp]                        // 8-byte Folded Spill
	blr	x8
	ldr	x1, [sp]                        // 8-byte Folded Reload
	str	w0, [sp, #12]
	ldr	w2, [sp, #12]
	adrp	x0, .L.str.2
	add	x0, x0, :lo12:.L.str.2
	bl	__mingw_printf
	ldr	w0, [sp, #12]
	.seh_startepilogue
	ldr	x30, [sp, #32]                  // 8-byte Folded Reload
	.seh_save_reg	x30, 32
	add	sp, sp, #48
	.seh_stackalloc	48
	.seh_endepilogue
	ret
	.seh_endfunclet
	.seh_endproc
                                        // -- End function
	.def	test_indirect_va_list_several_floats;
	.scl	2;
	.type	32;
	.endef
	.globl	test_indirect_va_list_several_floats // -- Begin function test_indirect_va_list_several_floats
	.p2align	2
test_indirect_va_list_several_floats:   // @test_indirect_va_list_several_floats
.seh_proc test_indirect_va_list_several_floats
// %bb.0:
	sub	sp, sp, #112
	.seh_stackalloc	112
	str	x30, [sp, #32]                  // 8-byte Folded Spill
	.seh_save_reg	x30, 32
	.seh_endprologue
	str	x7, [sp, #104]
	str	x6, [sp, #96]
	str	x5, [sp, #88]
	str	x4, [sp, #80]
	str	x3, [sp, #72]
	str	x2, [sp, #64]
	str	x1, [sp, #56]
	str	x0, [sp, #24]
	add	x8, sp, #56
	str	x8, [sp, #16]
	ldr	x0, [sp, #24]
	ldr	x1, [sp, #16]
	bl	use_indirect_va_list_several_floats
	str	w0, [sp, #12]
	ldr	w0, [sp, #12]
	.seh_startepilogue
	ldr	x30, [sp, #32]                  // 8-byte Folded Reload
	.seh_save_reg	x30, 32
	add	sp, sp, #112
	.seh_stackalloc	112
	.seh_endepilogue
	ret
	.seh_endfunclet
	.seh_endproc
                                        // -- End function
	.def	test_va_list_many_floats;
	.scl	2;
	.type	32;
	.endef
	.globl	test_va_list_many_floats        // -- Begin function test_va_list_many_floats
	.p2align	2
test_va_list_many_floats:               // @test_va_list_many_floats
.seh_proc test_va_list_many_floats
// %bb.0:
	sub	sp, sp, #112
	.seh_stackalloc	112
	str	x30, [sp, #32]                  // 8-byte Folded Spill
	.seh_save_reg	x30, 32
	.seh_endprologue
	str	x7, [sp, #104]
	str	x6, [sp, #96]
	str	x5, [sp, #88]
	str	x4, [sp, #80]
	str	x3, [sp, #72]
	str	x2, [sp, #64]
	str	x1, [sp, #56]
	str	x0, [sp, #24]
	add	x8, sp, #56
	str	x8, [sp, #16]
	ldr	x8, [sp, #24]
	ldr	x1, [sp, #16]
	adrp	x0, .L.str.14
	add	x0, x0, :lo12:.L.str.14
	str	x0, [sp]                        // 8-byte Folded Spill
	blr	x8
	ldr	x1, [sp]                        // 8-byte Folded Reload
	str	w0, [sp, #12]
	ldr	w2, [sp, #12]
	adrp	x0, .L.str.1
	add	x0, x0, :lo12:.L.str.1
	bl	__mingw_printf
	ldr	w0, [sp, #12]
	.seh_startepilogue
	ldr	x30, [sp, #32]                  // 8-byte Folded Reload
	.seh_save_reg	x30, 32
	add	sp, sp, #112
	.seh_stackalloc	112
	.seh_endepilogue
	ret
	.seh_endfunclet
	.seh_endproc
                                        // -- End function
	.def	use_indirect_va_list_many_floats;
	.scl	2;
	.type	32;
	.endef
	.globl	use_indirect_va_list_many_floats // -- Begin function use_indirect_va_list_many_floats
	.p2align	2
use_indirect_va_list_many_floats:       // @use_indirect_va_list_many_floats
.seh_proc use_indirect_va_list_many_floats
// %bb.0:
	sub	sp, sp, #48
	.seh_stackalloc	48
	str	x30, [sp, #32]                  // 8-byte Folded Spill
	.seh_save_reg	x30, 32
	.seh_endprologue
	str	x0, [sp, #24]
	str	x1, [sp, #16]
	ldr	x8, [sp, #24]
	ldr	x1, [sp, #16]
	adrp	x0, .L.str.14
	add	x0, x0, :lo12:.L.str.14
	str	x0, [sp]                        // 8-byte Folded Spill
	blr	x8
	ldr	x1, [sp]                        // 8-byte Folded Reload
	str	w0, [sp, #12]
	ldr	w2, [sp, #12]
	adrp	x0, .L.str.2
	add	x0, x0, :lo12:.L.str.2
	bl	__mingw_printf
	ldr	w0, [sp, #12]
	.seh_startepilogue
	ldr	x30, [sp, #32]                  // 8-byte Folded Reload
	.seh_save_reg	x30, 32
	add	sp, sp, #48
	.seh_stackalloc	48
	.seh_endepilogue
	ret
	.seh_endfunclet
	.seh_endproc
                                        // -- End function
	.def	test_indirect_va_list_many_floats;
	.scl	2;
	.type	32;
	.endef
	.globl	test_indirect_va_list_many_floats // -- Begin function test_indirect_va_list_many_floats
	.p2align	2
test_indirect_va_list_many_floats:      // @test_indirect_va_list_many_floats
.seh_proc test_indirect_va_list_many_floats
// %bb.0:
	sub	sp, sp, #112
	.seh_stackalloc	112
	str	x30, [sp, #32]                  // 8-byte Folded Spill
	.seh_save_reg	x30, 32
	.seh_endprologue
	str	x7, [sp, #104]
	str	x6, [sp, #96]
	str	x5, [sp, #88]
	str	x4, [sp, #80]
	str	x3, [sp, #72]
	str	x2, [sp, #64]
	str	x1, [sp, #56]
	str	x0, [sp, #24]
	add	x8, sp, #56
	str	x8, [sp, #16]
	ldr	x0, [sp, #24]
	ldr	x1, [sp, #16]
	bl	use_indirect_va_list_many_floats
	str	w0, [sp, #12]
	ldr	w0, [sp, #12]
	.seh_startepilogue
	ldr	x30, [sp, #32]                  // 8-byte Folded Reload
	.seh_save_reg	x30, 32
	add	sp, sp, #112
	.seh_stackalloc	112
	.seh_endepilogue
	ret
	.seh_endfunclet
	.seh_endproc
                                        // -- End function
	.def	test_va_list_few_strings;
	.scl	2;
	.type	32;
	.endef
	.globl	test_va_list_few_strings        // -- Begin function test_va_list_few_strings
	.p2align	2
test_va_list_few_strings:               // @test_va_list_few_strings
.seh_proc test_va_list_few_strings
// %bb.0:
	sub	sp, sp, #112
	.seh_stackalloc	112
	str	x30, [sp, #32]                  // 8-byte Folded Spill
	.seh_save_reg	x30, 32
	.seh_endprologue
	str	x7, [sp, #104]
	str	x6, [sp, #96]
	str	x5, [sp, #88]
	str	x4, [sp, #80]
	str	x3, [sp, #72]
	str	x2, [sp, #64]
	str	x1, [sp, #56]
	str	x0, [sp, #24]
	add	x8, sp, #56
	str	x8, [sp, #16]
	ldr	x8, [sp, #24]
	ldr	x1, [sp, #16]
	adrp	x0, .L.str.15
	add	x0, x0, :lo12:.L.str.15
	str	x0, [sp]                        // 8-byte Folded Spill
	blr	x8
	ldr	x1, [sp]                        // 8-byte Folded Reload
	str	w0, [sp, #12]
	ldr	w2, [sp, #12]
	adrp	x0, .L.str.1
	add	x0, x0, :lo12:.L.str.1
	bl	__mingw_printf
	ldr	w0, [sp, #12]
	.seh_startepilogue
	ldr	x30, [sp, #32]                  // 8-byte Folded Reload
	.seh_save_reg	x30, 32
	add	sp, sp, #112
	.seh_stackalloc	112
	.seh_endepilogue
	ret
	.seh_endfunclet
	.seh_endproc
                                        // -- End function
	.def	use_indirect_va_list_few_strings;
	.scl	2;
	.type	32;
	.endef
	.globl	use_indirect_va_list_few_strings // -- Begin function use_indirect_va_list_few_strings
	.p2align	2
use_indirect_va_list_few_strings:       // @use_indirect_va_list_few_strings
.seh_proc use_indirect_va_list_few_strings
// %bb.0:
	sub	sp, sp, #48
	.seh_stackalloc	48
	str	x30, [sp, #32]                  // 8-byte Folded Spill
	.seh_save_reg	x30, 32
	.seh_endprologue
	str	x0, [sp, #24]
	str	x1, [sp, #16]
	ldr	x8, [sp, #24]
	ldr	x1, [sp, #16]
	adrp	x0, .L.str.15
	add	x0, x0, :lo12:.L.str.15
	str	x0, [sp]                        // 8-byte Folded Spill
	blr	x8
	ldr	x1, [sp]                        // 8-byte Folded Reload
	str	w0, [sp, #12]
	ldr	w2, [sp, #12]
	adrp	x0, .L.str.2
	add	x0, x0, :lo12:.L.str.2
	bl	__mingw_printf
	ldr	w0, [sp, #12]
	.seh_startepilogue
	ldr	x30, [sp, #32]                  // 8-byte Folded Reload
	.seh_save_reg	x30, 32
	add	sp, sp, #48
	.seh_stackalloc	48
	.seh_endepilogue
	ret
	.seh_endfunclet
	.seh_endproc
                                        // -- End function
	.def	test_indirect_va_list_few_strings;
	.scl	2;
	.type	32;
	.endef
	.globl	test_indirect_va_list_few_strings // -- Begin function test_indirect_va_list_few_strings
	.p2align	2
test_indirect_va_list_few_strings:      // @test_indirect_va_list_few_strings
.seh_proc test_indirect_va_list_few_strings
// %bb.0:
	sub	sp, sp, #112
	.seh_stackalloc	112
	str	x30, [sp, #32]                  // 8-byte Folded Spill
	.seh_save_reg	x30, 32
	.seh_endprologue
	str	x7, [sp, #104]
	str	x6, [sp, #96]
	str	x5, [sp, #88]
	str	x4, [sp, #80]
	str	x3, [sp, #72]
	str	x2, [sp, #64]
	str	x1, [sp, #56]
	str	x0, [sp, #24]
	add	x8, sp, #56
	str	x8, [sp, #16]
	ldr	x0, [sp, #24]
	ldr	x1, [sp, #16]
	bl	use_indirect_va_list_few_strings
	str	w0, [sp, #12]
	ldr	w0, [sp, #12]
	.seh_startepilogue
	ldr	x30, [sp, #32]                  // 8-byte Folded Reload
	.seh_save_reg	x30, 32
	add	sp, sp, #112
	.seh_stackalloc	112
	.seh_endepilogue
	ret
	.seh_endfunclet
	.seh_endproc
                                        // -- End function
	.def	test_va_list_several_strings;
	.scl	2;
	.type	32;
	.endef
	.globl	test_va_list_several_strings    // -- Begin function test_va_list_several_strings
	.p2align	2
test_va_list_several_strings:           // @test_va_list_several_strings
.seh_proc test_va_list_several_strings
// %bb.0:
	sub	sp, sp, #112
	.seh_stackalloc	112
	str	x30, [sp, #32]                  // 8-byte Folded Spill
	.seh_save_reg	x30, 32
	.seh_endprologue
	str	x7, [sp, #104]
	str	x6, [sp, #96]
	str	x5, [sp, #88]
	str	x4, [sp, #80]
	str	x3, [sp, #72]
	str	x2, [sp, #64]
	str	x1, [sp, #56]
	str	x0, [sp, #24]
	add	x8, sp, #56
	str	x8, [sp, #16]
	ldr	x8, [sp, #24]
	ldr	x1, [sp, #16]
	adrp	x0, .L.str.16
	add	x0, x0, :lo12:.L.str.16
	str	x0, [sp]                        // 8-byte Folded Spill
	blr	x8
	ldr	x1, [sp]                        // 8-byte Folded Reload
	str	w0, [sp, #12]
	ldr	w2, [sp, #12]
	adrp	x0, .L.str.1
	add	x0, x0, :lo12:.L.str.1
	bl	__mingw_printf
	ldr	w0, [sp, #12]
	.seh_startepilogue
	ldr	x30, [sp, #32]                  // 8-byte Folded Reload
	.seh_save_reg	x30, 32
	add	sp, sp, #112
	.seh_stackalloc	112
	.seh_endepilogue
	ret
	.seh_endfunclet
	.seh_endproc
                                        // -- End function
	.def	use_indirect_va_list_several_strings;
	.scl	2;
	.type	32;
	.endef
	.globl	use_indirect_va_list_several_strings // -- Begin function use_indirect_va_list_several_strings
	.p2align	2
use_indirect_va_list_several_strings:   // @use_indirect_va_list_several_strings
.seh_proc use_indirect_va_list_several_strings
// %bb.0:
	sub	sp, sp, #48
	.seh_stackalloc	48
	str	x30, [sp, #32]                  // 8-byte Folded Spill
	.seh_save_reg	x30, 32
	.seh_endprologue
	str	x0, [sp, #24]
	str	x1, [sp, #16]
	ldr	x8, [sp, #24]
	ldr	x1, [sp, #16]
	adrp	x0, .L.str.16
	add	x0, x0, :lo12:.L.str.16
	str	x0, [sp]                        // 8-byte Folded Spill
	blr	x8
	ldr	x1, [sp]                        // 8-byte Folded Reload
	str	w0, [sp, #12]
	ldr	w2, [sp, #12]
	adrp	x0, .L.str.2
	add	x0, x0, :lo12:.L.str.2
	bl	__mingw_printf
	ldr	w0, [sp, #12]
	.seh_startepilogue
	ldr	x30, [sp, #32]                  // 8-byte Folded Reload
	.seh_save_reg	x30, 32
	add	sp, sp, #48
	.seh_stackalloc	48
	.seh_endepilogue
	ret
	.seh_endfunclet
	.seh_endproc
                                        // -- End function
	.def	test_indirect_va_list_several_strings;
	.scl	2;
	.type	32;
	.endef
	.globl	test_indirect_va_list_several_strings // -- Begin function test_indirect_va_list_several_strings
	.p2align	2
test_indirect_va_list_several_strings:  // @test_indirect_va_list_several_strings
.seh_proc test_indirect_va_list_several_strings
// %bb.0:
	sub	sp, sp, #112
	.seh_stackalloc	112
	str	x30, [sp, #32]                  // 8-byte Folded Spill
	.seh_save_reg	x30, 32
	.seh_endprologue
	str	x7, [sp, #104]
	str	x6, [sp, #96]
	str	x5, [sp, #88]
	str	x4, [sp, #80]
	str	x3, [sp, #72]
	str	x2, [sp, #64]
	str	x1, [sp, #56]
	str	x0, [sp, #24]
	add	x8, sp, #56
	str	x8, [sp, #16]
	ldr	x0, [sp, #24]
	ldr	x1, [sp, #16]
	bl	use_indirect_va_list_several_strings
	str	w0, [sp, #12]
	ldr	w0, [sp, #12]
	.seh_startepilogue
	ldr	x30, [sp, #32]                  // 8-byte Folded Reload
	.seh_save_reg	x30, 32
	add	sp, sp, #112
	.seh_stackalloc	112
	.seh_endepilogue
	ret
	.seh_endfunclet
	.seh_endproc
                                        // -- End function
	.def	test_va_list_many_strings;
	.scl	2;
	.type	32;
	.endef
	.globl	test_va_list_many_strings       // -- Begin function test_va_list_many_strings
	.p2align	2
test_va_list_many_strings:              // @test_va_list_many_strings
.seh_proc test_va_list_many_strings
// %bb.0:
	sub	sp, sp, #112
	.seh_stackalloc	112
	str	x30, [sp, #32]                  // 8-byte Folded Spill
	.seh_save_reg	x30, 32
	.seh_endprologue
	str	x7, [sp, #104]
	str	x6, [sp, #96]
	str	x5, [sp, #88]
	str	x4, [sp, #80]
	str	x3, [sp, #72]
	str	x2, [sp, #64]
	str	x1, [sp, #56]
	str	x0, [sp, #24]
	add	x8, sp, #56
	str	x8, [sp, #16]
	ldr	x8, [sp, #24]
	ldr	x1, [sp, #16]
	adrp	x0, .L.str.17
	add	x0, x0, :lo12:.L.str.17
	str	x0, [sp]                        // 8-byte Folded Spill
	blr	x8
	ldr	x1, [sp]                        // 8-byte Folded Reload
	str	w0, [sp, #12]
	ldr	w2, [sp, #12]
	adrp	x0, .L.str.1
	add	x0, x0, :lo12:.L.str.1
	bl	__mingw_printf
	ldr	w0, [sp, #12]
	.seh_startepilogue
	ldr	x30, [sp, #32]                  // 8-byte Folded Reload
	.seh_save_reg	x30, 32
	add	sp, sp, #112
	.seh_stackalloc	112
	.seh_endepilogue
	ret
	.seh_endfunclet
	.seh_endproc
                                        // -- End function
	.def	use_indirect_va_list_many_strings;
	.scl	2;
	.type	32;
	.endef
	.globl	use_indirect_va_list_many_strings // -- Begin function use_indirect_va_list_many_strings
	.p2align	2
use_indirect_va_list_many_strings:      // @use_indirect_va_list_many_strings
.seh_proc use_indirect_va_list_many_strings
// %bb.0:
	sub	sp, sp, #48
	.seh_stackalloc	48
	str	x30, [sp, #32]                  // 8-byte Folded Spill
	.seh_save_reg	x30, 32
	.seh_endprologue
	str	x0, [sp, #24]
	str	x1, [sp, #16]
	ldr	x8, [sp, #24]
	ldr	x1, [sp, #16]
	adrp	x0, .L.str.17
	add	x0, x0, :lo12:.L.str.17
	str	x0, [sp]                        // 8-byte Folded Spill
	blr	x8
	ldr	x1, [sp]                        // 8-byte Folded Reload
	str	w0, [sp, #12]
	ldr	w2, [sp, #12]
	adrp	x0, .L.str.2
	add	x0, x0, :lo12:.L.str.2
	bl	__mingw_printf
	ldr	w0, [sp, #12]
	.seh_startepilogue
	ldr	x30, [sp, #32]                  // 8-byte Folded Reload
	.seh_save_reg	x30, 32
	add	sp, sp, #48
	.seh_stackalloc	48
	.seh_endepilogue
	ret
	.seh_endfunclet
	.seh_endproc
                                        // -- End function
	.def	test_indirect_va_list_many_strings;
	.scl	2;
	.type	32;
	.endef
	.globl	test_indirect_va_list_many_strings // -- Begin function test_indirect_va_list_many_strings
	.p2align	2
test_indirect_va_list_many_strings:     // @test_indirect_va_list_many_strings
.seh_proc test_indirect_va_list_many_strings
// %bb.0:
	sub	sp, sp, #112
	.seh_stackalloc	112
	str	x30, [sp, #32]                  // 8-byte Folded Spill
	.seh_save_reg	x30, 32
	.seh_endprologue
	str	x7, [sp, #104]
	str	x6, [sp, #96]
	str	x5, [sp, #88]
	str	x4, [sp, #80]
	str	x3, [sp, #72]
	str	x2, [sp, #64]
	str	x1, [sp, #56]
	str	x0, [sp, #24]
	add	x8, sp, #56
	str	x8, [sp, #16]
	ldr	x0, [sp, #24]
	ldr	x1, [sp, #16]
	bl	use_indirect_va_list_many_strings
	str	w0, [sp, #12]
	ldr	w0, [sp, #12]
	.seh_startepilogue
	ldr	x30, [sp, #32]                  // 8-byte Folded Reload
	.seh_save_reg	x30, 32
	add	sp, sp, #112
	.seh_stackalloc	112
	.seh_endepilogue
	ret
	.seh_endfunclet
	.seh_endproc
                                        // -- End function
	.def	test_va_list_few_composites;
	.scl	2;
	.type	32;
	.endef
	.globl	test_va_list_few_composites     // -- Begin function test_va_list_few_composites
	.p2align	2
test_va_list_few_composites:            // @test_va_list_few_composites
.seh_proc test_va_list_few_composites
// %bb.0:
	sub	sp, sp, #112
	.seh_stackalloc	112
	str	x30, [sp, #32]                  // 8-byte Folded Spill
	.seh_save_reg	x30, 32
	.seh_endprologue
	str	x7, [sp, #104]
	str	x6, [sp, #96]
	str	x5, [sp, #88]
	str	x4, [sp, #80]
	str	x3, [sp, #72]
	str	x2, [sp, #64]
	str	x1, [sp, #56]
	str	x0, [sp, #24]
	add	x8, sp, #56
	str	x8, [sp, #16]
	ldr	x8, [sp, #24]
	ldr	x1, [sp, #16]
	adrp	x0, .L.str.18
	add	x0, x0, :lo12:.L.str.18
	str	x0, [sp]                        // 8-byte Folded Spill
	blr	x8
	ldr	x1, [sp]                        // 8-byte Folded Reload
	str	w0, [sp, #12]
	ldr	w2, [sp, #12]
	adrp	x0, .L.str.1
	add	x0, x0, :lo12:.L.str.1
	bl	__mingw_printf
	ldr	w0, [sp, #12]
	.seh_startepilogue
	ldr	x30, [sp, #32]                  // 8-byte Folded Reload
	.seh_save_reg	x30, 32
	add	sp, sp, #112
	.seh_stackalloc	112
	.seh_endepilogue
	ret
	.seh_endfunclet
	.seh_endproc
                                        // -- End function
	.def	use_indirect_va_list_few_composites;
	.scl	2;
	.type	32;
	.endef
	.globl	use_indirect_va_list_few_composites // -- Begin function use_indirect_va_list_few_composites
	.p2align	2
use_indirect_va_list_few_composites:    // @use_indirect_va_list_few_composites
.seh_proc use_indirect_va_list_few_composites
// %bb.0:
	sub	sp, sp, #48
	.seh_stackalloc	48
	str	x30, [sp, #32]                  // 8-byte Folded Spill
	.seh_save_reg	x30, 32
	.seh_endprologue
	str	x0, [sp, #24]
	str	x1, [sp, #16]
	ldr	x8, [sp, #24]
	ldr	x1, [sp, #16]
	adrp	x0, .L.str.18
	add	x0, x0, :lo12:.L.str.18
	str	x0, [sp]                        // 8-byte Folded Spill
	blr	x8
	ldr	x1, [sp]                        // 8-byte Folded Reload
	str	w0, [sp, #12]
	ldr	w2, [sp, #12]
	adrp	x0, .L.str.2
	add	x0, x0, :lo12:.L.str.2
	bl	__mingw_printf
	ldr	w0, [sp, #12]
	.seh_startepilogue
	ldr	x30, [sp, #32]                  // 8-byte Folded Reload
	.seh_save_reg	x30, 32
	add	sp, sp, #48
	.seh_stackalloc	48
	.seh_endepilogue
	ret
	.seh_endfunclet
	.seh_endproc
                                        // -- End function
	.def	test_indirect_va_list_few_composites;
	.scl	2;
	.type	32;
	.endef
	.globl	test_indirect_va_list_few_composites // -- Begin function test_indirect_va_list_few_composites
	.p2align	2
test_indirect_va_list_few_composites:   // @test_indirect_va_list_few_composites
.seh_proc test_indirect_va_list_few_composites
// %bb.0:
	sub	sp, sp, #112
	.seh_stackalloc	112
	str	x30, [sp, #32]                  // 8-byte Folded Spill
	.seh_save_reg	x30, 32
	.seh_endprologue
	str	x7, [sp, #104]
	str	x6, [sp, #96]
	str	x5, [sp, #88]
	str	x4, [sp, #80]
	str	x3, [sp, #72]
	str	x2, [sp, #64]
	str	x1, [sp, #56]
	str	x0, [sp, #24]
	add	x8, sp, #56
	str	x8, [sp, #16]
	ldr	x0, [sp, #24]
	ldr	x1, [sp, #16]
	bl	use_indirect_va_list_few_composites
	str	w0, [sp, #12]
	ldr	w0, [sp, #12]
	.seh_startepilogue
	ldr	x30, [sp, #32]                  // 8-byte Folded Reload
	.seh_save_reg	x30, 32
	add	sp, sp, #112
	.seh_stackalloc	112
	.seh_endepilogue
	ret
	.seh_endfunclet
	.seh_endproc
                                        // -- End function
	.def	test_va_list_several_composites;
	.scl	2;
	.type	32;
	.endef
	.globl	test_va_list_several_composites // -- Begin function test_va_list_several_composites
	.p2align	2
test_va_list_several_composites:        // @test_va_list_several_composites
.seh_proc test_va_list_several_composites
// %bb.0:
	sub	sp, sp, #112
	.seh_stackalloc	112
	str	x30, [sp, #32]                  // 8-byte Folded Spill
	.seh_save_reg	x30, 32
	.seh_endprologue
	str	x7, [sp, #104]
	str	x6, [sp, #96]
	str	x5, [sp, #88]
	str	x4, [sp, #80]
	str	x3, [sp, #72]
	str	x2, [sp, #64]
	str	x1, [sp, #56]
	str	x0, [sp, #24]
	add	x8, sp, #56
	str	x8, [sp, #16]
	ldr	x8, [sp, #24]
	ldr	x1, [sp, #16]
	adrp	x0, .L.str.19
	add	x0, x0, :lo12:.L.str.19
	str	x0, [sp]                        // 8-byte Folded Spill
	blr	x8
	ldr	x1, [sp]                        // 8-byte Folded Reload
	str	w0, [sp, #12]
	ldr	w2, [sp, #12]
	adrp	x0, .L.str.1
	add	x0, x0, :lo12:.L.str.1
	bl	__mingw_printf
	ldr	w0, [sp, #12]
	.seh_startepilogue
	ldr	x30, [sp, #32]                  // 8-byte Folded Reload
	.seh_save_reg	x30, 32
	add	sp, sp, #112
	.seh_stackalloc	112
	.seh_endepilogue
	ret
	.seh_endfunclet
	.seh_endproc
                                        // -- End function
	.def	use_indirect_va_list_several_composites;
	.scl	2;
	.type	32;
	.endef
	.globl	use_indirect_va_list_several_composites // -- Begin function use_indirect_va_list_several_composites
	.p2align	2
use_indirect_va_list_several_composites: // @use_indirect_va_list_several_composites
.seh_proc use_indirect_va_list_several_composites
// %bb.0:
	sub	sp, sp, #48
	.seh_stackalloc	48
	str	x30, [sp, #32]                  // 8-byte Folded Spill
	.seh_save_reg	x30, 32
	.seh_endprologue
	str	x0, [sp, #24]
	str	x1, [sp, #16]
	ldr	x8, [sp, #24]
	ldr	x1, [sp, #16]
	adrp	x0, .L.str.19
	add	x0, x0, :lo12:.L.str.19
	str	x0, [sp]                        // 8-byte Folded Spill
	blr	x8
	ldr	x1, [sp]                        // 8-byte Folded Reload
	str	w0, [sp, #12]
	ldr	w2, [sp, #12]
	adrp	x0, .L.str.2
	add	x0, x0, :lo12:.L.str.2
	bl	__mingw_printf
	ldr	w0, [sp, #12]
	.seh_startepilogue
	ldr	x30, [sp, #32]                  // 8-byte Folded Reload
	.seh_save_reg	x30, 32
	add	sp, sp, #48
	.seh_stackalloc	48
	.seh_endepilogue
	ret
	.seh_endfunclet
	.seh_endproc
                                        // -- End function
	.def	test_indirect_va_list_several_composites;
	.scl	2;
	.type	32;
	.endef
	.globl	test_indirect_va_list_several_composites // -- Begin function test_indirect_va_list_several_composites
	.p2align	2
test_indirect_va_list_several_composites: // @test_indirect_va_list_several_composites
.seh_proc test_indirect_va_list_several_composites
// %bb.0:
	sub	sp, sp, #112
	.seh_stackalloc	112
	str	x30, [sp, #32]                  // 8-byte Folded Spill
	.seh_save_reg	x30, 32
	.seh_endprologue
	str	x7, [sp, #104]
	str	x6, [sp, #96]
	str	x5, [sp, #88]
	str	x4, [sp, #80]
	str	x3, [sp, #72]
	str	x2, [sp, #64]
	str	x1, [sp, #56]
	str	x0, [sp, #24]
	add	x8, sp, #56
	str	x8, [sp, #16]
	ldr	x0, [sp, #24]
	ldr	x1, [sp, #16]
	bl	use_indirect_va_list_several_composites
	str	w0, [sp, #12]
	ldr	w0, [sp, #12]
	.seh_startepilogue
	ldr	x30, [sp, #32]                  // 8-byte Folded Reload
	.seh_save_reg	x30, 32
	add	sp, sp, #112
	.seh_stackalloc	112
	.seh_endepilogue
	ret
	.seh_endfunclet
	.seh_endproc
                                        // -- End function
	.def	test_va_list_many_composites;
	.scl	2;
	.type	32;
	.endef
	.globl	test_va_list_many_composites    // -- Begin function test_va_list_many_composites
	.p2align	2
test_va_list_many_composites:           // @test_va_list_many_composites
.seh_proc test_va_list_many_composites
// %bb.0:
	sub	sp, sp, #112
	.seh_stackalloc	112
	str	x30, [sp, #32]                  // 8-byte Folded Spill
	.seh_save_reg	x30, 32
	.seh_endprologue
	str	x7, [sp, #104]
	str	x6, [sp, #96]
	str	x5, [sp, #88]
	str	x4, [sp, #80]
	str	x3, [sp, #72]
	str	x2, [sp, #64]
	str	x1, [sp, #56]
	str	x0, [sp, #24]
	add	x8, sp, #56
	str	x8, [sp, #16]
	ldr	x8, [sp, #24]
	ldr	x1, [sp, #16]
	adrp	x0, .L.str.20
	add	x0, x0, :lo12:.L.str.20
	str	x0, [sp]                        // 8-byte Folded Spill
	blr	x8
	ldr	x1, [sp]                        // 8-byte Folded Reload
	str	w0, [sp, #12]
	ldr	w2, [sp, #12]
	adrp	x0, .L.str.1
	add	x0, x0, :lo12:.L.str.1
	bl	__mingw_printf
	ldr	w0, [sp, #12]
	.seh_startepilogue
	ldr	x30, [sp, #32]                  // 8-byte Folded Reload
	.seh_save_reg	x30, 32
	add	sp, sp, #112
	.seh_stackalloc	112
	.seh_endepilogue
	ret
	.seh_endfunclet
	.seh_endproc
                                        // -- End function
	.def	use_indirect_va_list_many_composites;
	.scl	2;
	.type	32;
	.endef
	.globl	use_indirect_va_list_many_composites // -- Begin function use_indirect_va_list_many_composites
	.p2align	2
use_indirect_va_list_many_composites:   // @use_indirect_va_list_many_composites
.seh_proc use_indirect_va_list_many_composites
// %bb.0:
	sub	sp, sp, #48
	.seh_stackalloc	48
	str	x30, [sp, #32]                  // 8-byte Folded Spill
	.seh_save_reg	x30, 32
	.seh_endprologue
	str	x0, [sp, #24]
	str	x1, [sp, #16]
	ldr	x8, [sp, #24]
	ldr	x1, [sp, #16]
	adrp	x0, .L.str.20
	add	x0, x0, :lo12:.L.str.20
	str	x0, [sp]                        // 8-byte Folded Spill
	blr	x8
	ldr	x1, [sp]                        // 8-byte Folded Reload
	str	w0, [sp, #12]
	ldr	w2, [sp, #12]
	adrp	x0, .L.str.2
	add	x0, x0, :lo12:.L.str.2
	bl	__mingw_printf
	ldr	w0, [sp, #12]
	.seh_startepilogue
	ldr	x30, [sp, #32]                  // 8-byte Folded Reload
	.seh_save_reg	x30, 32
	add	sp, sp, #48
	.seh_stackalloc	48
	.seh_endepilogue
	ret
	.seh_endfunclet
	.seh_endproc
                                        // -- End function
	.def	test_indirect_va_list_many_composites;
	.scl	2;
	.type	32;
	.endef
	.globl	test_indirect_va_list_many_composites // -- Begin function test_indirect_va_list_many_composites
	.p2align	2
test_indirect_va_list_many_composites:  // @test_indirect_va_list_many_composites
.seh_proc test_indirect_va_list_many_composites
// %bb.0:
	sub	sp, sp, #112
	.seh_stackalloc	112
	str	x30, [sp, #32]                  // 8-byte Folded Spill
	.seh_save_reg	x30, 32
	.seh_endprologue
	str	x7, [sp, #104]
	str	x6, [sp, #96]
	str	x5, [sp, #88]
	str	x4, [sp, #80]
	str	x3, [sp, #72]
	str	x2, [sp, #64]
	str	x1, [sp, #56]
	str	x0, [sp, #24]
	add	x8, sp, #56
	str	x8, [sp, #16]
	ldr	x0, [sp, #24]
	ldr	x1, [sp, #16]
	bl	use_indirect_va_list_many_composites
	str	w0, [sp, #12]
	ldr	w0, [sp, #12]
	.seh_startepilogue
	ldr	x30, [sp, #32]                  // 8-byte Folded Reload
	.seh_save_reg	x30, 32
	add	sp, sp, #112
	.seh_stackalloc	112
	.seh_endepilogue
	ret
	.seh_endfunclet
	.seh_endproc
                                        // -- End function
	.def	test_va_list_few_short_vector_8_bytes;
	.scl	2;
	.type	32;
	.endef
	.globl	test_va_list_few_short_vector_8_bytes // -- Begin function test_va_list_few_short_vector_8_bytes
	.p2align	2
test_va_list_few_short_vector_8_bytes:  // @test_va_list_few_short_vector_8_bytes
.seh_proc test_va_list_few_short_vector_8_bytes
// %bb.0:
	sub	sp, sp, #112
	.seh_stackalloc	112
	str	x30, [sp, #32]                  // 8-byte Folded Spill
	.seh_save_reg	x30, 32
	.seh_endprologue
	str	x7, [sp, #104]
	str	x6, [sp, #96]
	str	x5, [sp, #88]
	str	x4, [sp, #80]
	str	x3, [sp, #72]
	str	x2, [sp, #64]
	str	x1, [sp, #56]
	str	x0, [sp, #24]
	add	x8, sp, #56
	str	x8, [sp, #16]
	ldr	x8, [sp, #24]
	ldr	x1, [sp, #16]
	adrp	x0, .L.str.21
	add	x0, x0, :lo12:.L.str.21
	str	x0, [sp]                        // 8-byte Folded Spill
	blr	x8
	ldr	x1, [sp]                        // 8-byte Folded Reload
	str	w0, [sp, #12]
	ldr	w2, [sp, #12]
	adrp	x0, .L.str.1
	add	x0, x0, :lo12:.L.str.1
	bl	__mingw_printf
	ldr	w0, [sp, #12]
	.seh_startepilogue
	ldr	x30, [sp, #32]                  // 8-byte Folded Reload
	.seh_save_reg	x30, 32
	add	sp, sp, #112
	.seh_stackalloc	112
	.seh_endepilogue
	ret
	.seh_endfunclet
	.seh_endproc
                                        // -- End function
	.def	use_indirect_va_list_few_short_vector_8_bytes;
	.scl	2;
	.type	32;
	.endef
	.globl	use_indirect_va_list_few_short_vector_8_bytes // -- Begin function use_indirect_va_list_few_short_vector_8_bytes
	.p2align	2
use_indirect_va_list_few_short_vector_8_bytes: // @use_indirect_va_list_few_short_vector_8_bytes
.seh_proc use_indirect_va_list_few_short_vector_8_bytes
// %bb.0:
	sub	sp, sp, #48
	.seh_stackalloc	48
	str	x30, [sp, #32]                  // 8-byte Folded Spill
	.seh_save_reg	x30, 32
	.seh_endprologue
	str	x0, [sp, #24]
	str	x1, [sp, #16]
	ldr	x8, [sp, #24]
	ldr	x1, [sp, #16]
	adrp	x0, .L.str.21
	add	x0, x0, :lo12:.L.str.21
	str	x0, [sp]                        // 8-byte Folded Spill
	blr	x8
	ldr	x1, [sp]                        // 8-byte Folded Reload
	str	w0, [sp, #12]
	ldr	w2, [sp, #12]
	adrp	x0, .L.str.2
	add	x0, x0, :lo12:.L.str.2
	bl	__mingw_printf
	ldr	w0, [sp, #12]
	.seh_startepilogue
	ldr	x30, [sp, #32]                  // 8-byte Folded Reload
	.seh_save_reg	x30, 32
	add	sp, sp, #48
	.seh_stackalloc	48
	.seh_endepilogue
	ret
	.seh_endfunclet
	.seh_endproc
                                        // -- End function
	.def	test_indirect_va_list_few_short_vector_8_bytes;
	.scl	2;
	.type	32;
	.endef
	.globl	test_indirect_va_list_few_short_vector_8_bytes // -- Begin function test_indirect_va_list_few_short_vector_8_bytes
	.p2align	2
test_indirect_va_list_few_short_vector_8_bytes: // @test_indirect_va_list_few_short_vector_8_bytes
.seh_proc test_indirect_va_list_few_short_vector_8_bytes
// %bb.0:
	sub	sp, sp, #112
	.seh_stackalloc	112
	str	x30, [sp, #32]                  // 8-byte Folded Spill
	.seh_save_reg	x30, 32
	.seh_endprologue
	str	x7, [sp, #104]
	str	x6, [sp, #96]
	str	x5, [sp, #88]
	str	x4, [sp, #80]
	str	x3, [sp, #72]
	str	x2, [sp, #64]
	str	x1, [sp, #56]
	str	x0, [sp, #24]
	add	x8, sp, #56
	str	x8, [sp, #16]
	ldr	x0, [sp, #24]
	ldr	x1, [sp, #16]
	bl	use_indirect_va_list_few_short_vector_8_bytes
	str	w0, [sp, #12]
	ldr	w0, [sp, #12]
	.seh_startepilogue
	ldr	x30, [sp, #32]                  // 8-byte Folded Reload
	.seh_save_reg	x30, 32
	add	sp, sp, #112
	.seh_stackalloc	112
	.seh_endepilogue
	ret
	.seh_endfunclet
	.seh_endproc
                                        // -- End function
	.def	test_va_list_several_short_vector_8_bytes;
	.scl	2;
	.type	32;
	.endef
	.globl	test_va_list_several_short_vector_8_bytes // -- Begin function test_va_list_several_short_vector_8_bytes
	.p2align	2
test_va_list_several_short_vector_8_bytes: // @test_va_list_several_short_vector_8_bytes
.seh_proc test_va_list_several_short_vector_8_bytes
// %bb.0:
	sub	sp, sp, #112
	.seh_stackalloc	112
	str	x30, [sp, #32]                  // 8-byte Folded Spill
	.seh_save_reg	x30, 32
	.seh_endprologue
	str	x7, [sp, #104]
	str	x6, [sp, #96]
	str	x5, [sp, #88]
	str	x4, [sp, #80]
	str	x3, [sp, #72]
	str	x2, [sp, #64]
	str	x1, [sp, #56]
	str	x0, [sp, #24]
	add	x8, sp, #56
	str	x8, [sp, #16]
	ldr	x8, [sp, #24]
	ldr	x1, [sp, #16]
	adrp	x0, .L.str.22
	add	x0, x0, :lo12:.L.str.22
	str	x0, [sp]                        // 8-byte Folded Spill
	blr	x8
	ldr	x1, [sp]                        // 8-byte Folded Reload
	str	w0, [sp, #12]
	ldr	w2, [sp, #12]
	adrp	x0, .L.str.1
	add	x0, x0, :lo12:.L.str.1
	bl	__mingw_printf
	ldr	w0, [sp, #12]
	.seh_startepilogue
	ldr	x30, [sp, #32]                  // 8-byte Folded Reload
	.seh_save_reg	x30, 32
	add	sp, sp, #112
	.seh_stackalloc	112
	.seh_endepilogue
	ret
	.seh_endfunclet
	.seh_endproc
                                        // -- End function
	.def	use_indirect_va_list_several_short_vector_8_bytes;
	.scl	2;
	.type	32;
	.endef
	.globl	use_indirect_va_list_several_short_vector_8_bytes // -- Begin function use_indirect_va_list_several_short_vector_8_bytes
	.p2align	2
use_indirect_va_list_several_short_vector_8_bytes: // @use_indirect_va_list_several_short_vector_8_bytes
.seh_proc use_indirect_va_list_several_short_vector_8_bytes
// %bb.0:
	sub	sp, sp, #48
	.seh_stackalloc	48
	str	x30, [sp, #32]                  // 8-byte Folded Spill
	.seh_save_reg	x30, 32
	.seh_endprologue
	str	x0, [sp, #24]
	str	x1, [sp, #16]
	ldr	x8, [sp, #24]
	ldr	x1, [sp, #16]
	adrp	x0, .L.str.22
	add	x0, x0, :lo12:.L.str.22
	str	x0, [sp]                        // 8-byte Folded Spill
	blr	x8
	ldr	x1, [sp]                        // 8-byte Folded Reload
	str	w0, [sp, #12]
	ldr	w2, [sp, #12]
	adrp	x0, .L.str.2
	add	x0, x0, :lo12:.L.str.2
	bl	__mingw_printf
	ldr	w0, [sp, #12]
	.seh_startepilogue
	ldr	x30, [sp, #32]                  // 8-byte Folded Reload
	.seh_save_reg	x30, 32
	add	sp, sp, #48
	.seh_stackalloc	48
	.seh_endepilogue
	ret
	.seh_endfunclet
	.seh_endproc
                                        // -- End function
	.def	test_indirect_va_list_several_short_vector_8_bytes;
	.scl	2;
	.type	32;
	.endef
	.globl	test_indirect_va_list_several_short_vector_8_bytes // -- Begin function test_indirect_va_list_several_short_vector_8_bytes
	.p2align	2
test_indirect_va_list_several_short_vector_8_bytes: // @test_indirect_va_list_several_short_vector_8_bytes
.seh_proc test_indirect_va_list_several_short_vector_8_bytes
// %bb.0:
	sub	sp, sp, #112
	.seh_stackalloc	112
	str	x30, [sp, #32]                  // 8-byte Folded Spill
	.seh_save_reg	x30, 32
	.seh_endprologue
	str	x7, [sp, #104]
	str	x6, [sp, #96]
	str	x5, [sp, #88]
	str	x4, [sp, #80]
	str	x3, [sp, #72]
	str	x2, [sp, #64]
	str	x1, [sp, #56]
	str	x0, [sp, #24]
	add	x8, sp, #56
	str	x8, [sp, #16]
	ldr	x0, [sp, #24]
	ldr	x1, [sp, #16]
	bl	use_indirect_va_list_several_short_vector_8_bytes
	str	w0, [sp, #12]
	ldr	w0, [sp, #12]
	.seh_startepilogue
	ldr	x30, [sp, #32]                  // 8-byte Folded Reload
	.seh_save_reg	x30, 32
	add	sp, sp, #112
	.seh_stackalloc	112
	.seh_endepilogue
	ret
	.seh_endfunclet
	.seh_endproc
                                        // -- End function
	.def	test_va_list_many_short_vector_8_bytes;
	.scl	2;
	.type	32;
	.endef
	.globl	test_va_list_many_short_vector_8_bytes // -- Begin function test_va_list_many_short_vector_8_bytes
	.p2align	2
test_va_list_many_short_vector_8_bytes: // @test_va_list_many_short_vector_8_bytes
.seh_proc test_va_list_many_short_vector_8_bytes
// %bb.0:
	sub	sp, sp, #112
	.seh_stackalloc	112
	str	x30, [sp, #32]                  // 8-byte Folded Spill
	.seh_save_reg	x30, 32
	.seh_endprologue
	str	x7, [sp, #104]
	str	x6, [sp, #96]
	str	x5, [sp, #88]
	str	x4, [sp, #80]
	str	x3, [sp, #72]
	str	x2, [sp, #64]
	str	x1, [sp, #56]
	str	x0, [sp, #24]
	add	x8, sp, #56
	str	x8, [sp, #16]
	ldr	x8, [sp, #24]
	ldr	x1, [sp, #16]
	adrp	x0, .L.str.23
	add	x0, x0, :lo12:.L.str.23
	str	x0, [sp]                        // 8-byte Folded Spill
	blr	x8
	ldr	x1, [sp]                        // 8-byte Folded Reload
	str	w0, [sp, #12]
	ldr	w2, [sp, #12]
	adrp	x0, .L.str.1
	add	x0, x0, :lo12:.L.str.1
	bl	__mingw_printf
	ldr	w0, [sp, #12]
	.seh_startepilogue
	ldr	x30, [sp, #32]                  // 8-byte Folded Reload
	.seh_save_reg	x30, 32
	add	sp, sp, #112
	.seh_stackalloc	112
	.seh_endepilogue
	ret
	.seh_endfunclet
	.seh_endproc
                                        // -- End function
	.def	use_indirect_va_list_many_short_vector_8_bytes;
	.scl	2;
	.type	32;
	.endef
	.globl	use_indirect_va_list_many_short_vector_8_bytes // -- Begin function use_indirect_va_list_many_short_vector_8_bytes
	.p2align	2
use_indirect_va_list_many_short_vector_8_bytes: // @use_indirect_va_list_many_short_vector_8_bytes
.seh_proc use_indirect_va_list_many_short_vector_8_bytes
// %bb.0:
	sub	sp, sp, #48
	.seh_stackalloc	48
	str	x30, [sp, #32]                  // 8-byte Folded Spill
	.seh_save_reg	x30, 32
	.seh_endprologue
	str	x0, [sp, #24]
	str	x1, [sp, #16]
	ldr	x8, [sp, #24]
	ldr	x1, [sp, #16]
	adrp	x0, .L.str.23
	add	x0, x0, :lo12:.L.str.23
	str	x0, [sp]                        // 8-byte Folded Spill
	blr	x8
	ldr	x1, [sp]                        // 8-byte Folded Reload
	str	w0, [sp, #12]
	ldr	w2, [sp, #12]
	adrp	x0, .L.str.2
	add	x0, x0, :lo12:.L.str.2
	bl	__mingw_printf
	ldr	w0, [sp, #12]
	.seh_startepilogue
	ldr	x30, [sp, #32]                  // 8-byte Folded Reload
	.seh_save_reg	x30, 32
	add	sp, sp, #48
	.seh_stackalloc	48
	.seh_endepilogue
	ret
	.seh_endfunclet
	.seh_endproc
                                        // -- End function
	.def	test_indirect_va_list_many_short_vector_8_bytes;
	.scl	2;
	.type	32;
	.endef
	.globl	test_indirect_va_list_many_short_vector_8_bytes // -- Begin function test_indirect_va_list_many_short_vector_8_bytes
	.p2align	2
test_indirect_va_list_many_short_vector_8_bytes: // @test_indirect_va_list_many_short_vector_8_bytes
.seh_proc test_indirect_va_list_many_short_vector_8_bytes
// %bb.0:
	sub	sp, sp, #112
	.seh_stackalloc	112
	str	x30, [sp, #32]                  // 8-byte Folded Spill
	.seh_save_reg	x30, 32
	.seh_endprologue
	str	x7, [sp, #104]
	str	x6, [sp, #96]
	str	x5, [sp, #88]
	str	x4, [sp, #80]
	str	x3, [sp, #72]
	str	x2, [sp, #64]
	str	x1, [sp, #56]
	str	x0, [sp, #24]
	add	x8, sp, #56
	str	x8, [sp, #16]
	ldr	x0, [sp, #24]
	ldr	x1, [sp, #16]
	bl	use_indirect_va_list_many_short_vector_8_bytes
	str	w0, [sp, #12]
	ldr	w0, [sp, #12]
	.seh_startepilogue
	ldr	x30, [sp, #32]                  // 8-byte Folded Reload
	.seh_save_reg	x30, 32
	add	sp, sp, #112
	.seh_stackalloc	112
	.seh_endepilogue
	ret
	.seh_endfunclet
	.seh_endproc
                                        // -- End function
	.def	test_va_list_few_not_short_vector_12_bytes;
	.scl	2;
	.type	32;
	.endef
	.globl	test_va_list_few_not_short_vector_12_bytes // -- Begin function test_va_list_few_not_short_vector_12_bytes
	.p2align	2
test_va_list_few_not_short_vector_12_bytes: // @test_va_list_few_not_short_vector_12_bytes
.seh_proc test_va_list_few_not_short_vector_12_bytes
// %bb.0:
	sub	sp, sp, #112
	.seh_stackalloc	112
	str	x30, [sp, #32]                  // 8-byte Folded Spill
	.seh_save_reg	x30, 32
	.seh_endprologue
	str	x7, [sp, #104]
	str	x6, [sp, #96]
	str	x5, [sp, #88]
	str	x4, [sp, #80]
	str	x3, [sp, #72]
	str	x2, [sp, #64]
	str	x1, [sp, #56]
	str	x0, [sp, #24]
	add	x8, sp, #56
	str	x8, [sp, #16]
	ldr	x8, [sp, #24]
	ldr	x1, [sp, #16]
	adrp	x0, .L.str.24
	add	x0, x0, :lo12:.L.str.24
	str	x0, [sp]                        // 8-byte Folded Spill
	blr	x8
	ldr	x1, [sp]                        // 8-byte Folded Reload
	str	w0, [sp, #12]
	ldr	w2, [sp, #12]
	adrp	x0, .L.str.1
	add	x0, x0, :lo12:.L.str.1
	bl	__mingw_printf
	ldr	w0, [sp, #12]
	.seh_startepilogue
	ldr	x30, [sp, #32]                  // 8-byte Folded Reload
	.seh_save_reg	x30, 32
	add	sp, sp, #112
	.seh_stackalloc	112
	.seh_endepilogue
	ret
	.seh_endfunclet
	.seh_endproc
                                        // -- End function
	.def	use_indirect_va_list_few_not_short_vector_12_bytes;
	.scl	2;
	.type	32;
	.endef
	.globl	use_indirect_va_list_few_not_short_vector_12_bytes // -- Begin function use_indirect_va_list_few_not_short_vector_12_bytes
	.p2align	2
use_indirect_va_list_few_not_short_vector_12_bytes: // @use_indirect_va_list_few_not_short_vector_12_bytes
.seh_proc use_indirect_va_list_few_not_short_vector_12_bytes
// %bb.0:
	sub	sp, sp, #48
	.seh_stackalloc	48
	str	x30, [sp, #32]                  // 8-byte Folded Spill
	.seh_save_reg	x30, 32
	.seh_endprologue
	str	x0, [sp, #24]
	str	x1, [sp, #16]
	ldr	x8, [sp, #24]
	ldr	x1, [sp, #16]
	adrp	x0, .L.str.24
	add	x0, x0, :lo12:.L.str.24
	str	x0, [sp]                        // 8-byte Folded Spill
	blr	x8
	ldr	x1, [sp]                        // 8-byte Folded Reload
	str	w0, [sp, #12]
	ldr	w2, [sp, #12]
	adrp	x0, .L.str.2
	add	x0, x0, :lo12:.L.str.2
	bl	__mingw_printf
	ldr	w0, [sp, #12]
	.seh_startepilogue
	ldr	x30, [sp, #32]                  // 8-byte Folded Reload
	.seh_save_reg	x30, 32
	add	sp, sp, #48
	.seh_stackalloc	48
	.seh_endepilogue
	ret
	.seh_endfunclet
	.seh_endproc
                                        // -- End function
	.def	test_indirect_va_list_few_not_short_vector_12_bytes;
	.scl	2;
	.type	32;
	.endef
	.globl	test_indirect_va_list_few_not_short_vector_12_bytes // -- Begin function test_indirect_va_list_few_not_short_vector_12_bytes
	.p2align	2
test_indirect_va_list_few_not_short_vector_12_bytes: // @test_indirect_va_list_few_not_short_vector_12_bytes
.seh_proc test_indirect_va_list_few_not_short_vector_12_bytes
// %bb.0:
	sub	sp, sp, #112
	.seh_stackalloc	112
	str	x30, [sp, #32]                  // 8-byte Folded Spill
	.seh_save_reg	x30, 32
	.seh_endprologue
	str	x7, [sp, #104]
	str	x6, [sp, #96]
	str	x5, [sp, #88]
	str	x4, [sp, #80]
	str	x3, [sp, #72]
	str	x2, [sp, #64]
	str	x1, [sp, #56]
	str	x0, [sp, #24]
	add	x8, sp, #56
	str	x8, [sp, #16]
	ldr	x0, [sp, #24]
	ldr	x1, [sp, #16]
	bl	use_indirect_va_list_few_not_short_vector_12_bytes
	str	w0, [sp, #12]
	ldr	w0, [sp, #12]
	.seh_startepilogue
	ldr	x30, [sp, #32]                  // 8-byte Folded Reload
	.seh_save_reg	x30, 32
	add	sp, sp, #112
	.seh_stackalloc	112
	.seh_endepilogue
	ret
	.seh_endfunclet
	.seh_endproc
                                        // -- End function
	.def	test_va_list_several_not_short_vector_12_bytes;
	.scl	2;
	.type	32;
	.endef
	.globl	test_va_list_several_not_short_vector_12_bytes // -- Begin function test_va_list_several_not_short_vector_12_bytes
	.p2align	2
test_va_list_several_not_short_vector_12_bytes: // @test_va_list_several_not_short_vector_12_bytes
.seh_proc test_va_list_several_not_short_vector_12_bytes
// %bb.0:
	sub	sp, sp, #112
	.seh_stackalloc	112
	str	x30, [sp, #32]                  // 8-byte Folded Spill
	.seh_save_reg	x30, 32
	.seh_endprologue
	str	x7, [sp, #104]
	str	x6, [sp, #96]
	str	x5, [sp, #88]
	str	x4, [sp, #80]
	str	x3, [sp, #72]
	str	x2, [sp, #64]
	str	x1, [sp, #56]
	str	x0, [sp, #24]
	add	x8, sp, #56
	str	x8, [sp, #16]
	ldr	x8, [sp, #24]
	ldr	x1, [sp, #16]
	adrp	x0, .L.str.25
	add	x0, x0, :lo12:.L.str.25
	str	x0, [sp]                        // 8-byte Folded Spill
	blr	x8
	ldr	x1, [sp]                        // 8-byte Folded Reload
	str	w0, [sp, #12]
	ldr	w2, [sp, #12]
	adrp	x0, .L.str.1
	add	x0, x0, :lo12:.L.str.1
	bl	__mingw_printf
	ldr	w0, [sp, #12]
	.seh_startepilogue
	ldr	x30, [sp, #32]                  // 8-byte Folded Reload
	.seh_save_reg	x30, 32
	add	sp, sp, #112
	.seh_stackalloc	112
	.seh_endepilogue
	ret
	.seh_endfunclet
	.seh_endproc
                                        // -- End function
	.def	use_indirect_va_list_several_not_short_vector_12_bytes;
	.scl	2;
	.type	32;
	.endef
	.globl	use_indirect_va_list_several_not_short_vector_12_bytes // -- Begin function use_indirect_va_list_several_not_short_vector_12_bytes
	.p2align	2
use_indirect_va_list_several_not_short_vector_12_bytes: // @use_indirect_va_list_several_not_short_vector_12_bytes
.seh_proc use_indirect_va_list_several_not_short_vector_12_bytes
// %bb.0:
	sub	sp, sp, #48
	.seh_stackalloc	48
	str	x30, [sp, #32]                  // 8-byte Folded Spill
	.seh_save_reg	x30, 32
	.seh_endprologue
	str	x0, [sp, #24]
	str	x1, [sp, #16]
	ldr	x8, [sp, #24]
	ldr	x1, [sp, #16]
	adrp	x0, .L.str.25
	add	x0, x0, :lo12:.L.str.25
	str	x0, [sp]                        // 8-byte Folded Spill
	blr	x8
	ldr	x1, [sp]                        // 8-byte Folded Reload
	str	w0, [sp, #12]
	ldr	w2, [sp, #12]
	adrp	x0, .L.str.2
	add	x0, x0, :lo12:.L.str.2
	bl	__mingw_printf
	ldr	w0, [sp, #12]
	.seh_startepilogue
	ldr	x30, [sp, #32]                  // 8-byte Folded Reload
	.seh_save_reg	x30, 32
	add	sp, sp, #48
	.seh_stackalloc	48
	.seh_endepilogue
	ret
	.seh_endfunclet
	.seh_endproc
                                        // -- End function
	.def	test_indirect_va_list_several_not_short_vector_12_bytes;
	.scl	2;
	.type	32;
	.endef
	.globl	test_indirect_va_list_several_not_short_vector_12_bytes // -- Begin function test_indirect_va_list_several_not_short_vector_12_bytes
	.p2align	2
test_indirect_va_list_several_not_short_vector_12_bytes: // @test_indirect_va_list_several_not_short_vector_12_bytes
.seh_proc test_indirect_va_list_several_not_short_vector_12_bytes
// %bb.0:
	sub	sp, sp, #112
	.seh_stackalloc	112
	str	x30, [sp, #32]                  // 8-byte Folded Spill
	.seh_save_reg	x30, 32
	.seh_endprologue
	str	x7, [sp, #104]
	str	x6, [sp, #96]
	str	x5, [sp, #88]
	str	x4, [sp, #80]
	str	x3, [sp, #72]
	str	x2, [sp, #64]
	str	x1, [sp, #56]
	str	x0, [sp, #24]
	add	x8, sp, #56
	str	x8, [sp, #16]
	ldr	x0, [sp, #24]
	ldr	x1, [sp, #16]
	bl	use_indirect_va_list_several_not_short_vector_12_bytes
	str	w0, [sp, #12]
	ldr	w0, [sp, #12]
	.seh_startepilogue
	ldr	x30, [sp, #32]                  // 8-byte Folded Reload
	.seh_save_reg	x30, 32
	add	sp, sp, #112
	.seh_stackalloc	112
	.seh_endepilogue
	ret
	.seh_endfunclet
	.seh_endproc
                                        // -- End function
	.def	test_va_list_many_not_short_vector_12_bytes;
	.scl	2;
	.type	32;
	.endef
	.globl	test_va_list_many_not_short_vector_12_bytes // -- Begin function test_va_list_many_not_short_vector_12_bytes
	.p2align	2
test_va_list_many_not_short_vector_12_bytes: // @test_va_list_many_not_short_vector_12_bytes
.seh_proc test_va_list_many_not_short_vector_12_bytes
// %bb.0:
	sub	sp, sp, #112
	.seh_stackalloc	112
	str	x30, [sp, #32]                  // 8-byte Folded Spill
	.seh_save_reg	x30, 32
	.seh_endprologue
	str	x7, [sp, #104]
	str	x6, [sp, #96]
	str	x5, [sp, #88]
	str	x4, [sp, #80]
	str	x3, [sp, #72]
	str	x2, [sp, #64]
	str	x1, [sp, #56]
	str	x0, [sp, #24]
	add	x8, sp, #56
	str	x8, [sp, #16]
	ldr	x8, [sp, #24]
	ldr	x1, [sp, #16]
	adrp	x0, .L.str.26
	add	x0, x0, :lo12:.L.str.26
	str	x0, [sp]                        // 8-byte Folded Spill
	blr	x8
	ldr	x1, [sp]                        // 8-byte Folded Reload
	str	w0, [sp, #12]
	ldr	w2, [sp, #12]
	adrp	x0, .L.str.1
	add	x0, x0, :lo12:.L.str.1
	bl	__mingw_printf
	ldr	w0, [sp, #12]
	.seh_startepilogue
	ldr	x30, [sp, #32]                  // 8-byte Folded Reload
	.seh_save_reg	x30, 32
	add	sp, sp, #112
	.seh_stackalloc	112
	.seh_endepilogue
	ret
	.seh_endfunclet
	.seh_endproc
                                        // -- End function
	.def	use_indirect_va_list_many_not_short_vector_12_bytes;
	.scl	2;
	.type	32;
	.endef
	.globl	use_indirect_va_list_many_not_short_vector_12_bytes // -- Begin function use_indirect_va_list_many_not_short_vector_12_bytes
	.p2align	2
use_indirect_va_list_many_not_short_vector_12_bytes: // @use_indirect_va_list_many_not_short_vector_12_bytes
.seh_proc use_indirect_va_list_many_not_short_vector_12_bytes
// %bb.0:
	sub	sp, sp, #48
	.seh_stackalloc	48
	str	x30, [sp, #32]                  // 8-byte Folded Spill
	.seh_save_reg	x30, 32
	.seh_endprologue
	str	x0, [sp, #24]
	str	x1, [sp, #16]
	ldr	x8, [sp, #24]
	ldr	x1, [sp, #16]
	adrp	x0, .L.str.26
	add	x0, x0, :lo12:.L.str.26
	str	x0, [sp]                        // 8-byte Folded Spill
	blr	x8
	ldr	x1, [sp]                        // 8-byte Folded Reload
	str	w0, [sp, #12]
	ldr	w2, [sp, #12]
	adrp	x0, .L.str.2
	add	x0, x0, :lo12:.L.str.2
	bl	__mingw_printf
	ldr	w0, [sp, #12]
	.seh_startepilogue
	ldr	x30, [sp, #32]                  // 8-byte Folded Reload
	.seh_save_reg	x30, 32
	add	sp, sp, #48
	.seh_stackalloc	48
	.seh_endepilogue
	ret
	.seh_endfunclet
	.seh_endproc
                                        // -- End function
	.def	test_indirect_va_list_many_not_short_vector_12_bytes;
	.scl	2;
	.type	32;
	.endef
	.globl	test_indirect_va_list_many_not_short_vector_12_bytes // -- Begin function test_indirect_va_list_many_not_short_vector_12_bytes
	.p2align	2
test_indirect_va_list_many_not_short_vector_12_bytes: // @test_indirect_va_list_many_not_short_vector_12_bytes
.seh_proc test_indirect_va_list_many_not_short_vector_12_bytes
// %bb.0:
	sub	sp, sp, #112
	.seh_stackalloc	112
	str	x30, [sp, #32]                  // 8-byte Folded Spill
	.seh_save_reg	x30, 32
	.seh_endprologue
	str	x7, [sp, #104]
	str	x6, [sp, #96]
	str	x5, [sp, #88]
	str	x4, [sp, #80]
	str	x3, [sp, #72]
	str	x2, [sp, #64]
	str	x1, [sp, #56]
	str	x0, [sp, #24]
	add	x8, sp, #56
	str	x8, [sp, #16]
	ldr	x0, [sp, #24]
	ldr	x1, [sp, #16]
	bl	use_indirect_va_list_many_not_short_vector_12_bytes
	str	w0, [sp, #12]
	ldr	w0, [sp, #12]
	.seh_startepilogue
	ldr	x30, [sp, #32]                  // 8-byte Folded Reload
	.seh_save_reg	x30, 32
	add	sp, sp, #112
	.seh_stackalloc	112
	.seh_endepilogue
	ret
	.seh_endfunclet
	.seh_endproc
                                        // -- End function
	.def	test_va_list_few_short_vector_16_bytes;
	.scl	2;
	.type	32;
	.endef
	.globl	test_va_list_few_short_vector_16_bytes // -- Begin function test_va_list_few_short_vector_16_bytes
	.p2align	2
test_va_list_few_short_vector_16_bytes: // @test_va_list_few_short_vector_16_bytes
.seh_proc test_va_list_few_short_vector_16_bytes
// %bb.0:
	sub	sp, sp, #112
	.seh_stackalloc	112
	str	x30, [sp, #32]                  // 8-byte Folded Spill
	.seh_save_reg	x30, 32
	.seh_endprologue
	str	x7, [sp, #104]
	str	x6, [sp, #96]
	str	x5, [sp, #88]
	str	x4, [sp, #80]
	str	x3, [sp, #72]
	str	x2, [sp, #64]
	str	x1, [sp, #56]
	str	x0, [sp, #24]
	add	x8, sp, #56
	str	x8, [sp, #16]
	ldr	x8, [sp, #24]
	ldr	x1, [sp, #16]
	adrp	x0, .L.str.27
	add	x0, x0, :lo12:.L.str.27
	str	x0, [sp]                        // 8-byte Folded Spill
	blr	x8
	ldr	x1, [sp]                        // 8-byte Folded Reload
	str	w0, [sp, #12]
	ldr	w2, [sp, #12]
	adrp	x0, .L.str.1
	add	x0, x0, :lo12:.L.str.1
	bl	__mingw_printf
	ldr	w0, [sp, #12]
	.seh_startepilogue
	ldr	x30, [sp, #32]                  // 8-byte Folded Reload
	.seh_save_reg	x30, 32
	add	sp, sp, #112
	.seh_stackalloc	112
	.seh_endepilogue
	ret
	.seh_endfunclet
	.seh_endproc
                                        // -- End function
	.def	use_indirect_va_list_few_short_vector_16_bytes;
	.scl	2;
	.type	32;
	.endef
	.globl	use_indirect_va_list_few_short_vector_16_bytes // -- Begin function use_indirect_va_list_few_short_vector_16_bytes
	.p2align	2
use_indirect_va_list_few_short_vector_16_bytes: // @use_indirect_va_list_few_short_vector_16_bytes
.seh_proc use_indirect_va_list_few_short_vector_16_bytes
// %bb.0:
	sub	sp, sp, #48
	.seh_stackalloc	48
	str	x30, [sp, #32]                  // 8-byte Folded Spill
	.seh_save_reg	x30, 32
	.seh_endprologue
	str	x0, [sp, #24]
	str	x1, [sp, #16]
	ldr	x8, [sp, #24]
	ldr	x1, [sp, #16]
	adrp	x0, .L.str.27
	add	x0, x0, :lo12:.L.str.27
	str	x0, [sp]                        // 8-byte Folded Spill
	blr	x8
	ldr	x1, [sp]                        // 8-byte Folded Reload
	str	w0, [sp, #12]
	ldr	w2, [sp, #12]
	adrp	x0, .L.str.2
	add	x0, x0, :lo12:.L.str.2
	bl	__mingw_printf
	ldr	w0, [sp, #12]
	.seh_startepilogue
	ldr	x30, [sp, #32]                  // 8-byte Folded Reload
	.seh_save_reg	x30, 32
	add	sp, sp, #48
	.seh_stackalloc	48
	.seh_endepilogue
	ret
	.seh_endfunclet
	.seh_endproc
                                        // -- End function
	.def	test_indirect_va_list_few_short_vector_16_bytes;
	.scl	2;
	.type	32;
	.endef
	.globl	test_indirect_va_list_few_short_vector_16_bytes // -- Begin function test_indirect_va_list_few_short_vector_16_bytes
	.p2align	2
test_indirect_va_list_few_short_vector_16_bytes: // @test_indirect_va_list_few_short_vector_16_bytes
.seh_proc test_indirect_va_list_few_short_vector_16_bytes
// %bb.0:
	sub	sp, sp, #112
	.seh_stackalloc	112
	str	x30, [sp, #32]                  // 8-byte Folded Spill
	.seh_save_reg	x30, 32
	.seh_endprologue
	str	x7, [sp, #104]
	str	x6, [sp, #96]
	str	x5, [sp, #88]
	str	x4, [sp, #80]
	str	x3, [sp, #72]
	str	x2, [sp, #64]
	str	x1, [sp, #56]
	str	x0, [sp, #24]
	add	x8, sp, #56
	str	x8, [sp, #16]
	ldr	x0, [sp, #24]
	ldr	x1, [sp, #16]
	bl	use_indirect_va_list_few_short_vector_16_bytes
	str	w0, [sp, #12]
	ldr	w0, [sp, #12]
	.seh_startepilogue
	ldr	x30, [sp, #32]                  // 8-byte Folded Reload
	.seh_save_reg	x30, 32
	add	sp, sp, #112
	.seh_stackalloc	112
	.seh_endepilogue
	ret
	.seh_endfunclet
	.seh_endproc
                                        // -- End function
	.def	test_va_list_several_short_vector_16_bytes;
	.scl	2;
	.type	32;
	.endef
	.globl	test_va_list_several_short_vector_16_bytes // -- Begin function test_va_list_several_short_vector_16_bytes
	.p2align	2
test_va_list_several_short_vector_16_bytes: // @test_va_list_several_short_vector_16_bytes
.seh_proc test_va_list_several_short_vector_16_bytes
// %bb.0:
	sub	sp, sp, #112
	.seh_stackalloc	112
	str	x30, [sp, #32]                  // 8-byte Folded Spill
	.seh_save_reg	x30, 32
	.seh_endprologue
	str	x7, [sp, #104]
	str	x6, [sp, #96]
	str	x5, [sp, #88]
	str	x4, [sp, #80]
	str	x3, [sp, #72]
	str	x2, [sp, #64]
	str	x1, [sp, #56]
	str	x0, [sp, #24]
	add	x8, sp, #56
	str	x8, [sp, #16]
	ldr	x8, [sp, #24]
	ldr	x1, [sp, #16]
	adrp	x0, .L.str.28
	add	x0, x0, :lo12:.L.str.28
	str	x0, [sp]                        // 8-byte Folded Spill
	blr	x8
	ldr	x1, [sp]                        // 8-byte Folded Reload
	str	w0, [sp, #12]
	ldr	w2, [sp, #12]
	adrp	x0, .L.str.1
	add	x0, x0, :lo12:.L.str.1
	bl	__mingw_printf
	ldr	w0, [sp, #12]
	.seh_startepilogue
	ldr	x30, [sp, #32]                  // 8-byte Folded Reload
	.seh_save_reg	x30, 32
	add	sp, sp, #112
	.seh_stackalloc	112
	.seh_endepilogue
	ret
	.seh_endfunclet
	.seh_endproc
                                        // -- End function
	.def	use_indirect_va_list_several_short_vector_16_bytes;
	.scl	2;
	.type	32;
	.endef
	.globl	use_indirect_va_list_several_short_vector_16_bytes // -- Begin function use_indirect_va_list_several_short_vector_16_bytes
	.p2align	2
use_indirect_va_list_several_short_vector_16_bytes: // @use_indirect_va_list_several_short_vector_16_bytes
.seh_proc use_indirect_va_list_several_short_vector_16_bytes
// %bb.0:
	sub	sp, sp, #48
	.seh_stackalloc	48
	str	x30, [sp, #32]                  // 8-byte Folded Spill
	.seh_save_reg	x30, 32
	.seh_endprologue
	str	x0, [sp, #24]
	str	x1, [sp, #16]
	ldr	x8, [sp, #24]
	ldr	x1, [sp, #16]
	adrp	x0, .L.str.28
	add	x0, x0, :lo12:.L.str.28
	str	x0, [sp]                        // 8-byte Folded Spill
	blr	x8
	ldr	x1, [sp]                        // 8-byte Folded Reload
	str	w0, [sp, #12]
	ldr	w2, [sp, #12]
	adrp	x0, .L.str.2
	add	x0, x0, :lo12:.L.str.2
	bl	__mingw_printf
	ldr	w0, [sp, #12]
	.seh_startepilogue
	ldr	x30, [sp, #32]                  // 8-byte Folded Reload
	.seh_save_reg	x30, 32
	add	sp, sp, #48
	.seh_stackalloc	48
	.seh_endepilogue
	ret
	.seh_endfunclet
	.seh_endproc
                                        // -- End function
	.def	test_indirect_va_list_several_short_vector_16_bytes;
	.scl	2;
	.type	32;
	.endef
	.globl	test_indirect_va_list_several_short_vector_16_bytes // -- Begin function test_indirect_va_list_several_short_vector_16_bytes
	.p2align	2
test_indirect_va_list_several_short_vector_16_bytes: // @test_indirect_va_list_several_short_vector_16_bytes
.seh_proc test_indirect_va_list_several_short_vector_16_bytes
// %bb.0:
	sub	sp, sp, #112
	.seh_stackalloc	112
	str	x30, [sp, #32]                  // 8-byte Folded Spill
	.seh_save_reg	x30, 32
	.seh_endprologue
	str	x7, [sp, #104]
	str	x6, [sp, #96]
	str	x5, [sp, #88]
	str	x4, [sp, #80]
	str	x3, [sp, #72]
	str	x2, [sp, #64]
	str	x1, [sp, #56]
	str	x0, [sp, #24]
	add	x8, sp, #56
	str	x8, [sp, #16]
	ldr	x0, [sp, #24]
	ldr	x1, [sp, #16]
	bl	use_indirect_va_list_several_short_vector_16_bytes
	str	w0, [sp, #12]
	ldr	w0, [sp, #12]
	.seh_startepilogue
	ldr	x30, [sp, #32]                  // 8-byte Folded Reload
	.seh_save_reg	x30, 32
	add	sp, sp, #112
	.seh_stackalloc	112
	.seh_endepilogue
	ret
	.seh_endfunclet
	.seh_endproc
                                        // -- End function
	.def	test_va_list_many_short_vector_16_bytes;
	.scl	2;
	.type	32;
	.endef
	.globl	test_va_list_many_short_vector_16_bytes // -- Begin function test_va_list_many_short_vector_16_bytes
	.p2align	2
test_va_list_many_short_vector_16_bytes: // @test_va_list_many_short_vector_16_bytes
.seh_proc test_va_list_many_short_vector_16_bytes
// %bb.0:
	sub	sp, sp, #112
	.seh_stackalloc	112
	str	x30, [sp, #32]                  // 8-byte Folded Spill
	.seh_save_reg	x30, 32
	.seh_endprologue
	str	x7, [sp, #104]
	str	x6, [sp, #96]
	str	x5, [sp, #88]
	str	x4, [sp, #80]
	str	x3, [sp, #72]
	str	x2, [sp, #64]
	str	x1, [sp, #56]
	str	x0, [sp, #24]
	add	x8, sp, #56
	str	x8, [sp, #16]
	ldr	x8, [sp, #24]
	ldr	x1, [sp, #16]
	adrp	x0, .L.str.29
	add	x0, x0, :lo12:.L.str.29
	str	x0, [sp]                        // 8-byte Folded Spill
	blr	x8
	ldr	x1, [sp]                        // 8-byte Folded Reload
	str	w0, [sp, #12]
	ldr	w2, [sp, #12]
	adrp	x0, .L.str.1
	add	x0, x0, :lo12:.L.str.1
	bl	__mingw_printf
	ldr	w0, [sp, #12]
	.seh_startepilogue
	ldr	x30, [sp, #32]                  // 8-byte Folded Reload
	.seh_save_reg	x30, 32
	add	sp, sp, #112
	.seh_stackalloc	112
	.seh_endepilogue
	ret
	.seh_endfunclet
	.seh_endproc
                                        // -- End function
	.def	use_indirect_va_list_many_short_vector_16_bytes;
	.scl	2;
	.type	32;
	.endef
	.globl	use_indirect_va_list_many_short_vector_16_bytes // -- Begin function use_indirect_va_list_many_short_vector_16_bytes
	.p2align	2
use_indirect_va_list_many_short_vector_16_bytes: // @use_indirect_va_list_many_short_vector_16_bytes
.seh_proc use_indirect_va_list_many_short_vector_16_bytes
// %bb.0:
	sub	sp, sp, #48
	.seh_stackalloc	48
	str	x30, [sp, #32]                  // 8-byte Folded Spill
	.seh_save_reg	x30, 32
	.seh_endprologue
	str	x0, [sp, #24]
	str	x1, [sp, #16]
	ldr	x8, [sp, #24]
	ldr	x1, [sp, #16]
	adrp	x0, .L.str.29
	add	x0, x0, :lo12:.L.str.29
	str	x0, [sp]                        // 8-byte Folded Spill
	blr	x8
	ldr	x1, [sp]                        // 8-byte Folded Reload
	str	w0, [sp, #12]
	ldr	w2, [sp, #12]
	adrp	x0, .L.str.2
	add	x0, x0, :lo12:.L.str.2
	bl	__mingw_printf
	ldr	w0, [sp, #12]
	.seh_startepilogue
	ldr	x30, [sp, #32]                  // 8-byte Folded Reload
	.seh_save_reg	x30, 32
	add	sp, sp, #48
	.seh_stackalloc	48
	.seh_endepilogue
	ret
	.seh_endfunclet
	.seh_endproc
                                        // -- End function
	.def	test_indirect_va_list_many_short_vector_16_bytes;
	.scl	2;
	.type	32;
	.endef
	.globl	test_indirect_va_list_many_short_vector_16_bytes // -- Begin function test_indirect_va_list_many_short_vector_16_bytes
	.p2align	2
test_indirect_va_list_many_short_vector_16_bytes: // @test_indirect_va_list_many_short_vector_16_bytes
.seh_proc test_indirect_va_list_many_short_vector_16_bytes
// %bb.0:
	sub	sp, sp, #112
	.seh_stackalloc	112
	str	x30, [sp, #32]                  // 8-byte Folded Spill
	.seh_save_reg	x30, 32
	.seh_endprologue
	str	x7, [sp, #104]
	str	x6, [sp, #96]
	str	x5, [sp, #88]
	str	x4, [sp, #80]
	str	x3, [sp, #72]
	str	x2, [sp, #64]
	str	x1, [sp, #56]
	str	x0, [sp, #24]
	add	x8, sp, #56
	str	x8, [sp, #16]
	ldr	x0, [sp, #24]
	ldr	x1, [sp, #16]
	bl	use_indirect_va_list_many_short_vector_16_bytes
	str	w0, [sp, #12]
	ldr	w0, [sp, #12]
	.seh_startepilogue
	ldr	x30, [sp, #32]                  // 8-byte Folded Reload
	.seh_save_reg	x30, 32
	add	sp, sp, #112
	.seh_stackalloc	112
	.seh_endepilogue
	ret
	.seh_endfunclet
	.seh_endproc
                                        // -- End function
	.def	test_va_list_few_hfa_2_floats;
	.scl	2;
	.type	32;
	.endef
	.globl	test_va_list_few_hfa_2_floats   // -- Begin function test_va_list_few_hfa_2_floats
	.p2align	2
test_va_list_few_hfa_2_floats:          // @test_va_list_few_hfa_2_floats
.seh_proc test_va_list_few_hfa_2_floats
// %bb.0:
	sub	sp, sp, #112
	.seh_stackalloc	112
	str	x30, [sp, #32]                  // 8-byte Folded Spill
	.seh_save_reg	x30, 32
	.seh_endprologue
	str	x7, [sp, #104]
	str	x6, [sp, #96]
	str	x5, [sp, #88]
	str	x4, [sp, #80]
	str	x3, [sp, #72]
	str	x2, [sp, #64]
	str	x1, [sp, #56]
	str	x0, [sp, #24]
	add	x8, sp, #56
	str	x8, [sp, #16]
	ldr	x8, [sp, #24]
	ldr	x1, [sp, #16]
	adrp	x0, .L.str.30
	add	x0, x0, :lo12:.L.str.30
	str	x0, [sp]                        // 8-byte Folded Spill
	blr	x8
	ldr	x1, [sp]                        // 8-byte Folded Reload
	str	w0, [sp, #12]
	ldr	w2, [sp, #12]
	adrp	x0, .L.str.1
	add	x0, x0, :lo12:.L.str.1
	bl	__mingw_printf
	ldr	w0, [sp, #12]
	.seh_startepilogue
	ldr	x30, [sp, #32]                  // 8-byte Folded Reload
	.seh_save_reg	x30, 32
	add	sp, sp, #112
	.seh_stackalloc	112
	.seh_endepilogue
	ret
	.seh_endfunclet
	.seh_endproc
                                        // -- End function
	.def	use_indirect_va_list_few_hfa_2_floats;
	.scl	2;
	.type	32;
	.endef
	.globl	use_indirect_va_list_few_hfa_2_floats // -- Begin function use_indirect_va_list_few_hfa_2_floats
	.p2align	2
use_indirect_va_list_few_hfa_2_floats:  // @use_indirect_va_list_few_hfa_2_floats
.seh_proc use_indirect_va_list_few_hfa_2_floats
// %bb.0:
	sub	sp, sp, #48
	.seh_stackalloc	48
	str	x30, [sp, #32]                  // 8-byte Folded Spill
	.seh_save_reg	x30, 32
	.seh_endprologue
	str	x0, [sp, #24]
	str	x1, [sp, #16]
	ldr	x8, [sp, #24]
	ldr	x1, [sp, #16]
	adrp	x0, .L.str.30
	add	x0, x0, :lo12:.L.str.30
	str	x0, [sp]                        // 8-byte Folded Spill
	blr	x8
	ldr	x1, [sp]                        // 8-byte Folded Reload
	str	w0, [sp, #12]
	ldr	w2, [sp, #12]
	adrp	x0, .L.str.2
	add	x0, x0, :lo12:.L.str.2
	bl	__mingw_printf
	ldr	w0, [sp, #12]
	.seh_startepilogue
	ldr	x30, [sp, #32]                  // 8-byte Folded Reload
	.seh_save_reg	x30, 32
	add	sp, sp, #48
	.seh_stackalloc	48
	.seh_endepilogue
	ret
	.seh_endfunclet
	.seh_endproc
                                        // -- End function
	.def	test_indirect_va_list_few_hfa_2_floats;
	.scl	2;
	.type	32;
	.endef
	.globl	test_indirect_va_list_few_hfa_2_floats // -- Begin function test_indirect_va_list_few_hfa_2_floats
	.p2align	2
test_indirect_va_list_few_hfa_2_floats: // @test_indirect_va_list_few_hfa_2_floats
.seh_proc test_indirect_va_list_few_hfa_2_floats
// %bb.0:
	sub	sp, sp, #112
	.seh_stackalloc	112
	str	x30, [sp, #32]                  // 8-byte Folded Spill
	.seh_save_reg	x30, 32
	.seh_endprologue
	str	x7, [sp, #104]
	str	x6, [sp, #96]
	str	x5, [sp, #88]
	str	x4, [sp, #80]
	str	x3, [sp, #72]
	str	x2, [sp, #64]
	str	x1, [sp, #56]
	str	x0, [sp, #24]
	add	x8, sp, #56
	str	x8, [sp, #16]
	ldr	x0, [sp, #24]
	ldr	x1, [sp, #16]
	bl	use_indirect_va_list_few_hfa_2_floats
	str	w0, [sp, #12]
	ldr	w0, [sp, #12]
	.seh_startepilogue
	ldr	x30, [sp, #32]                  // 8-byte Folded Reload
	.seh_save_reg	x30, 32
	add	sp, sp, #112
	.seh_stackalloc	112
	.seh_endepilogue
	ret
	.seh_endfunclet
	.seh_endproc
                                        // -- End function
	.def	test_va_list_several_hfa_2_floats;
	.scl	2;
	.type	32;
	.endef
	.globl	test_va_list_several_hfa_2_floats // -- Begin function test_va_list_several_hfa_2_floats
	.p2align	2
test_va_list_several_hfa_2_floats:      // @test_va_list_several_hfa_2_floats
.seh_proc test_va_list_several_hfa_2_floats
// %bb.0:
	sub	sp, sp, #112
	.seh_stackalloc	112
	str	x30, [sp, #32]                  // 8-byte Folded Spill
	.seh_save_reg	x30, 32
	.seh_endprologue
	str	x7, [sp, #104]
	str	x6, [sp, #96]
	str	x5, [sp, #88]
	str	x4, [sp, #80]
	str	x3, [sp, #72]
	str	x2, [sp, #64]
	str	x1, [sp, #56]
	str	x0, [sp, #24]
	add	x8, sp, #56
	str	x8, [sp, #16]
	ldr	x8, [sp, #24]
	ldr	x1, [sp, #16]
	adrp	x0, .L.str.31
	add	x0, x0, :lo12:.L.str.31
	str	x0, [sp]                        // 8-byte Folded Spill
	blr	x8
	ldr	x1, [sp]                        // 8-byte Folded Reload
	str	w0, [sp, #12]
	ldr	w2, [sp, #12]
	adrp	x0, .L.str.1
	add	x0, x0, :lo12:.L.str.1
	bl	__mingw_printf
	ldr	w0, [sp, #12]
	.seh_startepilogue
	ldr	x30, [sp, #32]                  // 8-byte Folded Reload
	.seh_save_reg	x30, 32
	add	sp, sp, #112
	.seh_stackalloc	112
	.seh_endepilogue
	ret
	.seh_endfunclet
	.seh_endproc
                                        // -- End function
	.def	use_indirect_va_list_several_hfa_2_floats;
	.scl	2;
	.type	32;
	.endef
	.globl	use_indirect_va_list_several_hfa_2_floats // -- Begin function use_indirect_va_list_several_hfa_2_floats
	.p2align	2
use_indirect_va_list_several_hfa_2_floats: // @use_indirect_va_list_several_hfa_2_floats
.seh_proc use_indirect_va_list_several_hfa_2_floats
// %bb.0:
	sub	sp, sp, #48
	.seh_stackalloc	48
	str	x30, [sp, #32]                  // 8-byte Folded Spill
	.seh_save_reg	x30, 32
	.seh_endprologue
	str	x0, [sp, #24]
	str	x1, [sp, #16]
	ldr	x8, [sp, #24]
	ldr	x1, [sp, #16]
	adrp	x0, .L.str.31
	add	x0, x0, :lo12:.L.str.31
	str	x0, [sp]                        // 8-byte Folded Spill
	blr	x8
	ldr	x1, [sp]                        // 8-byte Folded Reload
	str	w0, [sp, #12]
	ldr	w2, [sp, #12]
	adrp	x0, .L.str.2
	add	x0, x0, :lo12:.L.str.2
	bl	__mingw_printf
	ldr	w0, [sp, #12]
	.seh_startepilogue
	ldr	x30, [sp, #32]                  // 8-byte Folded Reload
	.seh_save_reg	x30, 32
	add	sp, sp, #48
	.seh_stackalloc	48
	.seh_endepilogue
	ret
	.seh_endfunclet
	.seh_endproc
                                        // -- End function
	.def	test_indirect_va_list_several_hfa_2_floats;
	.scl	2;
	.type	32;
	.endef
	.globl	test_indirect_va_list_several_hfa_2_floats // -- Begin function test_indirect_va_list_several_hfa_2_floats
	.p2align	2
test_indirect_va_list_several_hfa_2_floats: // @test_indirect_va_list_several_hfa_2_floats
.seh_proc test_indirect_va_list_several_hfa_2_floats
// %bb.0:
	sub	sp, sp, #112
	.seh_stackalloc	112
	str	x30, [sp, #32]                  // 8-byte Folded Spill
	.seh_save_reg	x30, 32
	.seh_endprologue
	str	x7, [sp, #104]
	str	x6, [sp, #96]
	str	x5, [sp, #88]
	str	x4, [sp, #80]
	str	x3, [sp, #72]
	str	x2, [sp, #64]
	str	x1, [sp, #56]
	str	x0, [sp, #24]
	add	x8, sp, #56
	str	x8, [sp, #16]
	ldr	x0, [sp, #24]
	ldr	x1, [sp, #16]
	bl	use_indirect_va_list_several_hfa_2_floats
	str	w0, [sp, #12]
	ldr	w0, [sp, #12]
	.seh_startepilogue
	ldr	x30, [sp, #32]                  // 8-byte Folded Reload
	.seh_save_reg	x30, 32
	add	sp, sp, #112
	.seh_stackalloc	112
	.seh_endepilogue
	ret
	.seh_endfunclet
	.seh_endproc
                                        // -- End function
	.def	test_va_list_many_hfa_2_floats;
	.scl	2;
	.type	32;
	.endef
	.globl	test_va_list_many_hfa_2_floats  // -- Begin function test_va_list_many_hfa_2_floats
	.p2align	2
test_va_list_many_hfa_2_floats:         // @test_va_list_many_hfa_2_floats
.seh_proc test_va_list_many_hfa_2_floats
// %bb.0:
	sub	sp, sp, #112
	.seh_stackalloc	112
	str	x30, [sp, #32]                  // 8-byte Folded Spill
	.seh_save_reg	x30, 32
	.seh_endprologue
	str	x7, [sp, #104]
	str	x6, [sp, #96]
	str	x5, [sp, #88]
	str	x4, [sp, #80]
	str	x3, [sp, #72]
	str	x2, [sp, #64]
	str	x1, [sp, #56]
	str	x0, [sp, #24]
	add	x8, sp, #56
	str	x8, [sp, #16]
	ldr	x8, [sp, #24]
	ldr	x1, [sp, #16]
	adrp	x0, .L.str.32
	add	x0, x0, :lo12:.L.str.32
	str	x0, [sp]                        // 8-byte Folded Spill
	blr	x8
	ldr	x1, [sp]                        // 8-byte Folded Reload
	str	w0, [sp, #12]
	ldr	w2, [sp, #12]
	adrp	x0, .L.str.1
	add	x0, x0, :lo12:.L.str.1
	bl	__mingw_printf
	ldr	w0, [sp, #12]
	.seh_startepilogue
	ldr	x30, [sp, #32]                  // 8-byte Folded Reload
	.seh_save_reg	x30, 32
	add	sp, sp, #112
	.seh_stackalloc	112
	.seh_endepilogue
	ret
	.seh_endfunclet
	.seh_endproc
                                        // -- End function
	.def	use_indirect_va_list_many_hfa_2_floats;
	.scl	2;
	.type	32;
	.endef
	.globl	use_indirect_va_list_many_hfa_2_floats // -- Begin function use_indirect_va_list_many_hfa_2_floats
	.p2align	2
use_indirect_va_list_many_hfa_2_floats: // @use_indirect_va_list_many_hfa_2_floats
.seh_proc use_indirect_va_list_many_hfa_2_floats
// %bb.0:
	sub	sp, sp, #48
	.seh_stackalloc	48
	str	x30, [sp, #32]                  // 8-byte Folded Spill
	.seh_save_reg	x30, 32
	.seh_endprologue
	str	x0, [sp, #24]
	str	x1, [sp, #16]
	ldr	x8, [sp, #24]
	ldr	x1, [sp, #16]
	adrp	x0, .L.str.32
	add	x0, x0, :lo12:.L.str.32
	str	x0, [sp]                        // 8-byte Folded Spill
	blr	x8
	ldr	x1, [sp]                        // 8-byte Folded Reload
	str	w0, [sp, #12]
	ldr	w2, [sp, #12]
	adrp	x0, .L.str.2
	add	x0, x0, :lo12:.L.str.2
	bl	__mingw_printf
	ldr	w0, [sp, #12]
	.seh_startepilogue
	ldr	x30, [sp, #32]                  // 8-byte Folded Reload
	.seh_save_reg	x30, 32
	add	sp, sp, #48
	.seh_stackalloc	48
	.seh_endepilogue
	ret
	.seh_endfunclet
	.seh_endproc
                                        // -- End function
	.def	test_indirect_va_list_many_hfa_2_floats;
	.scl	2;
	.type	32;
	.endef
	.globl	test_indirect_va_list_many_hfa_2_floats // -- Begin function test_indirect_va_list_many_hfa_2_floats
	.p2align	2
test_indirect_va_list_many_hfa_2_floats: // @test_indirect_va_list_many_hfa_2_floats
.seh_proc test_indirect_va_list_many_hfa_2_floats
// %bb.0:
	sub	sp, sp, #112
	.seh_stackalloc	112
	str	x30, [sp, #32]                  // 8-byte Folded Spill
	.seh_save_reg	x30, 32
	.seh_endprologue
	str	x7, [sp, #104]
	str	x6, [sp, #96]
	str	x5, [sp, #88]
	str	x4, [sp, #80]
	str	x3, [sp, #72]
	str	x2, [sp, #64]
	str	x1, [sp, #56]
	str	x0, [sp, #24]
	add	x8, sp, #56
	str	x8, [sp, #16]
	ldr	x0, [sp, #24]
	ldr	x1, [sp, #16]
	bl	use_indirect_va_list_many_hfa_2_floats
	str	w0, [sp, #12]
	ldr	w0, [sp, #12]
	.seh_startepilogue
	ldr	x30, [sp, #32]                  // 8-byte Folded Reload
	.seh_save_reg	x30, 32
	add	sp, sp, #112
	.seh_stackalloc	112
	.seh_endepilogue
	ret
	.seh_endfunclet
	.seh_endproc
                                        // -- End function
	.def	test_va_list_few_hfa_4_floats;
	.scl	2;
	.type	32;
	.endef
	.globl	test_va_list_few_hfa_4_floats   // -- Begin function test_va_list_few_hfa_4_floats
	.p2align	2
test_va_list_few_hfa_4_floats:          // @test_va_list_few_hfa_4_floats
.seh_proc test_va_list_few_hfa_4_floats
// %bb.0:
	sub	sp, sp, #112
	.seh_stackalloc	112
	str	x30, [sp, #32]                  // 8-byte Folded Spill
	.seh_save_reg	x30, 32
	.seh_endprologue
	str	x7, [sp, #104]
	str	x6, [sp, #96]
	str	x5, [sp, #88]
	str	x4, [sp, #80]
	str	x3, [sp, #72]
	str	x2, [sp, #64]
	str	x1, [sp, #56]
	str	x0, [sp, #24]
	add	x8, sp, #56
	str	x8, [sp, #16]
	ldr	x8, [sp, #24]
	ldr	x1, [sp, #16]
	adrp	x0, .L.str.33
	add	x0, x0, :lo12:.L.str.33
	str	x0, [sp]                        // 8-byte Folded Spill
	blr	x8
	ldr	x1, [sp]                        // 8-byte Folded Reload
	str	w0, [sp, #12]
	ldr	w2, [sp, #12]
	adrp	x0, .L.str.1
	add	x0, x0, :lo12:.L.str.1
	bl	__mingw_printf
	ldr	w0, [sp, #12]
	.seh_startepilogue
	ldr	x30, [sp, #32]                  // 8-byte Folded Reload
	.seh_save_reg	x30, 32
	add	sp, sp, #112
	.seh_stackalloc	112
	.seh_endepilogue
	ret
	.seh_endfunclet
	.seh_endproc
                                        // -- End function
	.def	use_indirect_va_list_few_hfa_4_floats;
	.scl	2;
	.type	32;
	.endef
	.globl	use_indirect_va_list_few_hfa_4_floats // -- Begin function use_indirect_va_list_few_hfa_4_floats
	.p2align	2
use_indirect_va_list_few_hfa_4_floats:  // @use_indirect_va_list_few_hfa_4_floats
.seh_proc use_indirect_va_list_few_hfa_4_floats
// %bb.0:
	sub	sp, sp, #48
	.seh_stackalloc	48
	str	x30, [sp, #32]                  // 8-byte Folded Spill
	.seh_save_reg	x30, 32
	.seh_endprologue
	str	x0, [sp, #24]
	str	x1, [sp, #16]
	ldr	x8, [sp, #24]
	ldr	x1, [sp, #16]
	adrp	x0, .L.str.33
	add	x0, x0, :lo12:.L.str.33
	str	x0, [sp]                        // 8-byte Folded Spill
	blr	x8
	ldr	x1, [sp]                        // 8-byte Folded Reload
	str	w0, [sp, #12]
	ldr	w2, [sp, #12]
	adrp	x0, .L.str.2
	add	x0, x0, :lo12:.L.str.2
	bl	__mingw_printf
	ldr	w0, [sp, #12]
	.seh_startepilogue
	ldr	x30, [sp, #32]                  // 8-byte Folded Reload
	.seh_save_reg	x30, 32
	add	sp, sp, #48
	.seh_stackalloc	48
	.seh_endepilogue
	ret
	.seh_endfunclet
	.seh_endproc
                                        // -- End function
	.def	test_indirect_va_list_few_hfa_4_floats;
	.scl	2;
	.type	32;
	.endef
	.globl	test_indirect_va_list_few_hfa_4_floats // -- Begin function test_indirect_va_list_few_hfa_4_floats
	.p2align	2
test_indirect_va_list_few_hfa_4_floats: // @test_indirect_va_list_few_hfa_4_floats
.seh_proc test_indirect_va_list_few_hfa_4_floats
// %bb.0:
	sub	sp, sp, #112
	.seh_stackalloc	112
	str	x30, [sp, #32]                  // 8-byte Folded Spill
	.seh_save_reg	x30, 32
	.seh_endprologue
	str	x7, [sp, #104]
	str	x6, [sp, #96]
	str	x5, [sp, #88]
	str	x4, [sp, #80]
	str	x3, [sp, #72]
	str	x2, [sp, #64]
	str	x1, [sp, #56]
	str	x0, [sp, #24]
	add	x8, sp, #56
	str	x8, [sp, #16]
	ldr	x0, [sp, #24]
	ldr	x1, [sp, #16]
	bl	use_indirect_va_list_few_hfa_4_floats
	str	w0, [sp, #12]
	ldr	w0, [sp, #12]
	.seh_startepilogue
	ldr	x30, [sp, #32]                  // 8-byte Folded Reload
	.seh_save_reg	x30, 32
	add	sp, sp, #112
	.seh_stackalloc	112
	.seh_endepilogue
	ret
	.seh_endfunclet
	.seh_endproc
                                        // -- End function
	.def	test_va_list_several_hfa_4_floats;
	.scl	2;
	.type	32;
	.endef
	.globl	test_va_list_several_hfa_4_floats // -- Begin function test_va_list_several_hfa_4_floats
	.p2align	2
test_va_list_several_hfa_4_floats:      // @test_va_list_several_hfa_4_floats
.seh_proc test_va_list_several_hfa_4_floats
// %bb.0:
	sub	sp, sp, #112
	.seh_stackalloc	112
	str	x30, [sp, #32]                  // 8-byte Folded Spill
	.seh_save_reg	x30, 32
	.seh_endprologue
	str	x7, [sp, #104]
	str	x6, [sp, #96]
	str	x5, [sp, #88]
	str	x4, [sp, #80]
	str	x3, [sp, #72]
	str	x2, [sp, #64]
	str	x1, [sp, #56]
	str	x0, [sp, #24]
	add	x8, sp, #56
	str	x8, [sp, #16]
	ldr	x8, [sp, #24]
	ldr	x1, [sp, #16]
	adrp	x0, .L.str.34
	add	x0, x0, :lo12:.L.str.34
	str	x0, [sp]                        // 8-byte Folded Spill
	blr	x8
	ldr	x1, [sp]                        // 8-byte Folded Reload
	str	w0, [sp, #12]
	ldr	w2, [sp, #12]
	adrp	x0, .L.str.1
	add	x0, x0, :lo12:.L.str.1
	bl	__mingw_printf
	ldr	w0, [sp, #12]
	.seh_startepilogue
	ldr	x30, [sp, #32]                  // 8-byte Folded Reload
	.seh_save_reg	x30, 32
	add	sp, sp, #112
	.seh_stackalloc	112
	.seh_endepilogue
	ret
	.seh_endfunclet
	.seh_endproc
                                        // -- End function
	.def	use_indirect_va_list_several_hfa_4_floats;
	.scl	2;
	.type	32;
	.endef
	.globl	use_indirect_va_list_several_hfa_4_floats // -- Begin function use_indirect_va_list_several_hfa_4_floats
	.p2align	2
use_indirect_va_list_several_hfa_4_floats: // @use_indirect_va_list_several_hfa_4_floats
.seh_proc use_indirect_va_list_several_hfa_4_floats
// %bb.0:
	sub	sp, sp, #48
	.seh_stackalloc	48
	str	x30, [sp, #32]                  // 8-byte Folded Spill
	.seh_save_reg	x30, 32
	.seh_endprologue
	str	x0, [sp, #24]
	str	x1, [sp, #16]
	ldr	x8, [sp, #24]
	ldr	x1, [sp, #16]
	adrp	x0, .L.str.34
	add	x0, x0, :lo12:.L.str.34
	str	x0, [sp]                        // 8-byte Folded Spill
	blr	x8
	ldr	x1, [sp]                        // 8-byte Folded Reload
	str	w0, [sp, #12]
	ldr	w2, [sp, #12]
	adrp	x0, .L.str.2
	add	x0, x0, :lo12:.L.str.2
	bl	__mingw_printf
	ldr	w0, [sp, #12]
	.seh_startepilogue
	ldr	x30, [sp, #32]                  // 8-byte Folded Reload
	.seh_save_reg	x30, 32
	add	sp, sp, #48
	.seh_stackalloc	48
	.seh_endepilogue
	ret
	.seh_endfunclet
	.seh_endproc
                                        // -- End function
	.def	test_indirect_va_list_several_hfa_4_floats;
	.scl	2;
	.type	32;
	.endef
	.globl	test_indirect_va_list_several_hfa_4_floats // -- Begin function test_indirect_va_list_several_hfa_4_floats
	.p2align	2
test_indirect_va_list_several_hfa_4_floats: // @test_indirect_va_list_several_hfa_4_floats
.seh_proc test_indirect_va_list_several_hfa_4_floats
// %bb.0:
	sub	sp, sp, #112
	.seh_stackalloc	112
	str	x30, [sp, #32]                  // 8-byte Folded Spill
	.seh_save_reg	x30, 32
	.seh_endprologue
	str	x7, [sp, #104]
	str	x6, [sp, #96]
	str	x5, [sp, #88]
	str	x4, [sp, #80]
	str	x3, [sp, #72]
	str	x2, [sp, #64]
	str	x1, [sp, #56]
	str	x0, [sp, #24]
	add	x8, sp, #56
	str	x8, [sp, #16]
	ldr	x0, [sp, #24]
	ldr	x1, [sp, #16]
	bl	use_indirect_va_list_several_hfa_4_floats
	str	w0, [sp, #12]
	ldr	w0, [sp, #12]
	.seh_startepilogue
	ldr	x30, [sp, #32]                  // 8-byte Folded Reload
	.seh_save_reg	x30, 32
	add	sp, sp, #112
	.seh_stackalloc	112
	.seh_endepilogue
	ret
	.seh_endfunclet
	.seh_endproc
                                        // -- End function
	.def	test_va_list_many_hfa_4_floats;
	.scl	2;
	.type	32;
	.endef
	.globl	test_va_list_many_hfa_4_floats  // -- Begin function test_va_list_many_hfa_4_floats
	.p2align	2
test_va_list_many_hfa_4_floats:         // @test_va_list_many_hfa_4_floats
.seh_proc test_va_list_many_hfa_4_floats
// %bb.0:
	sub	sp, sp, #112
	.seh_stackalloc	112
	str	x30, [sp, #32]                  // 8-byte Folded Spill
	.seh_save_reg	x30, 32
	.seh_endprologue
	str	x7, [sp, #104]
	str	x6, [sp, #96]
	str	x5, [sp, #88]
	str	x4, [sp, #80]
	str	x3, [sp, #72]
	str	x2, [sp, #64]
	str	x1, [sp, #56]
	str	x0, [sp, #24]
	add	x8, sp, #56
	str	x8, [sp, #16]
	ldr	x8, [sp, #24]
	ldr	x1, [sp, #16]
	adrp	x0, .L.str.35
	add	x0, x0, :lo12:.L.str.35
	str	x0, [sp]                        // 8-byte Folded Spill
	blr	x8
	ldr	x1, [sp]                        // 8-byte Folded Reload
	str	w0, [sp, #12]
	ldr	w2, [sp, #12]
	adrp	x0, .L.str.1
	add	x0, x0, :lo12:.L.str.1
	bl	__mingw_printf
	ldr	w0, [sp, #12]
	.seh_startepilogue
	ldr	x30, [sp, #32]                  // 8-byte Folded Reload
	.seh_save_reg	x30, 32
	add	sp, sp, #112
	.seh_stackalloc	112
	.seh_endepilogue
	ret
	.seh_endfunclet
	.seh_endproc
                                        // -- End function
	.def	use_indirect_va_list_many_hfa_4_floats;
	.scl	2;
	.type	32;
	.endef
	.globl	use_indirect_va_list_many_hfa_4_floats // -- Begin function use_indirect_va_list_many_hfa_4_floats
	.p2align	2
use_indirect_va_list_many_hfa_4_floats: // @use_indirect_va_list_many_hfa_4_floats
.seh_proc use_indirect_va_list_many_hfa_4_floats
// %bb.0:
	sub	sp, sp, #48
	.seh_stackalloc	48
	str	x30, [sp, #32]                  // 8-byte Folded Spill
	.seh_save_reg	x30, 32
	.seh_endprologue
	str	x0, [sp, #24]
	str	x1, [sp, #16]
	ldr	x8, [sp, #24]
	ldr	x1, [sp, #16]
	adrp	x0, .L.str.35
	add	x0, x0, :lo12:.L.str.35
	str	x0, [sp]                        // 8-byte Folded Spill
	blr	x8
	ldr	x1, [sp]                        // 8-byte Folded Reload
	str	w0, [sp, #12]
	ldr	w2, [sp, #12]
	adrp	x0, .L.str.2
	add	x0, x0, :lo12:.L.str.2
	bl	__mingw_printf
	ldr	w0, [sp, #12]
	.seh_startepilogue
	ldr	x30, [sp, #32]                  // 8-byte Folded Reload
	.seh_save_reg	x30, 32
	add	sp, sp, #48
	.seh_stackalloc	48
	.seh_endepilogue
	ret
	.seh_endfunclet
	.seh_endproc
                                        // -- End function
	.def	test_indirect_va_list_many_hfa_4_floats;
	.scl	2;
	.type	32;
	.endef
	.globl	test_indirect_va_list_many_hfa_4_floats // -- Begin function test_indirect_va_list_many_hfa_4_floats
	.p2align	2
test_indirect_va_list_many_hfa_4_floats: // @test_indirect_va_list_many_hfa_4_floats
.seh_proc test_indirect_va_list_many_hfa_4_floats
// %bb.0:
	sub	sp, sp, #112
	.seh_stackalloc	112
	str	x30, [sp, #32]                  // 8-byte Folded Spill
	.seh_save_reg	x30, 32
	.seh_endprologue
	str	x7, [sp, #104]
	str	x6, [sp, #96]
	str	x5, [sp, #88]
	str	x4, [sp, #80]
	str	x3, [sp, #72]
	str	x2, [sp, #64]
	str	x1, [sp, #56]
	str	x0, [sp, #24]
	add	x8, sp, #56
	str	x8, [sp, #16]
	ldr	x0, [sp, #24]
	ldr	x1, [sp, #16]
	bl	use_indirect_va_list_many_hfa_4_floats
	str	w0, [sp, #12]
	ldr	w0, [sp, #12]
	.seh_startepilogue
	ldr	x30, [sp, #32]                  // 8-byte Folded Reload
	.seh_save_reg	x30, 32
	add	sp, sp, #112
	.seh_stackalloc	112
	.seh_endepilogue
	ret
	.seh_endfunclet
	.seh_endproc
                                        // -- End function
	.def	test_va_list_few_hfa_2_doubles;
	.scl	2;
	.type	32;
	.endef
	.globl	test_va_list_few_hfa_2_doubles  // -- Begin function test_va_list_few_hfa_2_doubles
	.p2align	2
test_va_list_few_hfa_2_doubles:         // @test_va_list_few_hfa_2_doubles
.seh_proc test_va_list_few_hfa_2_doubles
// %bb.0:
	sub	sp, sp, #112
	.seh_stackalloc	112
	str	x30, [sp, #32]                  // 8-byte Folded Spill
	.seh_save_reg	x30, 32
	.seh_endprologue
	str	x7, [sp, #104]
	str	x6, [sp, #96]
	str	x5, [sp, #88]
	str	x4, [sp, #80]
	str	x3, [sp, #72]
	str	x2, [sp, #64]
	str	x1, [sp, #56]
	str	x0, [sp, #24]
	add	x8, sp, #56
	str	x8, [sp, #16]
	ldr	x8, [sp, #24]
	ldr	x1, [sp, #16]
	adrp	x0, .L.str.36
	add	x0, x0, :lo12:.L.str.36
	str	x0, [sp]                        // 8-byte Folded Spill
	blr	x8
	ldr	x1, [sp]                        // 8-byte Folded Reload
	str	w0, [sp, #12]
	ldr	w2, [sp, #12]
	adrp	x0, .L.str.1
	add	x0, x0, :lo12:.L.str.1
	bl	__mingw_printf
	ldr	w0, [sp, #12]
	.seh_startepilogue
	ldr	x30, [sp, #32]                  // 8-byte Folded Reload
	.seh_save_reg	x30, 32
	add	sp, sp, #112
	.seh_stackalloc	112
	.seh_endepilogue
	ret
	.seh_endfunclet
	.seh_endproc
                                        // -- End function
	.def	use_indirect_va_list_few_hfa_2_doubles;
	.scl	2;
	.type	32;
	.endef
	.globl	use_indirect_va_list_few_hfa_2_doubles // -- Begin function use_indirect_va_list_few_hfa_2_doubles
	.p2align	2
use_indirect_va_list_few_hfa_2_doubles: // @use_indirect_va_list_few_hfa_2_doubles
.seh_proc use_indirect_va_list_few_hfa_2_doubles
// %bb.0:
	sub	sp, sp, #48
	.seh_stackalloc	48
	str	x30, [sp, #32]                  // 8-byte Folded Spill
	.seh_save_reg	x30, 32
	.seh_endprologue
	str	x0, [sp, #24]
	str	x1, [sp, #16]
	ldr	x8, [sp, #24]
	ldr	x1, [sp, #16]
	adrp	x0, .L.str.36
	add	x0, x0, :lo12:.L.str.36
	str	x0, [sp]                        // 8-byte Folded Spill
	blr	x8
	ldr	x1, [sp]                        // 8-byte Folded Reload
	str	w0, [sp, #12]
	ldr	w2, [sp, #12]
	adrp	x0, .L.str.2
	add	x0, x0, :lo12:.L.str.2
	bl	__mingw_printf
	ldr	w0, [sp, #12]
	.seh_startepilogue
	ldr	x30, [sp, #32]                  // 8-byte Folded Reload
	.seh_save_reg	x30, 32
	add	sp, sp, #48
	.seh_stackalloc	48
	.seh_endepilogue
	ret
	.seh_endfunclet
	.seh_endproc
                                        // -- End function
	.def	test_indirect_va_list_few_hfa_2_doubles;
	.scl	2;
	.type	32;
	.endef
	.globl	test_indirect_va_list_few_hfa_2_doubles // -- Begin function test_indirect_va_list_few_hfa_2_doubles
	.p2align	2
test_indirect_va_list_few_hfa_2_doubles: // @test_indirect_va_list_few_hfa_2_doubles
.seh_proc test_indirect_va_list_few_hfa_2_doubles
// %bb.0:
	sub	sp, sp, #112
	.seh_stackalloc	112
	str	x30, [sp, #32]                  // 8-byte Folded Spill
	.seh_save_reg	x30, 32
	.seh_endprologue
	str	x7, [sp, #104]
	str	x6, [sp, #96]
	str	x5, [sp, #88]
	str	x4, [sp, #80]
	str	x3, [sp, #72]
	str	x2, [sp, #64]
	str	x1, [sp, #56]
	str	x0, [sp, #24]
	add	x8, sp, #56
	str	x8, [sp, #16]
	ldr	x0, [sp, #24]
	ldr	x1, [sp, #16]
	bl	use_indirect_va_list_few_hfa_2_doubles
	str	w0, [sp, #12]
	ldr	w0, [sp, #12]
	.seh_startepilogue
	ldr	x30, [sp, #32]                  // 8-byte Folded Reload
	.seh_save_reg	x30, 32
	add	sp, sp, #112
	.seh_stackalloc	112
	.seh_endepilogue
	ret
	.seh_endfunclet
	.seh_endproc
                                        // -- End function
	.def	test_va_list_several_hfa_2_doubles;
	.scl	2;
	.type	32;
	.endef
	.globl	test_va_list_several_hfa_2_doubles // -- Begin function test_va_list_several_hfa_2_doubles
	.p2align	2
test_va_list_several_hfa_2_doubles:     // @test_va_list_several_hfa_2_doubles
.seh_proc test_va_list_several_hfa_2_doubles
// %bb.0:
	sub	sp, sp, #112
	.seh_stackalloc	112
	str	x30, [sp, #32]                  // 8-byte Folded Spill
	.seh_save_reg	x30, 32
	.seh_endprologue
	str	x7, [sp, #104]
	str	x6, [sp, #96]
	str	x5, [sp, #88]
	str	x4, [sp, #80]
	str	x3, [sp, #72]
	str	x2, [sp, #64]
	str	x1, [sp, #56]
	str	x0, [sp, #24]
	add	x8, sp, #56
	str	x8, [sp, #16]
	ldr	x8, [sp, #24]
	ldr	x1, [sp, #16]
	adrp	x0, .L.str.37
	add	x0, x0, :lo12:.L.str.37
	str	x0, [sp]                        // 8-byte Folded Spill
	blr	x8
	ldr	x1, [sp]                        // 8-byte Folded Reload
	str	w0, [sp, #12]
	ldr	w2, [sp, #12]
	adrp	x0, .L.str.1
	add	x0, x0, :lo12:.L.str.1
	bl	__mingw_printf
	ldr	w0, [sp, #12]
	.seh_startepilogue
	ldr	x30, [sp, #32]                  // 8-byte Folded Reload
	.seh_save_reg	x30, 32
	add	sp, sp, #112
	.seh_stackalloc	112
	.seh_endepilogue
	ret
	.seh_endfunclet
	.seh_endproc
                                        // -- End function
	.def	use_indirect_va_list_several_hfa_2_doubles;
	.scl	2;
	.type	32;
	.endef
	.globl	use_indirect_va_list_several_hfa_2_doubles // -- Begin function use_indirect_va_list_several_hfa_2_doubles
	.p2align	2
use_indirect_va_list_several_hfa_2_doubles: // @use_indirect_va_list_several_hfa_2_doubles
.seh_proc use_indirect_va_list_several_hfa_2_doubles
// %bb.0:
	sub	sp, sp, #48
	.seh_stackalloc	48
	str	x30, [sp, #32]                  // 8-byte Folded Spill
	.seh_save_reg	x30, 32
	.seh_endprologue
	str	x0, [sp, #24]
	str	x1, [sp, #16]
	ldr	x8, [sp, #24]
	ldr	x1, [sp, #16]
	adrp	x0, .L.str.37
	add	x0, x0, :lo12:.L.str.37
	str	x0, [sp]                        // 8-byte Folded Spill
	blr	x8
	ldr	x1, [sp]                        // 8-byte Folded Reload
	str	w0, [sp, #12]
	ldr	w2, [sp, #12]
	adrp	x0, .L.str.2
	add	x0, x0, :lo12:.L.str.2
	bl	__mingw_printf
	ldr	w0, [sp, #12]
	.seh_startepilogue
	ldr	x30, [sp, #32]                  // 8-byte Folded Reload
	.seh_save_reg	x30, 32
	add	sp, sp, #48
	.seh_stackalloc	48
	.seh_endepilogue
	ret
	.seh_endfunclet
	.seh_endproc
                                        // -- End function
	.def	test_indirect_va_list_several_hfa_2_doubles;
	.scl	2;
	.type	32;
	.endef
	.globl	test_indirect_va_list_several_hfa_2_doubles // -- Begin function test_indirect_va_list_several_hfa_2_doubles
	.p2align	2
test_indirect_va_list_several_hfa_2_doubles: // @test_indirect_va_list_several_hfa_2_doubles
.seh_proc test_indirect_va_list_several_hfa_2_doubles
// %bb.0:
	sub	sp, sp, #112
	.seh_stackalloc	112
	str	x30, [sp, #32]                  // 8-byte Folded Spill
	.seh_save_reg	x30, 32
	.seh_endprologue
	str	x7, [sp, #104]
	str	x6, [sp, #96]
	str	x5, [sp, #88]
	str	x4, [sp, #80]
	str	x3, [sp, #72]
	str	x2, [sp, #64]
	str	x1, [sp, #56]
	str	x0, [sp, #24]
	add	x8, sp, #56
	str	x8, [sp, #16]
	ldr	x0, [sp, #24]
	ldr	x1, [sp, #16]
	bl	use_indirect_va_list_several_hfa_2_doubles
	str	w0, [sp, #12]
	ldr	w0, [sp, #12]
	.seh_startepilogue
	ldr	x30, [sp, #32]                  // 8-byte Folded Reload
	.seh_save_reg	x30, 32
	add	sp, sp, #112
	.seh_stackalloc	112
	.seh_endepilogue
	ret
	.seh_endfunclet
	.seh_endproc
                                        // -- End function
	.def	test_va_list_many_hfa_2_doubles;
	.scl	2;
	.type	32;
	.endef
	.globl	test_va_list_many_hfa_2_doubles // -- Begin function test_va_list_many_hfa_2_doubles
	.p2align	2
test_va_list_many_hfa_2_doubles:        // @test_va_list_many_hfa_2_doubles
.seh_proc test_va_list_many_hfa_2_doubles
// %bb.0:
	sub	sp, sp, #112
	.seh_stackalloc	112
	str	x30, [sp, #32]                  // 8-byte Folded Spill
	.seh_save_reg	x30, 32
	.seh_endprologue
	str	x7, [sp, #104]
	str	x6, [sp, #96]
	str	x5, [sp, #88]
	str	x4, [sp, #80]
	str	x3, [sp, #72]
	str	x2, [sp, #64]
	str	x1, [sp, #56]
	str	x0, [sp, #24]
	add	x8, sp, #56
	str	x8, [sp, #16]
	ldr	x8, [sp, #24]
	ldr	x1, [sp, #16]
	adrp	x0, .L.str.38
	add	x0, x0, :lo12:.L.str.38
	str	x0, [sp]                        // 8-byte Folded Spill
	blr	x8
	ldr	x1, [sp]                        // 8-byte Folded Reload
	str	w0, [sp, #12]
	ldr	w2, [sp, #12]
	adrp	x0, .L.str.1
	add	x0, x0, :lo12:.L.str.1
	bl	__mingw_printf
	ldr	w0, [sp, #12]
	.seh_startepilogue
	ldr	x30, [sp, #32]                  // 8-byte Folded Reload
	.seh_save_reg	x30, 32
	add	sp, sp, #112
	.seh_stackalloc	112
	.seh_endepilogue
	ret
	.seh_endfunclet
	.seh_endproc
                                        // -- End function
	.def	use_indirect_va_list_many_hfa_2_doubles;
	.scl	2;
	.type	32;
	.endef
	.globl	use_indirect_va_list_many_hfa_2_doubles // -- Begin function use_indirect_va_list_many_hfa_2_doubles
	.p2align	2
use_indirect_va_list_many_hfa_2_doubles: // @use_indirect_va_list_many_hfa_2_doubles
.seh_proc use_indirect_va_list_many_hfa_2_doubles
// %bb.0:
	sub	sp, sp, #48
	.seh_stackalloc	48
	str	x30, [sp, #32]                  // 8-byte Folded Spill
	.seh_save_reg	x30, 32
	.seh_endprologue
	str	x0, [sp, #24]
	str	x1, [sp, #16]
	ldr	x8, [sp, #24]
	ldr	x1, [sp, #16]
	adrp	x0, .L.str.38
	add	x0, x0, :lo12:.L.str.38
	str	x0, [sp]                        // 8-byte Folded Spill
	blr	x8
	ldr	x1, [sp]                        // 8-byte Folded Reload
	str	w0, [sp, #12]
	ldr	w2, [sp, #12]
	adrp	x0, .L.str.2
	add	x0, x0, :lo12:.L.str.2
	bl	__mingw_printf
	ldr	w0, [sp, #12]
	.seh_startepilogue
	ldr	x30, [sp, #32]                  // 8-byte Folded Reload
	.seh_save_reg	x30, 32
	add	sp, sp, #48
	.seh_stackalloc	48
	.seh_endepilogue
	ret
	.seh_endfunclet
	.seh_endproc
                                        // -- End function
	.def	test_indirect_va_list_many_hfa_2_doubles;
	.scl	2;
	.type	32;
	.endef
	.globl	test_indirect_va_list_many_hfa_2_doubles // -- Begin function test_indirect_va_list_many_hfa_2_doubles
	.p2align	2
test_indirect_va_list_many_hfa_2_doubles: // @test_indirect_va_list_many_hfa_2_doubles
.seh_proc test_indirect_va_list_many_hfa_2_doubles
// %bb.0:
	sub	sp, sp, #112
	.seh_stackalloc	112
	str	x30, [sp, #32]                  // 8-byte Folded Spill
	.seh_save_reg	x30, 32
	.seh_endprologue
	str	x7, [sp, #104]
	str	x6, [sp, #96]
	str	x5, [sp, #88]
	str	x4, [sp, #80]
	str	x3, [sp, #72]
	str	x2, [sp, #64]
	str	x1, [sp, #56]
	str	x0, [sp, #24]
	add	x8, sp, #56
	str	x8, [sp, #16]
	ldr	x0, [sp, #24]
	ldr	x1, [sp, #16]
	bl	use_indirect_va_list_many_hfa_2_doubles
	str	w0, [sp, #12]
	ldr	w0, [sp, #12]
	.seh_startepilogue
	ldr	x30, [sp, #32]                  // 8-byte Folded Reload
	.seh_save_reg	x30, 32
	add	sp, sp, #112
	.seh_stackalloc	112
	.seh_endepilogue
	ret
	.seh_endfunclet
	.seh_endproc
                                        // -- End function
	.def	test_va_list_few_hfa_4_doubles;
	.scl	2;
	.type	32;
	.endef
	.globl	test_va_list_few_hfa_4_doubles  // -- Begin function test_va_list_few_hfa_4_doubles
	.p2align	2
test_va_list_few_hfa_4_doubles:         // @test_va_list_few_hfa_4_doubles
.seh_proc test_va_list_few_hfa_4_doubles
// %bb.0:
	sub	sp, sp, #112
	.seh_stackalloc	112
	str	x30, [sp, #32]                  // 8-byte Folded Spill
	.seh_save_reg	x30, 32
	.seh_endprologue
	str	x7, [sp, #104]
	str	x6, [sp, #96]
	str	x5, [sp, #88]
	str	x4, [sp, #80]
	str	x3, [sp, #72]
	str	x2, [sp, #64]
	str	x1, [sp, #56]
	str	x0, [sp, #24]
	add	x8, sp, #56
	str	x8, [sp, #16]
	ldr	x8, [sp, #24]
	ldr	x1, [sp, #16]
	adrp	x0, .L.str.39
	add	x0, x0, :lo12:.L.str.39
	str	x0, [sp]                        // 8-byte Folded Spill
	blr	x8
	ldr	x1, [sp]                        // 8-byte Folded Reload
	str	w0, [sp, #12]
	ldr	w2, [sp, #12]
	adrp	x0, .L.str.1
	add	x0, x0, :lo12:.L.str.1
	bl	__mingw_printf
	ldr	w0, [sp, #12]
	.seh_startepilogue
	ldr	x30, [sp, #32]                  // 8-byte Folded Reload
	.seh_save_reg	x30, 32
	add	sp, sp, #112
	.seh_stackalloc	112
	.seh_endepilogue
	ret
	.seh_endfunclet
	.seh_endproc
                                        // -- End function
	.def	use_indirect_va_list_few_hfa_4_doubles;
	.scl	2;
	.type	32;
	.endef
	.globl	use_indirect_va_list_few_hfa_4_doubles // -- Begin function use_indirect_va_list_few_hfa_4_doubles
	.p2align	2
use_indirect_va_list_few_hfa_4_doubles: // @use_indirect_va_list_few_hfa_4_doubles
.seh_proc use_indirect_va_list_few_hfa_4_doubles
// %bb.0:
	sub	sp, sp, #48
	.seh_stackalloc	48
	str	x30, [sp, #32]                  // 8-byte Folded Spill
	.seh_save_reg	x30, 32
	.seh_endprologue
	str	x0, [sp, #24]
	str	x1, [sp, #16]
	ldr	x8, [sp, #24]
	ldr	x1, [sp, #16]
	adrp	x0, .L.str.39
	add	x0, x0, :lo12:.L.str.39
	str	x0, [sp]                        // 8-byte Folded Spill
	blr	x8
	ldr	x1, [sp]                        // 8-byte Folded Reload
	str	w0, [sp, #12]
	ldr	w2, [sp, #12]
	adrp	x0, .L.str.2
	add	x0, x0, :lo12:.L.str.2
	bl	__mingw_printf
	ldr	w0, [sp, #12]
	.seh_startepilogue
	ldr	x30, [sp, #32]                  // 8-byte Folded Reload
	.seh_save_reg	x30, 32
	add	sp, sp, #48
	.seh_stackalloc	48
	.seh_endepilogue
	ret
	.seh_endfunclet
	.seh_endproc
                                        // -- End function
	.def	test_indirect_va_list_few_hfa_4_doubles;
	.scl	2;
	.type	32;
	.endef
	.globl	test_indirect_va_list_few_hfa_4_doubles // -- Begin function test_indirect_va_list_few_hfa_4_doubles
	.p2align	2
test_indirect_va_list_few_hfa_4_doubles: // @test_indirect_va_list_few_hfa_4_doubles
.seh_proc test_indirect_va_list_few_hfa_4_doubles
// %bb.0:
	sub	sp, sp, #112
	.seh_stackalloc	112
	str	x30, [sp, #32]                  // 8-byte Folded Spill
	.seh_save_reg	x30, 32
	.seh_endprologue
	str	x7, [sp, #104]
	str	x6, [sp, #96]
	str	x5, [sp, #88]
	str	x4, [sp, #80]
	str	x3, [sp, #72]
	str	x2, [sp, #64]
	str	x1, [sp, #56]
	str	x0, [sp, #24]
	add	x8, sp, #56
	str	x8, [sp, #16]
	ldr	x0, [sp, #24]
	ldr	x1, [sp, #16]
	bl	use_indirect_va_list_few_hfa_4_doubles
	str	w0, [sp, #12]
	ldr	w0, [sp, #12]
	.seh_startepilogue
	ldr	x30, [sp, #32]                  // 8-byte Folded Reload
	.seh_save_reg	x30, 32
	add	sp, sp, #112
	.seh_stackalloc	112
	.seh_endepilogue
	ret
	.seh_endfunclet
	.seh_endproc
                                        // -- End function
	.def	test_va_list_several_hfa_4_doubles;
	.scl	2;
	.type	32;
	.endef
	.globl	test_va_list_several_hfa_4_doubles // -- Begin function test_va_list_several_hfa_4_doubles
	.p2align	2
test_va_list_several_hfa_4_doubles:     // @test_va_list_several_hfa_4_doubles
.seh_proc test_va_list_several_hfa_4_doubles
// %bb.0:
	sub	sp, sp, #112
	.seh_stackalloc	112
	str	x30, [sp, #32]                  // 8-byte Folded Spill
	.seh_save_reg	x30, 32
	.seh_endprologue
	str	x7, [sp, #104]
	str	x6, [sp, #96]
	str	x5, [sp, #88]
	str	x4, [sp, #80]
	str	x3, [sp, #72]
	str	x2, [sp, #64]
	str	x1, [sp, #56]
	str	x0, [sp, #24]
	add	x8, sp, #56
	str	x8, [sp, #16]
	ldr	x8, [sp, #24]
	ldr	x1, [sp, #16]
	adrp	x0, .L.str.40
	add	x0, x0, :lo12:.L.str.40
	str	x0, [sp]                        // 8-byte Folded Spill
	blr	x8
	ldr	x1, [sp]                        // 8-byte Folded Reload
	str	w0, [sp, #12]
	ldr	w2, [sp, #12]
	adrp	x0, .L.str.1
	add	x0, x0, :lo12:.L.str.1
	bl	__mingw_printf
	ldr	w0, [sp, #12]
	.seh_startepilogue
	ldr	x30, [sp, #32]                  // 8-byte Folded Reload
	.seh_save_reg	x30, 32
	add	sp, sp, #112
	.seh_stackalloc	112
	.seh_endepilogue
	ret
	.seh_endfunclet
	.seh_endproc
                                        // -- End function
	.def	use_indirect_va_list_several_hfa_4_doubles;
	.scl	2;
	.type	32;
	.endef
	.globl	use_indirect_va_list_several_hfa_4_doubles // -- Begin function use_indirect_va_list_several_hfa_4_doubles
	.p2align	2
use_indirect_va_list_several_hfa_4_doubles: // @use_indirect_va_list_several_hfa_4_doubles
.seh_proc use_indirect_va_list_several_hfa_4_doubles
// %bb.0:
	sub	sp, sp, #48
	.seh_stackalloc	48
	str	x30, [sp, #32]                  // 8-byte Folded Spill
	.seh_save_reg	x30, 32
	.seh_endprologue
	str	x0, [sp, #24]
	str	x1, [sp, #16]
	ldr	x8, [sp, #24]
	ldr	x1, [sp, #16]
	adrp	x0, .L.str.40
	add	x0, x0, :lo12:.L.str.40
	str	x0, [sp]                        // 8-byte Folded Spill
	blr	x8
	ldr	x1, [sp]                        // 8-byte Folded Reload
	str	w0, [sp, #12]
	ldr	w2, [sp, #12]
	adrp	x0, .L.str.2
	add	x0, x0, :lo12:.L.str.2
	bl	__mingw_printf
	ldr	w0, [sp, #12]
	.seh_startepilogue
	ldr	x30, [sp, #32]                  // 8-byte Folded Reload
	.seh_save_reg	x30, 32
	add	sp, sp, #48
	.seh_stackalloc	48
	.seh_endepilogue
	ret
	.seh_endfunclet
	.seh_endproc
                                        // -- End function
	.def	test_indirect_va_list_several_hfa_4_doubles;
	.scl	2;
	.type	32;
	.endef
	.globl	test_indirect_va_list_several_hfa_4_doubles // -- Begin function test_indirect_va_list_several_hfa_4_doubles
	.p2align	2
test_indirect_va_list_several_hfa_4_doubles: // @test_indirect_va_list_several_hfa_4_doubles
.seh_proc test_indirect_va_list_several_hfa_4_doubles
// %bb.0:
	sub	sp, sp, #112
	.seh_stackalloc	112
	str	x30, [sp, #32]                  // 8-byte Folded Spill
	.seh_save_reg	x30, 32
	.seh_endprologue
	str	x7, [sp, #104]
	str	x6, [sp, #96]
	str	x5, [sp, #88]
	str	x4, [sp, #80]
	str	x3, [sp, #72]
	str	x2, [sp, #64]
	str	x1, [sp, #56]
	str	x0, [sp, #24]
	add	x8, sp, #56
	str	x8, [sp, #16]
	ldr	x0, [sp, #24]
	ldr	x1, [sp, #16]
	bl	use_indirect_va_list_several_hfa_4_doubles
	str	w0, [sp, #12]
	ldr	w0, [sp, #12]
	.seh_startepilogue
	ldr	x30, [sp, #32]                  // 8-byte Folded Reload
	.seh_save_reg	x30, 32
	add	sp, sp, #112
	.seh_stackalloc	112
	.seh_endepilogue
	ret
	.seh_endfunclet
	.seh_endproc
                                        // -- End function
	.def	test_va_list_many_hfa_4_doubles;
	.scl	2;
	.type	32;
	.endef
	.globl	test_va_list_many_hfa_4_doubles // -- Begin function test_va_list_many_hfa_4_doubles
	.p2align	2
test_va_list_many_hfa_4_doubles:        // @test_va_list_many_hfa_4_doubles
.seh_proc test_va_list_many_hfa_4_doubles
// %bb.0:
	sub	sp, sp, #112
	.seh_stackalloc	112
	str	x30, [sp, #32]                  // 8-byte Folded Spill
	.seh_save_reg	x30, 32
	.seh_endprologue
	str	x7, [sp, #104]
	str	x6, [sp, #96]
	str	x5, [sp, #88]
	str	x4, [sp, #80]
	str	x3, [sp, #72]
	str	x2, [sp, #64]
	str	x1, [sp, #56]
	str	x0, [sp, #24]
	add	x8, sp, #56
	str	x8, [sp, #16]
	ldr	x8, [sp, #24]
	ldr	x1, [sp, #16]
	adrp	x0, .L.str.41
	add	x0, x0, :lo12:.L.str.41
	str	x0, [sp]                        // 8-byte Folded Spill
	blr	x8
	ldr	x1, [sp]                        // 8-byte Folded Reload
	str	w0, [sp, #12]
	ldr	w2, [sp, #12]
	adrp	x0, .L.str.1
	add	x0, x0, :lo12:.L.str.1
	bl	__mingw_printf
	ldr	w0, [sp, #12]
	.seh_startepilogue
	ldr	x30, [sp, #32]                  // 8-byte Folded Reload
	.seh_save_reg	x30, 32
	add	sp, sp, #112
	.seh_stackalloc	112
	.seh_endepilogue
	ret
	.seh_endfunclet
	.seh_endproc
                                        // -- End function
	.def	use_indirect_va_list_many_hfa_4_doubles;
	.scl	2;
	.type	32;
	.endef
	.globl	use_indirect_va_list_many_hfa_4_doubles // -- Begin function use_indirect_va_list_many_hfa_4_doubles
	.p2align	2
use_indirect_va_list_many_hfa_4_doubles: // @use_indirect_va_list_many_hfa_4_doubles
.seh_proc use_indirect_va_list_many_hfa_4_doubles
// %bb.0:
	sub	sp, sp, #48
	.seh_stackalloc	48
	str	x30, [sp, #32]                  // 8-byte Folded Spill
	.seh_save_reg	x30, 32
	.seh_endprologue
	str	x0, [sp, #24]
	str	x1, [sp, #16]
	ldr	x8, [sp, #24]
	ldr	x1, [sp, #16]
	adrp	x0, .L.str.41
	add	x0, x0, :lo12:.L.str.41
	str	x0, [sp]                        // 8-byte Folded Spill
	blr	x8
	ldr	x1, [sp]                        // 8-byte Folded Reload
	str	w0, [sp, #12]
	ldr	w2, [sp, #12]
	adrp	x0, .L.str.2
	add	x0, x0, :lo12:.L.str.2
	bl	__mingw_printf
	ldr	w0, [sp, #12]
	.seh_startepilogue
	ldr	x30, [sp, #32]                  // 8-byte Folded Reload
	.seh_save_reg	x30, 32
	add	sp, sp, #48
	.seh_stackalloc	48
	.seh_endepilogue
	ret
	.seh_endfunclet
	.seh_endproc
                                        // -- End function
	.def	test_indirect_va_list_many_hfa_4_doubles;
	.scl	2;
	.type	32;
	.endef
	.globl	test_indirect_va_list_many_hfa_4_doubles // -- Begin function test_indirect_va_list_many_hfa_4_doubles
	.p2align	2
test_indirect_va_list_many_hfa_4_doubles: // @test_indirect_va_list_many_hfa_4_doubles
.seh_proc test_indirect_va_list_many_hfa_4_doubles
// %bb.0:
	sub	sp, sp, #112
	.seh_stackalloc	112
	str	x30, [sp, #32]                  // 8-byte Folded Spill
	.seh_save_reg	x30, 32
	.seh_endprologue
	str	x7, [sp, #104]
	str	x6, [sp, #96]
	str	x5, [sp, #88]
	str	x4, [sp, #80]
	str	x3, [sp, #72]
	str	x2, [sp, #64]
	str	x1, [sp, #56]
	str	x0, [sp, #24]
	add	x8, sp, #56
	str	x8, [sp, #16]
	ldr	x0, [sp, #24]
	ldr	x1, [sp, #16]
	bl	use_indirect_va_list_many_hfa_4_doubles
	str	w0, [sp, #12]
	ldr	w0, [sp, #12]
	.seh_startepilogue
	ldr	x30, [sp, #32]                  // 8-byte Folded Reload
	.seh_save_reg	x30, 32
	add	sp, sp, #112
	.seh_stackalloc	112
	.seh_endepilogue
	ret
	.seh_endfunclet
	.seh_endproc
                                        // -- End function
	.def	test_va_list_few_hva_2_short_vector_8_bytes;
	.scl	2;
	.type	32;
	.endef
	.globl	test_va_list_few_hva_2_short_vector_8_bytes // -- Begin function test_va_list_few_hva_2_short_vector_8_bytes
	.p2align	2
test_va_list_few_hva_2_short_vector_8_bytes: // @test_va_list_few_hva_2_short_vector_8_bytes
.seh_proc test_va_list_few_hva_2_short_vector_8_bytes
// %bb.0:
	sub	sp, sp, #112
	.seh_stackalloc	112
	str	x30, [sp, #32]                  // 8-byte Folded Spill
	.seh_save_reg	x30, 32
	.seh_endprologue
	str	x7, [sp, #104]
	str	x6, [sp, #96]
	str	x5, [sp, #88]
	str	x4, [sp, #80]
	str	x3, [sp, #72]
	str	x2, [sp, #64]
	str	x1, [sp, #56]
	str	x0, [sp, #24]
	add	x8, sp, #56
	str	x8, [sp, #16]
	ldr	x8, [sp, #24]
	ldr	x1, [sp, #16]
	adrp	x0, .L.str.42
	add	x0, x0, :lo12:.L.str.42
	str	x0, [sp]                        // 8-byte Folded Spill
	blr	x8
	ldr	x1, [sp]                        // 8-byte Folded Reload
	str	w0, [sp, #12]
	ldr	w2, [sp, #12]
	adrp	x0, .L.str.1
	add	x0, x0, :lo12:.L.str.1
	bl	__mingw_printf
	ldr	w0, [sp, #12]
	.seh_startepilogue
	ldr	x30, [sp, #32]                  // 8-byte Folded Reload
	.seh_save_reg	x30, 32
	add	sp, sp, #112
	.seh_stackalloc	112
	.seh_endepilogue
	ret
	.seh_endfunclet
	.seh_endproc
                                        // -- End function
	.def	use_indirect_va_list_few_hva_2_short_vector_8_bytes;
	.scl	2;
	.type	32;
	.endef
	.globl	use_indirect_va_list_few_hva_2_short_vector_8_bytes // -- Begin function use_indirect_va_list_few_hva_2_short_vector_8_bytes
	.p2align	2
use_indirect_va_list_few_hva_2_short_vector_8_bytes: // @use_indirect_va_list_few_hva_2_short_vector_8_bytes
.seh_proc use_indirect_va_list_few_hva_2_short_vector_8_bytes
// %bb.0:
	sub	sp, sp, #48
	.seh_stackalloc	48
	str	x30, [sp, #32]                  // 8-byte Folded Spill
	.seh_save_reg	x30, 32
	.seh_endprologue
	str	x0, [sp, #24]
	str	x1, [sp, #16]
	ldr	x8, [sp, #24]
	ldr	x1, [sp, #16]
	adrp	x0, .L.str.42
	add	x0, x0, :lo12:.L.str.42
	str	x0, [sp]                        // 8-byte Folded Spill
	blr	x8
	ldr	x1, [sp]                        // 8-byte Folded Reload
	str	w0, [sp, #12]
	ldr	w2, [sp, #12]
	adrp	x0, .L.str.2
	add	x0, x0, :lo12:.L.str.2
	bl	__mingw_printf
	ldr	w0, [sp, #12]
	.seh_startepilogue
	ldr	x30, [sp, #32]                  // 8-byte Folded Reload
	.seh_save_reg	x30, 32
	add	sp, sp, #48
	.seh_stackalloc	48
	.seh_endepilogue
	ret
	.seh_endfunclet
	.seh_endproc
                                        // -- End function
	.def	test_indirect_va_list_few_hva_2_short_vector_8_bytes;
	.scl	2;
	.type	32;
	.endef
	.globl	test_indirect_va_list_few_hva_2_short_vector_8_bytes // -- Begin function test_indirect_va_list_few_hva_2_short_vector_8_bytes
	.p2align	2
test_indirect_va_list_few_hva_2_short_vector_8_bytes: // @test_indirect_va_list_few_hva_2_short_vector_8_bytes
.seh_proc test_indirect_va_list_few_hva_2_short_vector_8_bytes
// %bb.0:
	sub	sp, sp, #112
	.seh_stackalloc	112
	str	x30, [sp, #32]                  // 8-byte Folded Spill
	.seh_save_reg	x30, 32
	.seh_endprologue
	str	x7, [sp, #104]
	str	x6, [sp, #96]
	str	x5, [sp, #88]
	str	x4, [sp, #80]
	str	x3, [sp, #72]
	str	x2, [sp, #64]
	str	x1, [sp, #56]
	str	x0, [sp, #24]
	add	x8, sp, #56
	str	x8, [sp, #16]
	ldr	x0, [sp, #24]
	ldr	x1, [sp, #16]
	bl	use_indirect_va_list_few_hva_2_short_vector_8_bytes
	str	w0, [sp, #12]
	ldr	w0, [sp, #12]
	.seh_startepilogue
	ldr	x30, [sp, #32]                  // 8-byte Folded Reload
	.seh_save_reg	x30, 32
	add	sp, sp, #112
	.seh_stackalloc	112
	.seh_endepilogue
	ret
	.seh_endfunclet
	.seh_endproc
                                        // -- End function
	.def	test_va_list_several_hva_2_short_vector_8_bytes;
	.scl	2;
	.type	32;
	.endef
	.globl	test_va_list_several_hva_2_short_vector_8_bytes // -- Begin function test_va_list_several_hva_2_short_vector_8_bytes
	.p2align	2
test_va_list_several_hva_2_short_vector_8_bytes: // @test_va_list_several_hva_2_short_vector_8_bytes
.seh_proc test_va_list_several_hva_2_short_vector_8_bytes
// %bb.0:
	sub	sp, sp, #112
	.seh_stackalloc	112
	str	x30, [sp, #32]                  // 8-byte Folded Spill
	.seh_save_reg	x30, 32
	.seh_endprologue
	str	x7, [sp, #104]
	str	x6, [sp, #96]
	str	x5, [sp, #88]
	str	x4, [sp, #80]
	str	x3, [sp, #72]
	str	x2, [sp, #64]
	str	x1, [sp, #56]
	str	x0, [sp, #24]
	add	x8, sp, #56
	str	x8, [sp, #16]
	ldr	x8, [sp, #24]
	ldr	x1, [sp, #16]
	adrp	x0, .L.str.43
	add	x0, x0, :lo12:.L.str.43
	str	x0, [sp]                        // 8-byte Folded Spill
	blr	x8
	ldr	x1, [sp]                        // 8-byte Folded Reload
	str	w0, [sp, #12]
	ldr	w2, [sp, #12]
	adrp	x0, .L.str.1
	add	x0, x0, :lo12:.L.str.1
	bl	__mingw_printf
	ldr	w0, [sp, #12]
	.seh_startepilogue
	ldr	x30, [sp, #32]                  // 8-byte Folded Reload
	.seh_save_reg	x30, 32
	add	sp, sp, #112
	.seh_stackalloc	112
	.seh_endepilogue
	ret
	.seh_endfunclet
	.seh_endproc
                                        // -- End function
	.def	use_indirect_va_list_several_hva_2_short_vector_8_bytes;
	.scl	2;
	.type	32;
	.endef
	.globl	use_indirect_va_list_several_hva_2_short_vector_8_bytes // -- Begin function use_indirect_va_list_several_hva_2_short_vector_8_bytes
	.p2align	2
use_indirect_va_list_several_hva_2_short_vector_8_bytes: // @use_indirect_va_list_several_hva_2_short_vector_8_bytes
.seh_proc use_indirect_va_list_several_hva_2_short_vector_8_bytes
// %bb.0:
	sub	sp, sp, #48
	.seh_stackalloc	48
	str	x30, [sp, #32]                  // 8-byte Folded Spill
	.seh_save_reg	x30, 32
	.seh_endprologue
	str	x0, [sp, #24]
	str	x1, [sp, #16]
	ldr	x8, [sp, #24]
	ldr	x1, [sp, #16]
	adrp	x0, .L.str.43
	add	x0, x0, :lo12:.L.str.43
	str	x0, [sp]                        // 8-byte Folded Spill
	blr	x8
	ldr	x1, [sp]                        // 8-byte Folded Reload
	str	w0, [sp, #12]
	ldr	w2, [sp, #12]
	adrp	x0, .L.str.2
	add	x0, x0, :lo12:.L.str.2
	bl	__mingw_printf
	ldr	w0, [sp, #12]
	.seh_startepilogue
	ldr	x30, [sp, #32]                  // 8-byte Folded Reload
	.seh_save_reg	x30, 32
	add	sp, sp, #48
	.seh_stackalloc	48
	.seh_endepilogue
	ret
	.seh_endfunclet
	.seh_endproc
                                        // -- End function
	.def	test_indirect_va_list_several_hva_2_short_vector_8_bytes;
	.scl	2;
	.type	32;
	.endef
	.globl	test_indirect_va_list_several_hva_2_short_vector_8_bytes // -- Begin function test_indirect_va_list_several_hva_2_short_vector_8_bytes
	.p2align	2
test_indirect_va_list_several_hva_2_short_vector_8_bytes: // @test_indirect_va_list_several_hva_2_short_vector_8_bytes
.seh_proc test_indirect_va_list_several_hva_2_short_vector_8_bytes
// %bb.0:
	sub	sp, sp, #112
	.seh_stackalloc	112
	str	x30, [sp, #32]                  // 8-byte Folded Spill
	.seh_save_reg	x30, 32
	.seh_endprologue
	str	x7, [sp, #104]
	str	x6, [sp, #96]
	str	x5, [sp, #88]
	str	x4, [sp, #80]
	str	x3, [sp, #72]
	str	x2, [sp, #64]
	str	x1, [sp, #56]
	str	x0, [sp, #24]
	add	x8, sp, #56
	str	x8, [sp, #16]
	ldr	x0, [sp, #24]
	ldr	x1, [sp, #16]
	bl	use_indirect_va_list_several_hva_2_short_vector_8_bytes
	str	w0, [sp, #12]
	ldr	w0, [sp, #12]
	.seh_startepilogue
	ldr	x30, [sp, #32]                  // 8-byte Folded Reload
	.seh_save_reg	x30, 32
	add	sp, sp, #112
	.seh_stackalloc	112
	.seh_endepilogue
	ret
	.seh_endfunclet
	.seh_endproc
                                        // -- End function
	.def	test_va_list_many_hva_2_short_vector_8_bytes;
	.scl	2;
	.type	32;
	.endef
	.globl	test_va_list_many_hva_2_short_vector_8_bytes // -- Begin function test_va_list_many_hva_2_short_vector_8_bytes
	.p2align	2
test_va_list_many_hva_2_short_vector_8_bytes: // @test_va_list_many_hva_2_short_vector_8_bytes
.seh_proc test_va_list_many_hva_2_short_vector_8_bytes
// %bb.0:
	sub	sp, sp, #112
	.seh_stackalloc	112
	str	x30, [sp, #32]                  // 8-byte Folded Spill
	.seh_save_reg	x30, 32
	.seh_endprologue
	str	x7, [sp, #104]
	str	x6, [sp, #96]
	str	x5, [sp, #88]
	str	x4, [sp, #80]
	str	x3, [sp, #72]
	str	x2, [sp, #64]
	str	x1, [sp, #56]
	str	x0, [sp, #24]
	add	x8, sp, #56
	str	x8, [sp, #16]
	ldr	x8, [sp, #24]
	ldr	x1, [sp, #16]
	adrp	x0, .L.str.44
	add	x0, x0, :lo12:.L.str.44
	str	x0, [sp]                        // 8-byte Folded Spill
	blr	x8
	ldr	x1, [sp]                        // 8-byte Folded Reload
	str	w0, [sp, #12]
	ldr	w2, [sp, #12]
	adrp	x0, .L.str.1
	add	x0, x0, :lo12:.L.str.1
	bl	__mingw_printf
	ldr	w0, [sp, #12]
	.seh_startepilogue
	ldr	x30, [sp, #32]                  // 8-byte Folded Reload
	.seh_save_reg	x30, 32
	add	sp, sp, #112
	.seh_stackalloc	112
	.seh_endepilogue
	ret
	.seh_endfunclet
	.seh_endproc
                                        // -- End function
	.def	use_indirect_va_list_many_hva_2_short_vector_8_bytes;
	.scl	2;
	.type	32;
	.endef
	.globl	use_indirect_va_list_many_hva_2_short_vector_8_bytes // -- Begin function use_indirect_va_list_many_hva_2_short_vector_8_bytes
	.p2align	2
use_indirect_va_list_many_hva_2_short_vector_8_bytes: // @use_indirect_va_list_many_hva_2_short_vector_8_bytes
.seh_proc use_indirect_va_list_many_hva_2_short_vector_8_bytes
// %bb.0:
	sub	sp, sp, #48
	.seh_stackalloc	48
	str	x30, [sp, #32]                  // 8-byte Folded Spill
	.seh_save_reg	x30, 32
	.seh_endprologue
	str	x0, [sp, #24]
	str	x1, [sp, #16]
	ldr	x8, [sp, #24]
	ldr	x1, [sp, #16]
	adrp	x0, .L.str.44
	add	x0, x0, :lo12:.L.str.44
	str	x0, [sp]                        // 8-byte Folded Spill
	blr	x8
	ldr	x1, [sp]                        // 8-byte Folded Reload
	str	w0, [sp, #12]
	ldr	w2, [sp, #12]
	adrp	x0, .L.str.2
	add	x0, x0, :lo12:.L.str.2
	bl	__mingw_printf
	ldr	w0, [sp, #12]
	.seh_startepilogue
	ldr	x30, [sp, #32]                  // 8-byte Folded Reload
	.seh_save_reg	x30, 32
	add	sp, sp, #48
	.seh_stackalloc	48
	.seh_endepilogue
	ret
	.seh_endfunclet
	.seh_endproc
                                        // -- End function
	.def	test_indirect_va_list_many_hva_2_short_vector_8_bytes;
	.scl	2;
	.type	32;
	.endef
	.globl	test_indirect_va_list_many_hva_2_short_vector_8_bytes // -- Begin function test_indirect_va_list_many_hva_2_short_vector_8_bytes
	.p2align	2
test_indirect_va_list_many_hva_2_short_vector_8_bytes: // @test_indirect_va_list_many_hva_2_short_vector_8_bytes
.seh_proc test_indirect_va_list_many_hva_2_short_vector_8_bytes
// %bb.0:
	sub	sp, sp, #112
	.seh_stackalloc	112
	str	x30, [sp, #32]                  // 8-byte Folded Spill
	.seh_save_reg	x30, 32
	.seh_endprologue
	str	x7, [sp, #104]
	str	x6, [sp, #96]
	str	x5, [sp, #88]
	str	x4, [sp, #80]
	str	x3, [sp, #72]
	str	x2, [sp, #64]
	str	x1, [sp, #56]
	str	x0, [sp, #24]
	add	x8, sp, #56
	str	x8, [sp, #16]
	ldr	x0, [sp, #24]
	ldr	x1, [sp, #16]
	bl	use_indirect_va_list_many_hva_2_short_vector_8_bytes
	str	w0, [sp, #12]
	ldr	w0, [sp, #12]
	.seh_startepilogue
	ldr	x30, [sp, #32]                  // 8-byte Folded Reload
	.seh_save_reg	x30, 32
	add	sp, sp, #112
	.seh_stackalloc	112
	.seh_endepilogue
	ret
	.seh_endfunclet
	.seh_endproc
                                        // -- End function
	.def	test_va_list_few_hva_4_short_vector_8_bytes;
	.scl	2;
	.type	32;
	.endef
	.globl	test_va_list_few_hva_4_short_vector_8_bytes // -- Begin function test_va_list_few_hva_4_short_vector_8_bytes
	.p2align	2
test_va_list_few_hva_4_short_vector_8_bytes: // @test_va_list_few_hva_4_short_vector_8_bytes
.seh_proc test_va_list_few_hva_4_short_vector_8_bytes
// %bb.0:
	sub	sp, sp, #112
	.seh_stackalloc	112
	str	x30, [sp, #32]                  // 8-byte Folded Spill
	.seh_save_reg	x30, 32
	.seh_endprologue
	str	x7, [sp, #104]
	str	x6, [sp, #96]
	str	x5, [sp, #88]
	str	x4, [sp, #80]
	str	x3, [sp, #72]
	str	x2, [sp, #64]
	str	x1, [sp, #56]
	str	x0, [sp, #24]
	add	x8, sp, #56
	str	x8, [sp, #16]
	ldr	x8, [sp, #24]
	ldr	x1, [sp, #16]
	adrp	x0, .L.str.45
	add	x0, x0, :lo12:.L.str.45
	str	x0, [sp]                        // 8-byte Folded Spill
	blr	x8
	ldr	x1, [sp]                        // 8-byte Folded Reload
	str	w0, [sp, #12]
	ldr	w2, [sp, #12]
	adrp	x0, .L.str.1
	add	x0, x0, :lo12:.L.str.1
	bl	__mingw_printf
	ldr	w0, [sp, #12]
	.seh_startepilogue
	ldr	x30, [sp, #32]                  // 8-byte Folded Reload
	.seh_save_reg	x30, 32
	add	sp, sp, #112
	.seh_stackalloc	112
	.seh_endepilogue
	ret
	.seh_endfunclet
	.seh_endproc
                                        // -- End function
	.def	use_indirect_va_list_few_hva_4_short_vector_8_bytes;
	.scl	2;
	.type	32;
	.endef
	.globl	use_indirect_va_list_few_hva_4_short_vector_8_bytes // -- Begin function use_indirect_va_list_few_hva_4_short_vector_8_bytes
	.p2align	2
use_indirect_va_list_few_hva_4_short_vector_8_bytes: // @use_indirect_va_list_few_hva_4_short_vector_8_bytes
.seh_proc use_indirect_va_list_few_hva_4_short_vector_8_bytes
// %bb.0:
	sub	sp, sp, #48
	.seh_stackalloc	48
	str	x30, [sp, #32]                  // 8-byte Folded Spill
	.seh_save_reg	x30, 32
	.seh_endprologue
	str	x0, [sp, #24]
	str	x1, [sp, #16]
	ldr	x8, [sp, #24]
	ldr	x1, [sp, #16]
	adrp	x0, .L.str.45
	add	x0, x0, :lo12:.L.str.45
	str	x0, [sp]                        // 8-byte Folded Spill
	blr	x8
	ldr	x1, [sp]                        // 8-byte Folded Reload
	str	w0, [sp, #12]
	ldr	w2, [sp, #12]
	adrp	x0, .L.str.2
	add	x0, x0, :lo12:.L.str.2
	bl	__mingw_printf
	ldr	w0, [sp, #12]
	.seh_startepilogue
	ldr	x30, [sp, #32]                  // 8-byte Folded Reload
	.seh_save_reg	x30, 32
	add	sp, sp, #48
	.seh_stackalloc	48
	.seh_endepilogue
	ret
	.seh_endfunclet
	.seh_endproc
                                        // -- End function
	.def	test_indirect_va_list_few_hva_4_short_vector_8_bytes;
	.scl	2;
	.type	32;
	.endef
	.globl	test_indirect_va_list_few_hva_4_short_vector_8_bytes // -- Begin function test_indirect_va_list_few_hva_4_short_vector_8_bytes
	.p2align	2
test_indirect_va_list_few_hva_4_short_vector_8_bytes: // @test_indirect_va_list_few_hva_4_short_vector_8_bytes
.seh_proc test_indirect_va_list_few_hva_4_short_vector_8_bytes
// %bb.0:
	sub	sp, sp, #112
	.seh_stackalloc	112
	str	x30, [sp, #32]                  // 8-byte Folded Spill
	.seh_save_reg	x30, 32
	.seh_endprologue
	str	x7, [sp, #104]
	str	x6, [sp, #96]
	str	x5, [sp, #88]
	str	x4, [sp, #80]
	str	x3, [sp, #72]
	str	x2, [sp, #64]
	str	x1, [sp, #56]
	str	x0, [sp, #24]
	add	x8, sp, #56
	str	x8, [sp, #16]
	ldr	x0, [sp, #24]
	ldr	x1, [sp, #16]
	bl	use_indirect_va_list_few_hva_4_short_vector_8_bytes
	str	w0, [sp, #12]
	ldr	w0, [sp, #12]
	.seh_startepilogue
	ldr	x30, [sp, #32]                  // 8-byte Folded Reload
	.seh_save_reg	x30, 32
	add	sp, sp, #112
	.seh_stackalloc	112
	.seh_endepilogue
	ret
	.seh_endfunclet
	.seh_endproc
                                        // -- End function
	.def	test_va_list_several_hva_4_short_vector_8_bytes;
	.scl	2;
	.type	32;
	.endef
	.globl	test_va_list_several_hva_4_short_vector_8_bytes // -- Begin function test_va_list_several_hva_4_short_vector_8_bytes
	.p2align	2
test_va_list_several_hva_4_short_vector_8_bytes: // @test_va_list_several_hva_4_short_vector_8_bytes
.seh_proc test_va_list_several_hva_4_short_vector_8_bytes
// %bb.0:
	sub	sp, sp, #112
	.seh_stackalloc	112
	str	x30, [sp, #32]                  // 8-byte Folded Spill
	.seh_save_reg	x30, 32
	.seh_endprologue
	str	x7, [sp, #104]
	str	x6, [sp, #96]
	str	x5, [sp, #88]
	str	x4, [sp, #80]
	str	x3, [sp, #72]
	str	x2, [sp, #64]
	str	x1, [sp, #56]
	str	x0, [sp, #24]
	add	x8, sp, #56
	str	x8, [sp, #16]
	ldr	x8, [sp, #24]
	ldr	x1, [sp, #16]
	adrp	x0, .L.str.46
	add	x0, x0, :lo12:.L.str.46
	str	x0, [sp]                        // 8-byte Folded Spill
	blr	x8
	ldr	x1, [sp]                        // 8-byte Folded Reload
	str	w0, [sp, #12]
	ldr	w2, [sp, #12]
	adrp	x0, .L.str.1
	add	x0, x0, :lo12:.L.str.1
	bl	__mingw_printf
	ldr	w0, [sp, #12]
	.seh_startepilogue
	ldr	x30, [sp, #32]                  // 8-byte Folded Reload
	.seh_save_reg	x30, 32
	add	sp, sp, #112
	.seh_stackalloc	112
	.seh_endepilogue
	ret
	.seh_endfunclet
	.seh_endproc
                                        // -- End function
	.def	use_indirect_va_list_several_hva_4_short_vector_8_bytes;
	.scl	2;
	.type	32;
	.endef
	.globl	use_indirect_va_list_several_hva_4_short_vector_8_bytes // -- Begin function use_indirect_va_list_several_hva_4_short_vector_8_bytes
	.p2align	2
use_indirect_va_list_several_hva_4_short_vector_8_bytes: // @use_indirect_va_list_several_hva_4_short_vector_8_bytes
.seh_proc use_indirect_va_list_several_hva_4_short_vector_8_bytes
// %bb.0:
	sub	sp, sp, #48
	.seh_stackalloc	48
	str	x30, [sp, #32]                  // 8-byte Folded Spill
	.seh_save_reg	x30, 32
	.seh_endprologue
	str	x0, [sp, #24]
	str	x1, [sp, #16]
	ldr	x8, [sp, #24]
	ldr	x1, [sp, #16]
	adrp	x0, .L.str.46
	add	x0, x0, :lo12:.L.str.46
	str	x0, [sp]                        // 8-byte Folded Spill
	blr	x8
	ldr	x1, [sp]                        // 8-byte Folded Reload
	str	w0, [sp, #12]
	ldr	w2, [sp, #12]
	adrp	x0, .L.str.2
	add	x0, x0, :lo12:.L.str.2
	bl	__mingw_printf
	ldr	w0, [sp, #12]
	.seh_startepilogue
	ldr	x30, [sp, #32]                  // 8-byte Folded Reload
	.seh_save_reg	x30, 32
	add	sp, sp, #48
	.seh_stackalloc	48
	.seh_endepilogue
	ret
	.seh_endfunclet
	.seh_endproc
                                        // -- End function
	.def	test_indirect_va_list_several_hva_4_short_vector_8_bytes;
	.scl	2;
	.type	32;
	.endef
	.globl	test_indirect_va_list_several_hva_4_short_vector_8_bytes // -- Begin function test_indirect_va_list_several_hva_4_short_vector_8_bytes
	.p2align	2
test_indirect_va_list_several_hva_4_short_vector_8_bytes: // @test_indirect_va_list_several_hva_4_short_vector_8_bytes
.seh_proc test_indirect_va_list_several_hva_4_short_vector_8_bytes
// %bb.0:
	sub	sp, sp, #112
	.seh_stackalloc	112
	str	x30, [sp, #32]                  // 8-byte Folded Spill
	.seh_save_reg	x30, 32
	.seh_endprologue
	str	x7, [sp, #104]
	str	x6, [sp, #96]
	str	x5, [sp, #88]
	str	x4, [sp, #80]
	str	x3, [sp, #72]
	str	x2, [sp, #64]
	str	x1, [sp, #56]
	str	x0, [sp, #24]
	add	x8, sp, #56
	str	x8, [sp, #16]
	ldr	x0, [sp, #24]
	ldr	x1, [sp, #16]
	bl	use_indirect_va_list_several_hva_4_short_vector_8_bytes
	str	w0, [sp, #12]
	ldr	w0, [sp, #12]
	.seh_startepilogue
	ldr	x30, [sp, #32]                  // 8-byte Folded Reload
	.seh_save_reg	x30, 32
	add	sp, sp, #112
	.seh_stackalloc	112
	.seh_endepilogue
	ret
	.seh_endfunclet
	.seh_endproc
                                        // -- End function
	.def	test_va_list_many_hva_4_short_vector_8_bytes;
	.scl	2;
	.type	32;
	.endef
	.globl	test_va_list_many_hva_4_short_vector_8_bytes // -- Begin function test_va_list_many_hva_4_short_vector_8_bytes
	.p2align	2
test_va_list_many_hva_4_short_vector_8_bytes: // @test_va_list_many_hva_4_short_vector_8_bytes
.seh_proc test_va_list_many_hva_4_short_vector_8_bytes
// %bb.0:
	sub	sp, sp, #112
	.seh_stackalloc	112
	str	x30, [sp, #32]                  // 8-byte Folded Spill
	.seh_save_reg	x30, 32
	.seh_endprologue
	str	x7, [sp, #104]
	str	x6, [sp, #96]
	str	x5, [sp, #88]
	str	x4, [sp, #80]
	str	x3, [sp, #72]
	str	x2, [sp, #64]
	str	x1, [sp, #56]
	str	x0, [sp, #24]
	add	x8, sp, #56
	str	x8, [sp, #16]
	ldr	x8, [sp, #24]
	ldr	x1, [sp, #16]
	adrp	x0, .L.str.47
	add	x0, x0, :lo12:.L.str.47
	str	x0, [sp]                        // 8-byte Folded Spill
	blr	x8
	ldr	x1, [sp]                        // 8-byte Folded Reload
	str	w0, [sp, #12]
	ldr	w2, [sp, #12]
	adrp	x0, .L.str.1
	add	x0, x0, :lo12:.L.str.1
	bl	__mingw_printf
	ldr	w0, [sp, #12]
	.seh_startepilogue
	ldr	x30, [sp, #32]                  // 8-byte Folded Reload
	.seh_save_reg	x30, 32
	add	sp, sp, #112
	.seh_stackalloc	112
	.seh_endepilogue
	ret
	.seh_endfunclet
	.seh_endproc
                                        // -- End function
	.def	use_indirect_va_list_many_hva_4_short_vector_8_bytes;
	.scl	2;
	.type	32;
	.endef
	.globl	use_indirect_va_list_many_hva_4_short_vector_8_bytes // -- Begin function use_indirect_va_list_many_hva_4_short_vector_8_bytes
	.p2align	2
use_indirect_va_list_many_hva_4_short_vector_8_bytes: // @use_indirect_va_list_many_hva_4_short_vector_8_bytes
.seh_proc use_indirect_va_list_many_hva_4_short_vector_8_bytes
// %bb.0:
	sub	sp, sp, #48
	.seh_stackalloc	48
	str	x30, [sp, #32]                  // 8-byte Folded Spill
	.seh_save_reg	x30, 32
	.seh_endprologue
	str	x0, [sp, #24]
	str	x1, [sp, #16]
	ldr	x8, [sp, #24]
	ldr	x1, [sp, #16]
	adrp	x0, .L.str.47
	add	x0, x0, :lo12:.L.str.47
	str	x0, [sp]                        // 8-byte Folded Spill
	blr	x8
	ldr	x1, [sp]                        // 8-byte Folded Reload
	str	w0, [sp, #12]
	ldr	w2, [sp, #12]
	adrp	x0, .L.str.2
	add	x0, x0, :lo12:.L.str.2
	bl	__mingw_printf
	ldr	w0, [sp, #12]
	.seh_startepilogue
	ldr	x30, [sp, #32]                  // 8-byte Folded Reload
	.seh_save_reg	x30, 32
	add	sp, sp, #48
	.seh_stackalloc	48
	.seh_endepilogue
	ret
	.seh_endfunclet
	.seh_endproc
                                        // -- End function
	.def	test_indirect_va_list_many_hva_4_short_vector_8_bytes;
	.scl	2;
	.type	32;
	.endef
	.globl	test_indirect_va_list_many_hva_4_short_vector_8_bytes // -- Begin function test_indirect_va_list_many_hva_4_short_vector_8_bytes
	.p2align	2
test_indirect_va_list_many_hva_4_short_vector_8_bytes: // @test_indirect_va_list_many_hva_4_short_vector_8_bytes
.seh_proc test_indirect_va_list_many_hva_4_short_vector_8_bytes
// %bb.0:
	sub	sp, sp, #112
	.seh_stackalloc	112
	str	x30, [sp, #32]                  // 8-byte Folded Spill
	.seh_save_reg	x30, 32
	.seh_endprologue
	str	x7, [sp, #104]
	str	x6, [sp, #96]
	str	x5, [sp, #88]
	str	x4, [sp, #80]
	str	x3, [sp, #72]
	str	x2, [sp, #64]
	str	x1, [sp, #56]
	str	x0, [sp, #24]
	add	x8, sp, #56
	str	x8, [sp, #16]
	ldr	x0, [sp, #24]
	ldr	x1, [sp, #16]
	bl	use_indirect_va_list_many_hva_4_short_vector_8_bytes
	str	w0, [sp, #12]
	ldr	w0, [sp, #12]
	.seh_startepilogue
	ldr	x30, [sp, #32]                  // 8-byte Folded Reload
	.seh_save_reg	x30, 32
	add	sp, sp, #112
	.seh_stackalloc	112
	.seh_endepilogue
	ret
	.seh_endfunclet
	.seh_endproc
                                        // -- End function
	.def	test_va_list_few_hva_2_short_vector_16_bytes;
	.scl	2;
	.type	32;
	.endef
	.globl	test_va_list_few_hva_2_short_vector_16_bytes // -- Begin function test_va_list_few_hva_2_short_vector_16_bytes
	.p2align	2
test_va_list_few_hva_2_short_vector_16_bytes: // @test_va_list_few_hva_2_short_vector_16_bytes
.seh_proc test_va_list_few_hva_2_short_vector_16_bytes
// %bb.0:
	sub	sp, sp, #112
	.seh_stackalloc	112
	str	x30, [sp, #32]                  // 8-byte Folded Spill
	.seh_save_reg	x30, 32
	.seh_endprologue
	str	x7, [sp, #104]
	str	x6, [sp, #96]
	str	x5, [sp, #88]
	str	x4, [sp, #80]
	str	x3, [sp, #72]
	str	x2, [sp, #64]
	str	x1, [sp, #56]
	str	x0, [sp, #24]
	add	x8, sp, #56
	str	x8, [sp, #16]
	ldr	x8, [sp, #24]
	ldr	x1, [sp, #16]
	adrp	x0, .L.str.48
	add	x0, x0, :lo12:.L.str.48
	str	x0, [sp]                        // 8-byte Folded Spill
	blr	x8
	ldr	x1, [sp]                        // 8-byte Folded Reload
	str	w0, [sp, #12]
	ldr	w2, [sp, #12]
	adrp	x0, .L.str.1
	add	x0, x0, :lo12:.L.str.1
	bl	__mingw_printf
	ldr	w0, [sp, #12]
	.seh_startepilogue
	ldr	x30, [sp, #32]                  // 8-byte Folded Reload
	.seh_save_reg	x30, 32
	add	sp, sp, #112
	.seh_stackalloc	112
	.seh_endepilogue
	ret
	.seh_endfunclet
	.seh_endproc
                                        // -- End function
	.def	use_indirect_va_list_few_hva_2_short_vector_16_bytes;
	.scl	2;
	.type	32;
	.endef
	.globl	use_indirect_va_list_few_hva_2_short_vector_16_bytes // -- Begin function use_indirect_va_list_few_hva_2_short_vector_16_bytes
	.p2align	2
use_indirect_va_list_few_hva_2_short_vector_16_bytes: // @use_indirect_va_list_few_hva_2_short_vector_16_bytes
.seh_proc use_indirect_va_list_few_hva_2_short_vector_16_bytes
// %bb.0:
	sub	sp, sp, #48
	.seh_stackalloc	48
	str	x30, [sp, #32]                  // 8-byte Folded Spill
	.seh_save_reg	x30, 32
	.seh_endprologue
	str	x0, [sp, #24]
	str	x1, [sp, #16]
	ldr	x8, [sp, #24]
	ldr	x1, [sp, #16]
	adrp	x0, .L.str.48
	add	x0, x0, :lo12:.L.str.48
	str	x0, [sp]                        // 8-byte Folded Spill
	blr	x8
	ldr	x1, [sp]                        // 8-byte Folded Reload
	str	w0, [sp, #12]
	ldr	w2, [sp, #12]
	adrp	x0, .L.str.2
	add	x0, x0, :lo12:.L.str.2
	bl	__mingw_printf
	ldr	w0, [sp, #12]
	.seh_startepilogue
	ldr	x30, [sp, #32]                  // 8-byte Folded Reload
	.seh_save_reg	x30, 32
	add	sp, sp, #48
	.seh_stackalloc	48
	.seh_endepilogue
	ret
	.seh_endfunclet
	.seh_endproc
                                        // -- End function
	.def	test_indirect_va_list_few_hva_2_short_vector_16_bytes;
	.scl	2;
	.type	32;
	.endef
	.globl	test_indirect_va_list_few_hva_2_short_vector_16_bytes // -- Begin function test_indirect_va_list_few_hva_2_short_vector_16_bytes
	.p2align	2
test_indirect_va_list_few_hva_2_short_vector_16_bytes: // @test_indirect_va_list_few_hva_2_short_vector_16_bytes
.seh_proc test_indirect_va_list_few_hva_2_short_vector_16_bytes
// %bb.0:
	sub	sp, sp, #112
	.seh_stackalloc	112
	str	x30, [sp, #32]                  // 8-byte Folded Spill
	.seh_save_reg	x30, 32
	.seh_endprologue
	str	x7, [sp, #104]
	str	x6, [sp, #96]
	str	x5, [sp, #88]
	str	x4, [sp, #80]
	str	x3, [sp, #72]
	str	x2, [sp, #64]
	str	x1, [sp, #56]
	str	x0, [sp, #24]
	add	x8, sp, #56
	str	x8, [sp, #16]
	ldr	x0, [sp, #24]
	ldr	x1, [sp, #16]
	bl	use_indirect_va_list_few_hva_2_short_vector_16_bytes
	str	w0, [sp, #12]
	ldr	w0, [sp, #12]
	.seh_startepilogue
	ldr	x30, [sp, #32]                  // 8-byte Folded Reload
	.seh_save_reg	x30, 32
	add	sp, sp, #112
	.seh_stackalloc	112
	.seh_endepilogue
	ret
	.seh_endfunclet
	.seh_endproc
                                        // -- End function
	.def	test_va_list_several_hva_2_short_vector_16_bytes;
	.scl	2;
	.type	32;
	.endef
	.globl	test_va_list_several_hva_2_short_vector_16_bytes // -- Begin function test_va_list_several_hva_2_short_vector_16_bytes
	.p2align	2
test_va_list_several_hva_2_short_vector_16_bytes: // @test_va_list_several_hva_2_short_vector_16_bytes
.seh_proc test_va_list_several_hva_2_short_vector_16_bytes
// %bb.0:
	sub	sp, sp, #112
	.seh_stackalloc	112
	str	x30, [sp, #32]                  // 8-byte Folded Spill
	.seh_save_reg	x30, 32
	.seh_endprologue
	str	x7, [sp, #104]
	str	x6, [sp, #96]
	str	x5, [sp, #88]
	str	x4, [sp, #80]
	str	x3, [sp, #72]
	str	x2, [sp, #64]
	str	x1, [sp, #56]
	str	x0, [sp, #24]
	add	x8, sp, #56
	str	x8, [sp, #16]
	ldr	x8, [sp, #24]
	ldr	x1, [sp, #16]
	adrp	x0, .L.str.49
	add	x0, x0, :lo12:.L.str.49
	str	x0, [sp]                        // 8-byte Folded Spill
	blr	x8
	ldr	x1, [sp]                        // 8-byte Folded Reload
	str	w0, [sp, #12]
	ldr	w2, [sp, #12]
	adrp	x0, .L.str.1
	add	x0, x0, :lo12:.L.str.1
	bl	__mingw_printf
	ldr	w0, [sp, #12]
	.seh_startepilogue
	ldr	x30, [sp, #32]                  // 8-byte Folded Reload
	.seh_save_reg	x30, 32
	add	sp, sp, #112
	.seh_stackalloc	112
	.seh_endepilogue
	ret
	.seh_endfunclet
	.seh_endproc
                                        // -- End function
	.def	use_indirect_va_list_several_hva_2_short_vector_16_bytes;
	.scl	2;
	.type	32;
	.endef
	.globl	use_indirect_va_list_several_hva_2_short_vector_16_bytes // -- Begin function use_indirect_va_list_several_hva_2_short_vector_16_bytes
	.p2align	2
use_indirect_va_list_several_hva_2_short_vector_16_bytes: // @use_indirect_va_list_several_hva_2_short_vector_16_bytes
.seh_proc use_indirect_va_list_several_hva_2_short_vector_16_bytes
// %bb.0:
	sub	sp, sp, #48
	.seh_stackalloc	48
	str	x30, [sp, #32]                  // 8-byte Folded Spill
	.seh_save_reg	x30, 32
	.seh_endprologue
	str	x0, [sp, #24]
	str	x1, [sp, #16]
	ldr	x8, [sp, #24]
	ldr	x1, [sp, #16]
	adrp	x0, .L.str.49
	add	x0, x0, :lo12:.L.str.49
	str	x0, [sp]                        // 8-byte Folded Spill
	blr	x8
	ldr	x1, [sp]                        // 8-byte Folded Reload
	str	w0, [sp, #12]
	ldr	w2, [sp, #12]
	adrp	x0, .L.str.2
	add	x0, x0, :lo12:.L.str.2
	bl	__mingw_printf
	ldr	w0, [sp, #12]
	.seh_startepilogue
	ldr	x30, [sp, #32]                  // 8-byte Folded Reload
	.seh_save_reg	x30, 32
	add	sp, sp, #48
	.seh_stackalloc	48
	.seh_endepilogue
	ret
	.seh_endfunclet
	.seh_endproc
                                        // -- End function
	.def	test_indirect_va_list_several_hva_2_short_vector_16_bytes;
	.scl	2;
	.type	32;
	.endef
	.globl	test_indirect_va_list_several_hva_2_short_vector_16_bytes // -- Begin function test_indirect_va_list_several_hva_2_short_vector_16_bytes
	.p2align	2
test_indirect_va_list_several_hva_2_short_vector_16_bytes: // @test_indirect_va_list_several_hva_2_short_vector_16_bytes
.seh_proc test_indirect_va_list_several_hva_2_short_vector_16_bytes
// %bb.0:
	sub	sp, sp, #112
	.seh_stackalloc	112
	str	x30, [sp, #32]                  // 8-byte Folded Spill
	.seh_save_reg	x30, 32
	.seh_endprologue
	str	x7, [sp, #104]
	str	x6, [sp, #96]
	str	x5, [sp, #88]
	str	x4, [sp, #80]
	str	x3, [sp, #72]
	str	x2, [sp, #64]
	str	x1, [sp, #56]
	str	x0, [sp, #24]
	add	x8, sp, #56
	str	x8, [sp, #16]
	ldr	x0, [sp, #24]
	ldr	x1, [sp, #16]
	bl	use_indirect_va_list_several_hva_2_short_vector_16_bytes
	str	w0, [sp, #12]
	ldr	w0, [sp, #12]
	.seh_startepilogue
	ldr	x30, [sp, #32]                  // 8-byte Folded Reload
	.seh_save_reg	x30, 32
	add	sp, sp, #112
	.seh_stackalloc	112
	.seh_endepilogue
	ret
	.seh_endfunclet
	.seh_endproc
                                        // -- End function
	.def	test_va_list_many_hva_2_short_vector_16_bytes;
	.scl	2;
	.type	32;
	.endef
	.globl	test_va_list_many_hva_2_short_vector_16_bytes // -- Begin function test_va_list_many_hva_2_short_vector_16_bytes
	.p2align	2
test_va_list_many_hva_2_short_vector_16_bytes: // @test_va_list_many_hva_2_short_vector_16_bytes
.seh_proc test_va_list_many_hva_2_short_vector_16_bytes
// %bb.0:
	sub	sp, sp, #112
	.seh_stackalloc	112
	str	x30, [sp, #32]                  // 8-byte Folded Spill
	.seh_save_reg	x30, 32
	.seh_endprologue
	str	x7, [sp, #104]
	str	x6, [sp, #96]
	str	x5, [sp, #88]
	str	x4, [sp, #80]
	str	x3, [sp, #72]
	str	x2, [sp, #64]
	str	x1, [sp, #56]
	str	x0, [sp, #24]
	add	x8, sp, #56
	str	x8, [sp, #16]
	ldr	x8, [sp, #24]
	ldr	x1, [sp, #16]
	adrp	x0, .L.str.50
	add	x0, x0, :lo12:.L.str.50
	str	x0, [sp]                        // 8-byte Folded Spill
	blr	x8
	ldr	x1, [sp]                        // 8-byte Folded Reload
	str	w0, [sp, #12]
	ldr	w2, [sp, #12]
	adrp	x0, .L.str.1
	add	x0, x0, :lo12:.L.str.1
	bl	__mingw_printf
	ldr	w0, [sp, #12]
	.seh_startepilogue
	ldr	x30, [sp, #32]                  // 8-byte Folded Reload
	.seh_save_reg	x30, 32
	add	sp, sp, #112
	.seh_stackalloc	112
	.seh_endepilogue
	ret
	.seh_endfunclet
	.seh_endproc
                                        // -- End function
	.def	use_indirect_va_list_many_hva_2_short_vector_16_bytes;
	.scl	2;
	.type	32;
	.endef
	.globl	use_indirect_va_list_many_hva_2_short_vector_16_bytes // -- Begin function use_indirect_va_list_many_hva_2_short_vector_16_bytes
	.p2align	2
use_indirect_va_list_many_hva_2_short_vector_16_bytes: // @use_indirect_va_list_many_hva_2_short_vector_16_bytes
.seh_proc use_indirect_va_list_many_hva_2_short_vector_16_bytes
// %bb.0:
	sub	sp, sp, #48
	.seh_stackalloc	48
	str	x30, [sp, #32]                  // 8-byte Folded Spill
	.seh_save_reg	x30, 32
	.seh_endprologue
	str	x0, [sp, #24]
	str	x1, [sp, #16]
	ldr	x8, [sp, #24]
	ldr	x1, [sp, #16]
	adrp	x0, .L.str.50
	add	x0, x0, :lo12:.L.str.50
	str	x0, [sp]                        // 8-byte Folded Spill
	blr	x8
	ldr	x1, [sp]                        // 8-byte Folded Reload
	str	w0, [sp, #12]
	ldr	w2, [sp, #12]
	adrp	x0, .L.str.2
	add	x0, x0, :lo12:.L.str.2
	bl	__mingw_printf
	ldr	w0, [sp, #12]
	.seh_startepilogue
	ldr	x30, [sp, #32]                  // 8-byte Folded Reload
	.seh_save_reg	x30, 32
	add	sp, sp, #48
	.seh_stackalloc	48
	.seh_endepilogue
	ret
	.seh_endfunclet
	.seh_endproc
                                        // -- End function
	.def	test_indirect_va_list_many_hva_2_short_vector_16_bytes;
	.scl	2;
	.type	32;
	.endef
	.globl	test_indirect_va_list_many_hva_2_short_vector_16_bytes // -- Begin function test_indirect_va_list_many_hva_2_short_vector_16_bytes
	.p2align	2
test_indirect_va_list_many_hva_2_short_vector_16_bytes: // @test_indirect_va_list_many_hva_2_short_vector_16_bytes
.seh_proc test_indirect_va_list_many_hva_2_short_vector_16_bytes
// %bb.0:
	sub	sp, sp, #112
	.seh_stackalloc	112
	str	x30, [sp, #32]                  // 8-byte Folded Spill
	.seh_save_reg	x30, 32
	.seh_endprologue
	str	x7, [sp, #104]
	str	x6, [sp, #96]
	str	x5, [sp, #88]
	str	x4, [sp, #80]
	str	x3, [sp, #72]
	str	x2, [sp, #64]
	str	x1, [sp, #56]
	str	x0, [sp, #24]
	add	x8, sp, #56
	str	x8, [sp, #16]
	ldr	x0, [sp, #24]
	ldr	x1, [sp, #16]
	bl	use_indirect_va_list_many_hva_2_short_vector_16_bytes
	str	w0, [sp, #12]
	ldr	w0, [sp, #12]
	.seh_startepilogue
	ldr	x30, [sp, #32]                  // 8-byte Folded Reload
	.seh_save_reg	x30, 32
	add	sp, sp, #112
	.seh_stackalloc	112
	.seh_endepilogue
	ret
	.seh_endfunclet
	.seh_endproc
                                        // -- End function
	.def	test_va_list_few_hva_4_short_vector_16_bytes;
	.scl	2;
	.type	32;
	.endef
	.globl	test_va_list_few_hva_4_short_vector_16_bytes // -- Begin function test_va_list_few_hva_4_short_vector_16_bytes
	.p2align	2
test_va_list_few_hva_4_short_vector_16_bytes: // @test_va_list_few_hva_4_short_vector_16_bytes
.seh_proc test_va_list_few_hva_4_short_vector_16_bytes
// %bb.0:
	sub	sp, sp, #112
	.seh_stackalloc	112
	str	x30, [sp, #32]                  // 8-byte Folded Spill
	.seh_save_reg	x30, 32
	.seh_endprologue
	str	x7, [sp, #104]
	str	x6, [sp, #96]
	str	x5, [sp, #88]
	str	x4, [sp, #80]
	str	x3, [sp, #72]
	str	x2, [sp, #64]
	str	x1, [sp, #56]
	str	x0, [sp, #24]
	add	x8, sp, #56
	str	x8, [sp, #16]
	ldr	x8, [sp, #24]
	ldr	x1, [sp, #16]
	adrp	x0, .L.str.51
	add	x0, x0, :lo12:.L.str.51
	str	x0, [sp]                        // 8-byte Folded Spill
	blr	x8
	ldr	x1, [sp]                        // 8-byte Folded Reload
	str	w0, [sp, #12]
	ldr	w2, [sp, #12]
	adrp	x0, .L.str.1
	add	x0, x0, :lo12:.L.str.1
	bl	__mingw_printf
	ldr	w0, [sp, #12]
	.seh_startepilogue
	ldr	x30, [sp, #32]                  // 8-byte Folded Reload
	.seh_save_reg	x30, 32
	add	sp, sp, #112
	.seh_stackalloc	112
	.seh_endepilogue
	ret
	.seh_endfunclet
	.seh_endproc
                                        // -- End function
	.def	use_indirect_va_list_few_hva_4_short_vector_16_bytes;
	.scl	2;
	.type	32;
	.endef
	.globl	use_indirect_va_list_few_hva_4_short_vector_16_bytes // -- Begin function use_indirect_va_list_few_hva_4_short_vector_16_bytes
	.p2align	2
use_indirect_va_list_few_hva_4_short_vector_16_bytes: // @use_indirect_va_list_few_hva_4_short_vector_16_bytes
.seh_proc use_indirect_va_list_few_hva_4_short_vector_16_bytes
// %bb.0:
	sub	sp, sp, #48
	.seh_stackalloc	48
	str	x30, [sp, #32]                  // 8-byte Folded Spill
	.seh_save_reg	x30, 32
	.seh_endprologue
	str	x0, [sp, #24]
	str	x1, [sp, #16]
	ldr	x8, [sp, #24]
	ldr	x1, [sp, #16]
	adrp	x0, .L.str.51
	add	x0, x0, :lo12:.L.str.51
	str	x0, [sp]                        // 8-byte Folded Spill
	blr	x8
	ldr	x1, [sp]                        // 8-byte Folded Reload
	str	w0, [sp, #12]
	ldr	w2, [sp, #12]
	adrp	x0, .L.str.2
	add	x0, x0, :lo12:.L.str.2
	bl	__mingw_printf
	ldr	w0, [sp, #12]
	.seh_startepilogue
	ldr	x30, [sp, #32]                  // 8-byte Folded Reload
	.seh_save_reg	x30, 32
	add	sp, sp, #48
	.seh_stackalloc	48
	.seh_endepilogue
	ret
	.seh_endfunclet
	.seh_endproc
                                        // -- End function
	.def	test_indirect_va_list_few_hva_4_short_vector_16_bytes;
	.scl	2;
	.type	32;
	.endef
	.globl	test_indirect_va_list_few_hva_4_short_vector_16_bytes // -- Begin function test_indirect_va_list_few_hva_4_short_vector_16_bytes
	.p2align	2
test_indirect_va_list_few_hva_4_short_vector_16_bytes: // @test_indirect_va_list_few_hva_4_short_vector_16_bytes
.seh_proc test_indirect_va_list_few_hva_4_short_vector_16_bytes
// %bb.0:
	sub	sp, sp, #112
	.seh_stackalloc	112
	str	x30, [sp, #32]                  // 8-byte Folded Spill
	.seh_save_reg	x30, 32
	.seh_endprologue
	str	x7, [sp, #104]
	str	x6, [sp, #96]
	str	x5, [sp, #88]
	str	x4, [sp, #80]
	str	x3, [sp, #72]
	str	x2, [sp, #64]
	str	x1, [sp, #56]
	str	x0, [sp, #24]
	add	x8, sp, #56
	str	x8, [sp, #16]
	ldr	x0, [sp, #24]
	ldr	x1, [sp, #16]
	bl	use_indirect_va_list_few_hva_4_short_vector_16_bytes
	str	w0, [sp, #12]
	ldr	w0, [sp, #12]
	.seh_startepilogue
	ldr	x30, [sp, #32]                  // 8-byte Folded Reload
	.seh_save_reg	x30, 32
	add	sp, sp, #112
	.seh_stackalloc	112
	.seh_endepilogue
	ret
	.seh_endfunclet
	.seh_endproc
                                        // -- End function
	.def	test_va_list_several_hva_4_short_vector_16_bytes;
	.scl	2;
	.type	32;
	.endef
	.globl	test_va_list_several_hva_4_short_vector_16_bytes // -- Begin function test_va_list_several_hva_4_short_vector_16_bytes
	.p2align	2
test_va_list_several_hva_4_short_vector_16_bytes: // @test_va_list_several_hva_4_short_vector_16_bytes
.seh_proc test_va_list_several_hva_4_short_vector_16_bytes
// %bb.0:
	sub	sp, sp, #112
	.seh_stackalloc	112
	str	x30, [sp, #32]                  // 8-byte Folded Spill
	.seh_save_reg	x30, 32
	.seh_endprologue
	str	x7, [sp, #104]
	str	x6, [sp, #96]
	str	x5, [sp, #88]
	str	x4, [sp, #80]
	str	x3, [sp, #72]
	str	x2, [sp, #64]
	str	x1, [sp, #56]
	str	x0, [sp, #24]
	add	x8, sp, #56
	str	x8, [sp, #16]
	ldr	x8, [sp, #24]
	ldr	x1, [sp, #16]
	adrp	x0, .L.str.52
	add	x0, x0, :lo12:.L.str.52
	str	x0, [sp]                        // 8-byte Folded Spill
	blr	x8
	ldr	x1, [sp]                        // 8-byte Folded Reload
	str	w0, [sp, #12]
	ldr	w2, [sp, #12]
	adrp	x0, .L.str.1
	add	x0, x0, :lo12:.L.str.1
	bl	__mingw_printf
	ldr	w0, [sp, #12]
	.seh_startepilogue
	ldr	x30, [sp, #32]                  // 8-byte Folded Reload
	.seh_save_reg	x30, 32
	add	sp, sp, #112
	.seh_stackalloc	112
	.seh_endepilogue
	ret
	.seh_endfunclet
	.seh_endproc
                                        // -- End function
	.def	use_indirect_va_list_several_hva_4_short_vector_16_bytes;
	.scl	2;
	.type	32;
	.endef
	.globl	use_indirect_va_list_several_hva_4_short_vector_16_bytes // -- Begin function use_indirect_va_list_several_hva_4_short_vector_16_bytes
	.p2align	2
use_indirect_va_list_several_hva_4_short_vector_16_bytes: // @use_indirect_va_list_several_hva_4_short_vector_16_bytes
.seh_proc use_indirect_va_list_several_hva_4_short_vector_16_bytes
// %bb.0:
	sub	sp, sp, #48
	.seh_stackalloc	48
	str	x30, [sp, #32]                  // 8-byte Folded Spill
	.seh_save_reg	x30, 32
	.seh_endprologue
	str	x0, [sp, #24]
	str	x1, [sp, #16]
	ldr	x8, [sp, #24]
	ldr	x1, [sp, #16]
	adrp	x0, .L.str.52
	add	x0, x0, :lo12:.L.str.52
	str	x0, [sp]                        // 8-byte Folded Spill
	blr	x8
	ldr	x1, [sp]                        // 8-byte Folded Reload
	str	w0, [sp, #12]
	ldr	w2, [sp, #12]
	adrp	x0, .L.str.2
	add	x0, x0, :lo12:.L.str.2
	bl	__mingw_printf
	ldr	w0, [sp, #12]
	.seh_startepilogue
	ldr	x30, [sp, #32]                  // 8-byte Folded Reload
	.seh_save_reg	x30, 32
	add	sp, sp, #48
	.seh_stackalloc	48
	.seh_endepilogue
	ret
	.seh_endfunclet
	.seh_endproc
                                        // -- End function
	.def	test_indirect_va_list_several_hva_4_short_vector_16_bytes;
	.scl	2;
	.type	32;
	.endef
	.globl	test_indirect_va_list_several_hva_4_short_vector_16_bytes // -- Begin function test_indirect_va_list_several_hva_4_short_vector_16_bytes
	.p2align	2
test_indirect_va_list_several_hva_4_short_vector_16_bytes: // @test_indirect_va_list_several_hva_4_short_vector_16_bytes
.seh_proc test_indirect_va_list_several_hva_4_short_vector_16_bytes
// %bb.0:
	sub	sp, sp, #112
	.seh_stackalloc	112
	str	x30, [sp, #32]                  // 8-byte Folded Spill
	.seh_save_reg	x30, 32
	.seh_endprologue
	str	x7, [sp, #104]
	str	x6, [sp, #96]
	str	x5, [sp, #88]
	str	x4, [sp, #80]
	str	x3, [sp, #72]
	str	x2, [sp, #64]
	str	x1, [sp, #56]
	str	x0, [sp, #24]
	add	x8, sp, #56
	str	x8, [sp, #16]
	ldr	x0, [sp, #24]
	ldr	x1, [sp, #16]
	bl	use_indirect_va_list_several_hva_4_short_vector_16_bytes
	str	w0, [sp, #12]
	ldr	w0, [sp, #12]
	.seh_startepilogue
	ldr	x30, [sp, #32]                  // 8-byte Folded Reload
	.seh_save_reg	x30, 32
	add	sp, sp, #112
	.seh_stackalloc	112
	.seh_endepilogue
	ret
	.seh_endfunclet
	.seh_endproc
                                        // -- End function
	.def	test_va_list_many_hva_4_short_vector_16_bytes;
	.scl	2;
	.type	32;
	.endef
	.globl	test_va_list_many_hva_4_short_vector_16_bytes // -- Begin function test_va_list_many_hva_4_short_vector_16_bytes
	.p2align	2
test_va_list_many_hva_4_short_vector_16_bytes: // @test_va_list_many_hva_4_short_vector_16_bytes
.seh_proc test_va_list_many_hva_4_short_vector_16_bytes
// %bb.0:
	sub	sp, sp, #112
	.seh_stackalloc	112
	str	x30, [sp, #32]                  // 8-byte Folded Spill
	.seh_save_reg	x30, 32
	.seh_endprologue
	str	x7, [sp, #104]
	str	x6, [sp, #96]
	str	x5, [sp, #88]
	str	x4, [sp, #80]
	str	x3, [sp, #72]
	str	x2, [sp, #64]
	str	x1, [sp, #56]
	str	x0, [sp, #24]
	add	x8, sp, #56
	str	x8, [sp, #16]
	ldr	x8, [sp, #24]
	ldr	x1, [sp, #16]
	adrp	x0, .L.str.53
	add	x0, x0, :lo12:.L.str.53
	str	x0, [sp]                        // 8-byte Folded Spill
	blr	x8
	ldr	x1, [sp]                        // 8-byte Folded Reload
	str	w0, [sp, #12]
	ldr	w2, [sp, #12]
	adrp	x0, .L.str.1
	add	x0, x0, :lo12:.L.str.1
	bl	__mingw_printf
	ldr	w0, [sp, #12]
	.seh_startepilogue
	ldr	x30, [sp, #32]                  // 8-byte Folded Reload
	.seh_save_reg	x30, 32
	add	sp, sp, #112
	.seh_stackalloc	112
	.seh_endepilogue
	ret
	.seh_endfunclet
	.seh_endproc
                                        // -- End function
	.def	use_indirect_va_list_many_hva_4_short_vector_16_bytes;
	.scl	2;
	.type	32;
	.endef
	.globl	use_indirect_va_list_many_hva_4_short_vector_16_bytes // -- Begin function use_indirect_va_list_many_hva_4_short_vector_16_bytes
	.p2align	2
use_indirect_va_list_many_hva_4_short_vector_16_bytes: // @use_indirect_va_list_many_hva_4_short_vector_16_bytes
.seh_proc use_indirect_va_list_many_hva_4_short_vector_16_bytes
// %bb.0:
	sub	sp, sp, #48
	.seh_stackalloc	48
	str	x30, [sp, #32]                  // 8-byte Folded Spill
	.seh_save_reg	x30, 32
	.seh_endprologue
	str	x0, [sp, #24]
	str	x1, [sp, #16]
	ldr	x8, [sp, #24]
	ldr	x1, [sp, #16]
	adrp	x0, .L.str.53
	add	x0, x0, :lo12:.L.str.53
	str	x0, [sp]                        // 8-byte Folded Spill
	blr	x8
	ldr	x1, [sp]                        // 8-byte Folded Reload
	str	w0, [sp, #12]
	ldr	w2, [sp, #12]
	adrp	x0, .L.str.2
	add	x0, x0, :lo12:.L.str.2
	bl	__mingw_printf
	ldr	w0, [sp, #12]
	.seh_startepilogue
	ldr	x30, [sp, #32]                  // 8-byte Folded Reload
	.seh_save_reg	x30, 32
	add	sp, sp, #48
	.seh_stackalloc	48
	.seh_endepilogue
	ret
	.seh_endfunclet
	.seh_endproc
                                        // -- End function
	.def	test_indirect_va_list_many_hva_4_short_vector_16_bytes;
	.scl	2;
	.type	32;
	.endef
	.globl	test_indirect_va_list_many_hva_4_short_vector_16_bytes // -- Begin function test_indirect_va_list_many_hva_4_short_vector_16_bytes
	.p2align	2
test_indirect_va_list_many_hva_4_short_vector_16_bytes: // @test_indirect_va_list_many_hva_4_short_vector_16_bytes
.seh_proc test_indirect_va_list_many_hva_4_short_vector_16_bytes
// %bb.0:
	sub	sp, sp, #112
	.seh_stackalloc	112
	str	x30, [sp, #32]                  // 8-byte Folded Spill
	.seh_save_reg	x30, 32
	.seh_endprologue
	str	x7, [sp, #104]
	str	x6, [sp, #96]
	str	x5, [sp, #88]
	str	x4, [sp, #80]
	str	x3, [sp, #72]
	str	x2, [sp, #64]
	str	x1, [sp, #56]
	str	x0, [sp, #24]
	add	x8, sp, #56
	str	x8, [sp, #16]
	ldr	x0, [sp, #24]
	ldr	x1, [sp, #16]
	bl	use_indirect_va_list_many_hva_4_short_vector_16_bytes
	str	w0, [sp, #12]
	ldr	w0, [sp, #12]
	.seh_startepilogue
	ldr	x30, [sp, #32]                  // 8-byte Folded Reload
	.seh_save_reg	x30, 32
	add	sp, sp, #112
	.seh_stackalloc	112
	.seh_endepilogue
	ret
	.seh_endfunclet
	.seh_endproc
                                        // -- End function
	.def	test_va_list_ints_and_composites;
	.scl	2;
	.type	32;
	.endef
	.globl	test_va_list_ints_and_composites // -- Begin function test_va_list_ints_and_composites
	.p2align	2
test_va_list_ints_and_composites:       // @test_va_list_ints_and_composites
.seh_proc test_va_list_ints_and_composites
// %bb.0:
	sub	sp, sp, #112
	.seh_stackalloc	112
	str	x30, [sp, #32]                  // 8-byte Folded Spill
	.seh_save_reg	x30, 32
	.seh_endprologue
	str	x7, [sp, #104]
	str	x6, [sp, #96]
	str	x5, [sp, #88]
	str	x4, [sp, #80]
	str	x3, [sp, #72]
	str	x2, [sp, #64]
	str	x1, [sp, #56]
	str	x0, [sp, #24]
	add	x8, sp, #56
	str	x8, [sp, #16]
	ldr	x8, [sp, #24]
	ldr	x1, [sp, #16]
	adrp	x0, .L.str.54
	add	x0, x0, :lo12:.L.str.54
	str	x0, [sp]                        // 8-byte Folded Spill
	blr	x8
	ldr	x1, [sp]                        // 8-byte Folded Reload
	str	w0, [sp, #12]
	ldr	w2, [sp, #12]
	adrp	x0, .L.str.1
	add	x0, x0, :lo12:.L.str.1
	bl	__mingw_printf
	ldr	w0, [sp, #12]
	.seh_startepilogue
	ldr	x30, [sp, #32]                  // 8-byte Folded Reload
	.seh_save_reg	x30, 32
	add	sp, sp, #112
	.seh_stackalloc	112
	.seh_endepilogue
	ret
	.seh_endfunclet
	.seh_endproc
                                        // -- End function
	.def	use_indirect_va_list_ints_and_composites;
	.scl	2;
	.type	32;
	.endef
	.globl	use_indirect_va_list_ints_and_composites // -- Begin function use_indirect_va_list_ints_and_composites
	.p2align	2
use_indirect_va_list_ints_and_composites: // @use_indirect_va_list_ints_and_composites
.seh_proc use_indirect_va_list_ints_and_composites
// %bb.0:
	sub	sp, sp, #48
	.seh_stackalloc	48
	str	x30, [sp, #32]                  // 8-byte Folded Spill
	.seh_save_reg	x30, 32
	.seh_endprologue
	str	x0, [sp, #24]
	str	x1, [sp, #16]
	ldr	x8, [sp, #24]
	ldr	x1, [sp, #16]
	adrp	x0, .L.str.54
	add	x0, x0, :lo12:.L.str.54
	str	x0, [sp]                        // 8-byte Folded Spill
	blr	x8
	ldr	x1, [sp]                        // 8-byte Folded Reload
	str	w0, [sp, #12]
	ldr	w2, [sp, #12]
	adrp	x0, .L.str.2
	add	x0, x0, :lo12:.L.str.2
	bl	__mingw_printf
	ldr	w0, [sp, #12]
	.seh_startepilogue
	ldr	x30, [sp, #32]                  // 8-byte Folded Reload
	.seh_save_reg	x30, 32
	add	sp, sp, #48
	.seh_stackalloc	48
	.seh_endepilogue
	ret
	.seh_endfunclet
	.seh_endproc
                                        // -- End function
	.def	test_indirect_va_list_ints_and_composites;
	.scl	2;
	.type	32;
	.endef
	.globl	test_indirect_va_list_ints_and_composites // -- Begin function test_indirect_va_list_ints_and_composites
	.p2align	2
test_indirect_va_list_ints_and_composites: // @test_indirect_va_list_ints_and_composites
.seh_proc test_indirect_va_list_ints_and_composites
// %bb.0:
	sub	sp, sp, #112
	.seh_stackalloc	112
	str	x30, [sp, #32]                  // 8-byte Folded Spill
	.seh_save_reg	x30, 32
	.seh_endprologue
	str	x7, [sp, #104]
	str	x6, [sp, #96]
	str	x5, [sp, #88]
	str	x4, [sp, #80]
	str	x3, [sp, #72]
	str	x2, [sp, #64]
	str	x1, [sp, #56]
	str	x0, [sp, #24]
	add	x8, sp, #56
	str	x8, [sp, #16]
	ldr	x0, [sp, #24]
	ldr	x1, [sp, #16]
	bl	use_indirect_va_list_ints_and_composites
	str	w0, [sp, #12]
	ldr	w0, [sp, #12]
	.seh_startepilogue
	ldr	x30, [sp, #32]                  // 8-byte Folded Reload
	.seh_save_reg	x30, 32
	add	sp, sp, #112
	.seh_stackalloc	112
	.seh_endepilogue
	ret
	.seh_endfunclet
	.seh_endproc
                                        // -- End function
	.def	test_va_list_ints_and_floats;
	.scl	2;
	.type	32;
	.endef
	.globl	test_va_list_ints_and_floats    // -- Begin function test_va_list_ints_and_floats
	.p2align	2
test_va_list_ints_and_floats:           // @test_va_list_ints_and_floats
.seh_proc test_va_list_ints_and_floats
// %bb.0:
	sub	sp, sp, #112
	.seh_stackalloc	112
	str	x30, [sp, #32]                  // 8-byte Folded Spill
	.seh_save_reg	x30, 32
	.seh_endprologue
	str	x7, [sp, #104]
	str	x6, [sp, #96]
	str	x5, [sp, #88]
	str	x4, [sp, #80]
	str	x3, [sp, #72]
	str	x2, [sp, #64]
	str	x1, [sp, #56]
	str	x0, [sp, #24]
	add	x8, sp, #56
	str	x8, [sp, #16]
	ldr	x8, [sp, #24]
	ldr	x1, [sp, #16]
	adrp	x0, .L.str.55
	add	x0, x0, :lo12:.L.str.55
	str	x0, [sp]                        // 8-byte Folded Spill
	blr	x8
	ldr	x1, [sp]                        // 8-byte Folded Reload
	str	w0, [sp, #12]
	ldr	w2, [sp, #12]
	adrp	x0, .L.str.1
	add	x0, x0, :lo12:.L.str.1
	bl	__mingw_printf
	ldr	w0, [sp, #12]
	.seh_startepilogue
	ldr	x30, [sp, #32]                  // 8-byte Folded Reload
	.seh_save_reg	x30, 32
	add	sp, sp, #112
	.seh_stackalloc	112
	.seh_endepilogue
	ret
	.seh_endfunclet
	.seh_endproc
                                        // -- End function
	.def	use_indirect_va_list_ints_and_floats;
	.scl	2;
	.type	32;
	.endef
	.globl	use_indirect_va_list_ints_and_floats // -- Begin function use_indirect_va_list_ints_and_floats
	.p2align	2
use_indirect_va_list_ints_and_floats:   // @use_indirect_va_list_ints_and_floats
.seh_proc use_indirect_va_list_ints_and_floats
// %bb.0:
	sub	sp, sp, #48
	.seh_stackalloc	48
	str	x30, [sp, #32]                  // 8-byte Folded Spill
	.seh_save_reg	x30, 32
	.seh_endprologue
	str	x0, [sp, #24]
	str	x1, [sp, #16]
	ldr	x8, [sp, #24]
	ldr	x1, [sp, #16]
	adrp	x0, .L.str.55
	add	x0, x0, :lo12:.L.str.55
	str	x0, [sp]                        // 8-byte Folded Spill
	blr	x8
	ldr	x1, [sp]                        // 8-byte Folded Reload
	str	w0, [sp, #12]
	ldr	w2, [sp, #12]
	adrp	x0, .L.str.2
	add	x0, x0, :lo12:.L.str.2
	bl	__mingw_printf
	ldr	w0, [sp, #12]
	.seh_startepilogue
	ldr	x30, [sp, #32]                  // 8-byte Folded Reload
	.seh_save_reg	x30, 32
	add	sp, sp, #48
	.seh_stackalloc	48
	.seh_endepilogue
	ret
	.seh_endfunclet
	.seh_endproc
                                        // -- End function
	.def	test_indirect_va_list_ints_and_floats;
	.scl	2;
	.type	32;
	.endef
	.globl	test_indirect_va_list_ints_and_floats // -- Begin function test_indirect_va_list_ints_and_floats
	.p2align	2
test_indirect_va_list_ints_and_floats:  // @test_indirect_va_list_ints_and_floats
.seh_proc test_indirect_va_list_ints_and_floats
// %bb.0:
	sub	sp, sp, #112
	.seh_stackalloc	112
	str	x30, [sp, #32]                  // 8-byte Folded Spill
	.seh_save_reg	x30, 32
	.seh_endprologue
	str	x7, [sp, #104]
	str	x6, [sp, #96]
	str	x5, [sp, #88]
	str	x4, [sp, #80]
	str	x3, [sp, #72]
	str	x2, [sp, #64]
	str	x1, [sp, #56]
	str	x0, [sp, #24]
	add	x8, sp, #56
	str	x8, [sp, #16]
	ldr	x0, [sp, #24]
	ldr	x1, [sp, #16]
	bl	use_indirect_va_list_ints_and_floats
	str	w0, [sp, #12]
	ldr	w0, [sp, #12]
	.seh_startepilogue
	ldr	x30, [sp, #32]                  // 8-byte Folded Reload
	.seh_save_reg	x30, 32
	add	sp, sp, #112
	.seh_stackalloc	112
	.seh_endepilogue
	ret
	.seh_endfunclet
	.seh_endproc
                                        // -- End function
	.def	test_va_list_ints_floats_and_composites;
	.scl	2;
	.type	32;
	.endef
	.globl	test_va_list_ints_floats_and_composites // -- Begin function test_va_list_ints_floats_and_composites
	.p2align	2
test_va_list_ints_floats_and_composites: // @test_va_list_ints_floats_and_composites
.seh_proc test_va_list_ints_floats_and_composites
// %bb.0:
	sub	sp, sp, #112
	.seh_stackalloc	112
	str	x30, [sp, #32]                  // 8-byte Folded Spill
	.seh_save_reg	x30, 32
	.seh_endprologue
	str	x7, [sp, #104]
	str	x6, [sp, #96]
	str	x5, [sp, #88]
	str	x4, [sp, #80]
	str	x3, [sp, #72]
	str	x2, [sp, #64]
	str	x1, [sp, #56]
	str	x0, [sp, #24]
	add	x8, sp, #56
	str	x8, [sp, #16]
	ldr	x8, [sp, #24]
	ldr	x1, [sp, #16]
	adrp	x0, .L.str.56
	add	x0, x0, :lo12:.L.str.56
	str	x0, [sp]                        // 8-byte Folded Spill
	blr	x8
	ldr	x1, [sp]                        // 8-byte Folded Reload
	str	w0, [sp, #12]
	ldr	w2, [sp, #12]
	adrp	x0, .L.str.1
	add	x0, x0, :lo12:.L.str.1
	bl	__mingw_printf
	ldr	w0, [sp, #12]
	.seh_startepilogue
	ldr	x30, [sp, #32]                  // 8-byte Folded Reload
	.seh_save_reg	x30, 32
	add	sp, sp, #112
	.seh_stackalloc	112
	.seh_endepilogue
	ret
	.seh_endfunclet
	.seh_endproc
                                        // -- End function
	.def	use_indirect_va_list_ints_floats_and_composites;
	.scl	2;
	.type	32;
	.endef
	.globl	use_indirect_va_list_ints_floats_and_composites // -- Begin function use_indirect_va_list_ints_floats_and_composites
	.p2align	2
use_indirect_va_list_ints_floats_and_composites: // @use_indirect_va_list_ints_floats_and_composites
.seh_proc use_indirect_va_list_ints_floats_and_composites
// %bb.0:
	sub	sp, sp, #48
	.seh_stackalloc	48
	str	x30, [sp, #32]                  // 8-byte Folded Spill
	.seh_save_reg	x30, 32
	.seh_endprologue
	str	x0, [sp, #24]
	str	x1, [sp, #16]
	ldr	x8, [sp, #24]
	ldr	x1, [sp, #16]
	adrp	x0, .L.str.56
	add	x0, x0, :lo12:.L.str.56
	str	x0, [sp]                        // 8-byte Folded Spill
	blr	x8
	ldr	x1, [sp]                        // 8-byte Folded Reload
	str	w0, [sp, #12]
	ldr	w2, [sp, #12]
	adrp	x0, .L.str.2
	add	x0, x0, :lo12:.L.str.2
	bl	__mingw_printf
	ldr	w0, [sp, #12]
	.seh_startepilogue
	ldr	x30, [sp, #32]                  // 8-byte Folded Reload
	.seh_save_reg	x30, 32
	add	sp, sp, #48
	.seh_stackalloc	48
	.seh_endepilogue
	ret
	.seh_endfunclet
	.seh_endproc
                                        // -- End function
	.def	test_indirect_va_list_ints_floats_and_composites;
	.scl	2;
	.type	32;
	.endef
	.globl	test_indirect_va_list_ints_floats_and_composites // -- Begin function test_indirect_va_list_ints_floats_and_composites
	.p2align	2
test_indirect_va_list_ints_floats_and_composites: // @test_indirect_va_list_ints_floats_and_composites
.seh_proc test_indirect_va_list_ints_floats_and_composites
// %bb.0:
	sub	sp, sp, #112
	.seh_stackalloc	112
	str	x30, [sp, #32]                  // 8-byte Folded Spill
	.seh_save_reg	x30, 32
	.seh_endprologue
	str	x7, [sp, #104]
	str	x6, [sp, #96]
	str	x5, [sp, #88]
	str	x4, [sp, #80]
	str	x3, [sp, #72]
	str	x2, [sp, #64]
	str	x1, [sp, #56]
	str	x0, [sp, #24]
	add	x8, sp, #56
	str	x8, [sp, #16]
	ldr	x0, [sp, #24]
	ldr	x1, [sp, #16]
	bl	use_indirect_va_list_ints_floats_and_composites
	str	w0, [sp, #12]
	ldr	w0, [sp, #12]
	.seh_startepilogue
	ldr	x30, [sp, #32]                  // 8-byte Folded Reload
	.seh_save_reg	x30, 32
	add	sp, sp, #112
	.seh_stackalloc	112
	.seh_endepilogue
	ret
	.seh_endfunclet
	.seh_endproc
                                        // -- End function
	.def	main;
	.scl	2;
	.type	32;
	.endef
	.globl	main                            // -- Begin function main
	.p2align	2
main:                                   // @main
.seh_proc main
// %bb.0:
	stp	x29, x30, [sp, #-16]!           // 16-byte Folded Spill
	.seh_save_fplr_x	16
	mov	x15, #427
	.seh_nop
	bl	__chkstk
	.seh_nop
	sub	sp, sp, x15, lsl #4
	.seh_stackalloc	6832
	.seh_endprologue
	mov	w8, wzr
	str	w8, [sp, #500]                  // 4-byte Folded Spill
	str	w8, [sp, #6828]
	str	w0, [sp, #6824]
	str	x1, [sp, #6816]
	mov	x8, sp
	mov	w9, #64
                                        // kill: def $x9 killed $w9
	str	x9, [x8, #24]
	str	x9, [x8, #16]
	mov	w9, #32
	mov	w6, w9
	str	x6, [x8, #8]
	str	x6, [x8]
	adrp	x0, .L.str.62
	add	x0, x0, :lo12:.L.str.62
	mov	w8, #8
	mov	w3, w8
	mov	w8, #16
	mov	w7, w8
	mov	x1, x3
	mov	x2, x7
	mov	x4, x7
	mov	x5, x7
	bl	__mingw_printf
	ldr	w8, [sp, #500]                  // 4-byte Folded Reload
	str	w8, [sp, #6812]
	adrp	x0, .L.str
	add	x0, x0, :lo12:.L.str
	str	x0, [sp, #504]                  // 8-byte Folded Spill
	adrp	x8, __imp_use_va_args_no_arguments
	ldr	x8, [x8, :lo12:__imp_use_va_args_no_arguments]
	blr	x8
	ldr	x1, [sp, #504]                  // 8-byte Folded Reload
	str	w0, [sp, #6808]
	ldr	w2, [sp, #6808]
	adrp	x0, .L.str.63
	add	x0, x0, :lo12:.L.str.63
	bl	__mingw_printf
	ldr	w8, [sp, #6808]
	subs	w8, w8, #165
	b.eq	.LBB167_2
	b	.LBB167_1
.LBB167_1:
	ldr	w8, [sp, #6812]
	add	w8, w8, #1
	str	w8, [sp, #6812]
	ldr	w2, [sp, #6808]
	adrp	x0, .L.str.64
	add	x0, x0, :lo12:.L.str.64
	mov	w1, #165
	bl	__mingw_printf
	b	.LBB167_2
.LBB167_2:
	adrp	x0, .L.str.3
	add	x0, x0, :lo12:.L.str.3
	str	x0, [sp, #488]                  // 8-byte Folded Spill
	adrp	x8, __imp_use_va_args_few_longs
	ldr	x8, [x8, :lo12:__imp_use_va_args_few_longs]
	mov	w1, #100
	mov	w2, #42
	blr	x8
	ldr	x1, [sp, #488]                  // 8-byte Folded Reload
	str	w0, [sp, #6804]
	ldr	w2, [sp, #6804]
	adrp	x0, .L.str.63
	add	x0, x0, :lo12:.L.str.63
	bl	__mingw_printf
	ldr	w8, [sp, #6804]
	subs	w8, w8, #142
	b.eq	.LBB167_4
	b	.LBB167_3
.LBB167_3:
	ldr	w8, [sp, #6812]
	add	w8, w8, #1
	str	w8, [sp, #6812]
	ldr	w2, [sp, #6804]
	adrp	x0, .L.str.64
	add	x0, x0, :lo12:.L.str.64
	mov	w1, #142
	bl	__mingw_printf
	b	.LBB167_4
.LBB167_4:
	mov	x9, sp
	mov	w8, #55
	str	w8, [x9, #8]
	mov	w8, #34
	str	w8, [x9]
	adrp	x0, .L.str.4
	add	x0, x0, :lo12:.L.str.4
	str	x0, [sp, #480]                  // 8-byte Folded Spill
	adrp	x8, __imp_use_va_args_several_longs
	ldr	x8, [x8, :lo12:__imp_use_va_args_several_longs]
	mov	w1, #1
	mov	w2, #2
	mov	w3, #3
	mov	w4, #5
	mov	w5, #8
	mov	w6, #13
	mov	w7, #21
	blr	x8
	ldr	x1, [sp, #480]                  // 8-byte Folded Reload
	str	w0, [sp, #6800]
	ldr	w2, [sp, #6800]
	adrp	x0, .L.str.63
	add	x0, x0, :lo12:.L.str.63
	bl	__mingw_printf
	ldr	w8, [sp, #6800]
	subs	w8, w8, #142
	b.eq	.LBB167_6
	b	.LBB167_5
.LBB167_5:
	ldr	w8, [sp, #6812]
	add	w8, w8, #1
	str	w8, [sp, #6812]
	ldr	w2, [sp, #6800]
	adrp	x0, .L.str.64
	add	x0, x0, :lo12:.L.str.64
	mov	w1, #142
	bl	__mingw_printf
	b	.LBB167_6
.LBB167_6:
	mov	x9, sp
	str	x9, [sp, #464]                  // 8-byte Folded Spill
	mov	w8, #2584
	str	w8, [x9, #72]
	mov	w8, #1597
	str	w8, [x9, #64]
	mov	w8, #987
	str	w8, [x9, #56]
	mov	w8, #610
	str	w8, [x9, #48]
	mov	w8, #377
	str	w8, [x9, #40]
	mov	w8, #233
	str	w8, [x9, #32]
	mov	w8, #144
	str	w8, [x9, #24]
	mov	w8, #89
	str	w8, [x9, #16]
	mov	w8, #55
	str	w8, [x9, #8]
	mov	w8, #34
	str	w8, [x9]
	adrp	x0, .L.str.5
	add	x0, x0, :lo12:.L.str.5
	str	x0, [sp, #472]                  // 8-byte Folded Spill
	adrp	x8, __imp_use_va_args_many_longs
	ldr	x8, [x8, :lo12:__imp_use_va_args_many_longs]
	mov	w1, #1
	mov	w2, #2
	mov	w3, #3
	mov	w4, #5
	mov	w5, #8
	mov	w6, #13
	mov	w7, #21
	blr	x8
	ldr	x1, [sp, #472]                  // 8-byte Folded Reload
	str	w0, [sp, #6796]
	ldr	w2, [sp, #6796]
	adrp	x0, .L.str.63
	add	x0, x0, :lo12:.L.str.63
	bl	__mingw_printf
	ldr	w8, [sp, #6796]
	mov	w9, #6763
	subs	w8, w8, w9
	b.eq	.LBB167_8
	b	.LBB167_7
.LBB167_7:
	ldr	w8, [sp, #6812]
	add	w8, w8, #1
	str	w8, [sp, #6812]
	ldr	w2, [sp, #6796]
	adrp	x0, .L.str.64
	add	x0, x0, :lo12:.L.str.64
	mov	w1, #6763
	bl	__mingw_printf
	b	.LBB167_8
.LBB167_8:
	adrp	x0, .L.str.6
	add	x0, x0, :lo12:.L.str.6
	str	x0, [sp, #456]                  // 8-byte Folded Spill
	adrp	x8, __imp_use_va_args_few_ints
	ldr	x8, [x8, :lo12:__imp_use_va_args_few_ints]
	mov	w1, #100
	mov	w2, #42
	blr	x8
	ldr	x1, [sp, #456]                  // 8-byte Folded Reload
	str	w0, [sp, #6792]
	ldr	w2, [sp, #6792]
	adrp	x0, .L.str.63
	add	x0, x0, :lo12:.L.str.63
	bl	__mingw_printf
	ldr	w8, [sp, #6792]
	subs	w8, w8, #142
	b.eq	.LBB167_10
	b	.LBB167_9
.LBB167_9:
	ldr	w8, [sp, #6812]
	add	w8, w8, #1
	str	w8, [sp, #6812]
	ldr	w2, [sp, #6792]
	adrp	x0, .L.str.64
	add	x0, x0, :lo12:.L.str.64
	mov	w1, #142
	bl	__mingw_printf
	b	.LBB167_10
.LBB167_10:
	mov	x9, sp
	mov	w8, #55
	str	w8, [x9, #8]
	mov	w8, #34
	str	w8, [x9]
	adrp	x0, .L.str.7
	add	x0, x0, :lo12:.L.str.7
	str	x0, [sp, #448]                  // 8-byte Folded Spill
	adrp	x8, __imp_use_va_args_several_ints
	ldr	x8, [x8, :lo12:__imp_use_va_args_several_ints]
	mov	w1, #1
	mov	w2, #2
	mov	w3, #3
	mov	w4, #5
	mov	w5, #8
	mov	w6, #13
	mov	w7, #21
	blr	x8
	ldr	x1, [sp, #448]                  // 8-byte Folded Reload
	str	w0, [sp, #6788]
	ldr	w2, [sp, #6788]
	adrp	x0, .L.str.63
	add	x0, x0, :lo12:.L.str.63
	bl	__mingw_printf
	ldr	w8, [sp, #6788]
	subs	w8, w8, #142
	b.eq	.LBB167_12
	b	.LBB167_11
.LBB167_11:
	ldr	w8, [sp, #6812]
	add	w8, w8, #1
	str	w8, [sp, #6812]
	ldr	w2, [sp, #6788]
	adrp	x0, .L.str.64
	add	x0, x0, :lo12:.L.str.64
	mov	w1, #142
	bl	__mingw_printf
	b	.LBB167_12
.LBB167_12:
	mov	x9, sp
	str	x9, [sp, #432]                  // 8-byte Folded Spill
	mov	w8, #2584
	str	w8, [x9, #72]
	mov	w8, #1597
	str	w8, [x9, #64]
	mov	w8, #987
	str	w8, [x9, #56]
	mov	w8, #610
	str	w8, [x9, #48]
	mov	w8, #377
	str	w8, [x9, #40]
	mov	w8, #233
	str	w8, [x9, #32]
	mov	w8, #144
	str	w8, [x9, #24]
	mov	w8, #89
	str	w8, [x9, #16]
	mov	w8, #55
	str	w8, [x9, #8]
	mov	w8, #34
	str	w8, [x9]
	adrp	x0, .L.str.8
	add	x0, x0, :lo12:.L.str.8
	str	x0, [sp, #440]                  // 8-byte Folded Spill
	adrp	x8, __imp_use_va_args_many_ints
	ldr	x8, [x8, :lo12:__imp_use_va_args_many_ints]
	mov	w1, #1
	mov	w2, #2
	mov	w3, #3
	mov	w4, #5
	mov	w5, #8
	mov	w6, #13
	mov	w7, #21
	blr	x8
	ldr	x1, [sp, #440]                  // 8-byte Folded Reload
	str	w0, [sp, #6784]
	ldr	w2, [sp, #6784]
	adrp	x0, .L.str.63
	add	x0, x0, :lo12:.L.str.63
	bl	__mingw_printf
	ldr	w8, [sp, #6784]
	mov	w9, #6763
	subs	w8, w8, w9
	b.eq	.LBB167_14
	b	.LBB167_13
.LBB167_13:
	ldr	w8, [sp, #6812]
	add	w8, w8, #1
	str	w8, [sp, #6812]
	ldr	w2, [sp, #6784]
	adrp	x0, .L.str.64
	add	x0, x0, :lo12:.L.str.64
	mov	w1, #6763
	bl	__mingw_printf
	b	.LBB167_14
.LBB167_14:
	adrp	x0, .L.str.9
	add	x0, x0, :lo12:.L.str.9
	str	x0, [sp, #424]                  // 8-byte Folded Spill
	adrp	x8, __imp_use_va_args_few_doubles
	ldr	x8, [x8, :lo12:__imp_use_va_args_few_doubles]
	mov	x1, #4636737291354636288
	mov	x2, #4631107791820423168
	blr	x8
	ldr	x1, [sp, #424]                  // 8-byte Folded Reload
	str	w0, [sp, #6780]
	ldr	w2, [sp, #6780]
	adrp	x0, .L.str.63
	add	x0, x0, :lo12:.L.str.63
	bl	__mingw_printf
	ldr	w8, [sp, #6780]
	subs	w8, w8, #142
	b.eq	.LBB167_16
	b	.LBB167_15
.LBB167_15:
	ldr	w8, [sp, #6812]
	add	w8, w8, #1
	str	w8, [sp, #6812]
	ldr	w2, [sp, #6780]
	adrp	x0, .L.str.64
	add	x0, x0, :lo12:.L.str.64
	mov	w1, #142
	bl	__mingw_printf
	b	.LBB167_16
.LBB167_16:
	mov	x9, sp
	mov	x8, #140737488355328
	movk	x8, #16459, lsl #48
	str	x8, [x9, #8]
	mov	x8, #4629981891913580544
	str	x8, [x9]
	adrp	x0, .L.str.10
	add	x0, x0, :lo12:.L.str.10
	str	x0, [sp, #416]                  // 8-byte Folded Spill
	adrp	x8, __imp_use_va_args_several_doubles
	ldr	x8, [x8, :lo12:__imp_use_va_args_several_doubles]
	mov	x1, #4607182418800017408
	mov	x2, #4611686018427387904
	mov	x3, #4613937818241073152
	mov	x4, #4617315517961601024
	mov	x5, #4620693217682128896
	mov	x6, #4623507967449235456
	mov	x7, #4626604192193052672
	blr	x8
	ldr	x1, [sp, #416]                  // 8-byte Folded Reload
	str	w0, [sp, #6776]
	ldr	w2, [sp, #6776]
	adrp	x0, .L.str.63
	add	x0, x0, :lo12:.L.str.63
	bl	__mingw_printf
	ldr	w8, [sp, #6776]
	subs	w8, w8, #142
	b.eq	.LBB167_18
	b	.LBB167_17
.LBB167_17:
	ldr	w8, [sp, #6812]
	add	w8, w8, #1
	str	w8, [sp, #6812]
	ldr	w2, [sp, #6776]
	adrp	x0, .L.str.64
	add	x0, x0, :lo12:.L.str.64
	mov	w1, #142
	bl	__mingw_printf
	b	.LBB167_18
.LBB167_18:
	mov	x9, sp
	str	x9, [sp, #400]                  // 8-byte Folded Spill
	mov	x8, #52776558133248
	movk	x8, #16548, lsl #48
	str	x8, [x9, #72]
	mov	x8, #268280837177344
	movk	x8, #16536, lsl #48
	str	x8, [x9, #64]
	mov	x8, #237494511599616
	movk	x8, #16526, lsl #48
	str	x8, [x9, #56]
	mov	x8, #17592186044416
	movk	x8, #16515, lsl #48
	str	x8, [x9, #48]
	mov	x8, #158329674399744
	movk	x8, #16503, lsl #48
	str	x8, [x9, #40]
	mov	x8, #35184372088832
	movk	x8, #16493, lsl #48
	str	x8, [x9, #32]
	mov	x8, #4639270566145032192
	str	x8, [x9, #24]
	mov	x8, #70368744177664
	movk	x8, #16470, lsl #48
	str	x8, [x9, #16]
	mov	x8, #140737488355328
	movk	x8, #16459, lsl #48
	str	x8, [x9, #8]
	mov	x8, #4629981891913580544
	str	x8, [x9]
	adrp	x0, .L.str.11
	add	x0, x0, :lo12:.L.str.11
	str	x0, [sp, #408]                  // 8-byte Folded Spill
	adrp	x8, __imp_use_va_args_many_doubles
	ldr	x8, [x8, :lo12:__imp_use_va_args_many_doubles]
	mov	x1, #4607182418800017408
	mov	x2, #4611686018427387904
	mov	x3, #4613937818241073152
	mov	x4, #4617315517961601024
	mov	x5, #4620693217682128896
	mov	x6, #4623507967449235456
	mov	x7, #4626604192193052672
	blr	x8
	ldr	x1, [sp, #408]                  // 8-byte Folded Reload
	str	w0, [sp, #6772]
	ldr	w2, [sp, #6772]
	adrp	x0, .L.str.63
	add	x0, x0, :lo12:.L.str.63
	bl	__mingw_printf
	ldr	w8, [sp, #6772]
	mov	w9, #6763
	subs	w8, w8, w9
	b.eq	.LBB167_20
	b	.LBB167_19
.LBB167_19:
	ldr	w8, [sp, #6812]
	add	w8, w8, #1
	str	w8, [sp, #6812]
	ldr	w2, [sp, #6772]
	adrp	x0, .L.str.64
	add	x0, x0, :lo12:.L.str.64
	mov	w1, #6763
	bl	__mingw_printf
	b	.LBB167_20
.LBB167_20:
	adrp	x0, .L.str.12
	add	x0, x0, :lo12:.L.str.12
	str	x0, [sp, #392]                  // 8-byte Folded Spill
	adrp	x8, __imp_use_va_args_few_floats
	ldr	x8, [x8, :lo12:__imp_use_va_args_few_floats]
	mov	x1, #4636737291354636288
	mov	x2, #4631107791820423168
	blr	x8
	ldr	x1, [sp, #392]                  // 8-byte Folded Reload
	str	w0, [sp, #6768]
	ldr	w2, [sp, #6768]
	adrp	x0, .L.str.63
	add	x0, x0, :lo12:.L.str.63
	bl	__mingw_printf
	ldr	w8, [sp, #6768]
	subs	w8, w8, #142
	b.eq	.LBB167_22
	b	.LBB167_21
.LBB167_21:
	ldr	w8, [sp, #6812]
	add	w8, w8, #1
	str	w8, [sp, #6812]
	ldr	w2, [sp, #6768]
	adrp	x0, .L.str.64
	add	x0, x0, :lo12:.L.str.64
	mov	w1, #142
	bl	__mingw_printf
	b	.LBB167_22
.LBB167_22:
	mov	x9, sp
	mov	x8, #140737488355328
	movk	x8, #16459, lsl #48
	str	x8, [x9, #8]
	mov	x8, #4629981891913580544
	str	x8, [x9]
	adrp	x0, .L.str.13
	add	x0, x0, :lo12:.L.str.13
	str	x0, [sp, #384]                  // 8-byte Folded Spill
	adrp	x8, __imp_use_va_args_several_floats
	ldr	x8, [x8, :lo12:__imp_use_va_args_several_floats]
	mov	x1, #4607182418800017408
	mov	x2, #4611686018427387904
	mov	x3, #4613937818241073152
	mov	x4, #4617315517961601024
	mov	x5, #4620693217682128896
	mov	x6, #4623507967449235456
	mov	x7, #4626604192193052672
	blr	x8
	ldr	x1, [sp, #384]                  // 8-byte Folded Reload
	str	w0, [sp, #6764]
	ldr	w2, [sp, #6764]
	adrp	x0, .L.str.63
	add	x0, x0, :lo12:.L.str.63
	bl	__mingw_printf
	ldr	w8, [sp, #6764]
	subs	w8, w8, #142
	b.eq	.LBB167_24
	b	.LBB167_23
.LBB167_23:
	ldr	w8, [sp, #6812]
	add	w8, w8, #1
	str	w8, [sp, #6812]
	ldr	w2, [sp, #6764]
	adrp	x0, .L.str.64
	add	x0, x0, :lo12:.L.str.64
	mov	w1, #142
	bl	__mingw_printf
	b	.LBB167_24
.LBB167_24:
	mov	x9, sp
	str	x9, [sp, #368]                  // 8-byte Folded Spill
	mov	x8, #52776558133248
	movk	x8, #16548, lsl #48
	str	x8, [x9, #72]
	mov	x8, #268280837177344
	movk	x8, #16536, lsl #48
	str	x8, [x9, #64]
	mov	x8, #237494511599616
	movk	x8, #16526, lsl #48
	str	x8, [x9, #56]
	mov	x8, #17592186044416
	movk	x8, #16515, lsl #48
	str	x8, [x9, #48]
	mov	x8, #158329674399744
	movk	x8, #16503, lsl #48
	str	x8, [x9, #40]
	mov	x8, #35184372088832
	movk	x8, #16493, lsl #48
	str	x8, [x9, #32]
	mov	x8, #4639270566145032192
	str	x8, [x9, #24]
	mov	x8, #70368744177664
	movk	x8, #16470, lsl #48
	str	x8, [x9, #16]
	mov	x8, #140737488355328
	movk	x8, #16459, lsl #48
	str	x8, [x9, #8]
	mov	x8, #4629981891913580544
	str	x8, [x9]
	adrp	x0, .L.str.14
	add	x0, x0, :lo12:.L.str.14
	str	x0, [sp, #376]                  // 8-byte Folded Spill
	adrp	x8, __imp_use_va_args_many_floats
	ldr	x8, [x8, :lo12:__imp_use_va_args_many_floats]
	mov	x1, #4607182418800017408
	mov	x2, #4611686018427387904
	mov	x3, #4613937818241073152
	mov	x4, #4617315517961601024
	mov	x5, #4620693217682128896
	mov	x6, #4623507967449235456
	mov	x7, #4626604192193052672
	blr	x8
	ldr	x1, [sp, #376]                  // 8-byte Folded Reload
	str	w0, [sp, #6760]
	ldr	w2, [sp, #6760]
	adrp	x0, .L.str.63
	add	x0, x0, :lo12:.L.str.63
	bl	__mingw_printf
	ldr	w8, [sp, #6760]
	mov	w9, #6763
	subs	w8, w8, w9
	b.eq	.LBB167_26
	b	.LBB167_25
.LBB167_25:
	ldr	w8, [sp, #6812]
	add	w8, w8, #1
	str	w8, [sp, #6812]
	ldr	w2, [sp, #6760]
	adrp	x0, .L.str.64
	add	x0, x0, :lo12:.L.str.64
	mov	w1, #6763
	bl	__mingw_printf
	b	.LBB167_26
.LBB167_26:
	adrp	x8, a
	add	x8, x8, :lo12:a
	ldr	q0, [x8]
	ldr	q1, [x8, #16]
	ldr	q2, [x8, #32]
	ldr	q3, [x8, #48]
	str	q3, [sp, #6736]
	str	q2, [sp, #6720]
	str	q1, [sp, #6704]
	str	q0, [sp, #6688]
	adrp	x8, b
	add	x8, x8, :lo12:b
	ldr	q0, [x8]
	ldr	q1, [x8, #16]
	ldr	q2, [x8, #32]
	ldr	q3, [x8, #48]
	str	q3, [sp, #6672]
	str	q2, [sp, #6656]
	str	q1, [sp, #6640]
	str	q0, [sp, #6624]
	adrp	x0, .L.str.18
	add	x0, x0, :lo12:.L.str.18
	str	x0, [sp, #360]                  // 8-byte Folded Spill
	adrp	x8, __imp_use_va_args_few_composites
	ldr	x8, [x8, :lo12:__imp_use_va_args_few_composites]
	add	x1, sp, #1, lsl #12             // =4096
	add	x1, x1, #2592
	add	x2, sp, #1, lsl #12             // =4096
	add	x2, x2, #2528
	blr	x8
	ldr	x1, [sp, #360]                  // 8-byte Folded Reload
	str	w0, [sp, #6756]
	ldr	w2, [sp, #6756]
	adrp	x0, .L.str.63
	add	x0, x0, :lo12:.L.str.63
	bl	__mingw_printf
	ldr	w8, [sp, #6756]
	subs	w8, w8, #3
	b.eq	.LBB167_28
	b	.LBB167_27
.LBB167_27:
	ldr	w8, [sp, #6812]
	add	w8, w8, #1
	str	w8, [sp, #6812]
	ldr	w2, [sp, #6756]
	adrp	x0, .L.str.64
	add	x0, x0, :lo12:.L.str.64
	mov	w1, #3
	bl	__mingw_printf
	b	.LBB167_28
.LBB167_28:
	adrp	x8, a
	add	x8, x8, :lo12:a
	ldr	q0, [x8]
	ldr	q1, [x8, #16]
	ldr	q2, [x8, #32]
	ldr	q3, [x8, #48]
	str	q3, [sp, #6592]
	str	q2, [sp, #6576]
	str	q1, [sp, #6560]
	str	q0, [sp, #6544]
	adrp	x8, b
	add	x8, x8, :lo12:b
	ldr	q0, [x8]
	ldr	q1, [x8, #16]
	ldr	q2, [x8, #32]
	ldr	q3, [x8, #48]
	str	q3, [sp, #6528]
	str	q2, [sp, #6512]
	str	q1, [sp, #6496]
	str	q0, [sp, #6480]
	adrp	x8, c
	add	x8, x8, :lo12:c
	ldr	q0, [x8]
	ldr	q1, [x8, #16]
	ldr	q2, [x8, #32]
	ldr	q3, [x8, #48]
	str	q3, [sp, #6464]
	str	q2, [sp, #6448]
	str	q1, [sp, #6432]
	str	q0, [sp, #6416]
	adrp	x8, d
	add	x8, x8, :lo12:d
	ldr	q0, [x8]
	ldr	q1, [x8, #16]
	ldr	q2, [x8, #32]
	ldr	q3, [x8, #48]
	str	q3, [sp, #6400]
	str	q2, [sp, #6384]
	str	q1, [sp, #6368]
	str	q0, [sp, #6352]
	adrp	x8, e
	add	x8, x8, :lo12:e
	ldr	q0, [x8]
	ldr	q1, [x8, #16]
	ldr	q2, [x8, #32]
	ldr	q3, [x8, #48]
	str	q3, [sp, #6336]
	str	q2, [sp, #6320]
	str	q1, [sp, #6304]
	str	q0, [sp, #6288]
	adrp	x8, f
	add	x8, x8, :lo12:f
	ldr	q0, [x8]
	ldr	q1, [x8, #16]
	ldr	q2, [x8, #32]
	ldr	q3, [x8, #48]
	str	q3, [sp, #6272]
	str	q2, [sp, #6256]
	str	q1, [sp, #6240]
	str	q0, [sp, #6224]
	adrp	x8, g
	add	x8, x8, :lo12:g
	ldr	q0, [x8]
	ldr	q1, [x8, #16]
	ldr	q2, [x8, #32]
	ldr	q3, [x8, #48]
	str	q3, [sp, #6208]
	str	q2, [sp, #6192]
	str	q1, [sp, #6176]
	str	q0, [sp, #6160]
	adrp	x8, h
	add	x8, x8, :lo12:h
	ldr	q0, [x8]
	ldr	q1, [x8, #16]
	ldr	q2, [x8, #32]
	ldr	q3, [x8, #48]
	str	q3, [sp, #6144]
	str	q2, [sp, #6128]
	str	q1, [sp, #6112]
	str	q0, [sp, #6096]
	adrp	x8, i
	add	x8, x8, :lo12:i
	ldr	q0, [x8]
	ldr	q1, [x8, #16]
	ldr	q2, [x8, #32]
	ldr	q3, [x8, #48]
	str	q3, [sp, #6080]
	str	q2, [sp, #6064]
	str	q1, [sp, #6048]
	str	q0, [sp, #6032]
	mov	x9, sp
	add	x8, sp, #1, lsl #12             // =4096
	add	x8, x8, #1936
	str	x8, [x9, #8]
	add	x8, sp, #1, lsl #12             // =4096
	add	x8, x8, #2000
	str	x8, [x9]
	adrp	x0, .L.str.19
	add	x0, x0, :lo12:.L.str.19
	str	x0, [sp, #352]                  // 8-byte Folded Spill
	adrp	x8, __imp_use_va_args_several_composites
	ldr	x8, [x8, :lo12:__imp_use_va_args_several_composites]
	add	x1, sp, #1, lsl #12             // =4096
	add	x1, x1, #2448
	add	x2, sp, #1, lsl #12             // =4096
	add	x2, x2, #2384
	add	x3, sp, #1, lsl #12             // =4096
	add	x3, x3, #2320
	add	x4, sp, #1, lsl #12             // =4096
	add	x4, x4, #2256
	add	x5, sp, #1, lsl #12             // =4096
	add	x5, x5, #2192
	add	x6, sp, #1, lsl #12             // =4096
	add	x6, x6, #2128
	add	x7, sp, #1, lsl #12             // =4096
	add	x7, x7, #2064
	blr	x8
	ldr	x1, [sp, #352]                  // 8-byte Folded Reload
	str	w0, [sp, #6620]
	ldr	w2, [sp, #6620]
	adrp	x0, .L.str.63
	add	x0, x0, :lo12:.L.str.63
	bl	__mingw_printf
	ldr	w8, [sp, #6620]
	subs	w8, w8, #142
	b.eq	.LBB167_30
	b	.LBB167_29
.LBB167_29:
	ldr	w8, [sp, #6812]
	add	w8, w8, #1
	str	w8, [sp, #6812]
	ldr	w2, [sp, #6620]
	adrp	x0, .L.str.64
	add	x0, x0, :lo12:.L.str.64
	mov	w1, #142
	bl	__mingw_printf
	b	.LBB167_30
.LBB167_30:
	adrp	x8, a
	add	x8, x8, :lo12:a
	ldr	q0, [x8]
	ldr	q1, [x8, #16]
	ldr	q2, [x8, #32]
	ldr	q3, [x8, #48]
	str	q3, [sp, #6000]
	str	q2, [sp, #5984]
	str	q1, [sp, #5968]
	str	q0, [sp, #5952]
	adrp	x8, b
	add	x8, x8, :lo12:b
	ldr	q0, [x8]
	ldr	q1, [x8, #16]
	ldr	q2, [x8, #32]
	ldr	q3, [x8, #48]
	str	q3, [sp, #5936]
	str	q2, [sp, #5920]
	str	q1, [sp, #5904]
	str	q0, [sp, #5888]
	adrp	x8, c
	add	x8, x8, :lo12:c
	ldr	q0, [x8]
	ldr	q1, [x8, #16]
	ldr	q2, [x8, #32]
	ldr	q3, [x8, #48]
	str	q3, [sp, #5872]
	str	q2, [sp, #5856]
	str	q1, [sp, #5840]
	str	q0, [sp, #5824]
	adrp	x8, d
	add	x8, x8, :lo12:d
	ldr	q0, [x8]
	ldr	q1, [x8, #16]
	ldr	q2, [x8, #32]
	ldr	q3, [x8, #48]
	str	q3, [sp, #5808]
	str	q2, [sp, #5792]
	str	q1, [sp, #5776]
	str	q0, [sp, #5760]
	adrp	x8, e
	add	x8, x8, :lo12:e
	ldr	q0, [x8]
	ldr	q1, [x8, #16]
	ldr	q2, [x8, #32]
	ldr	q3, [x8, #48]
	str	q3, [sp, #5744]
	str	q2, [sp, #5728]
	str	q1, [sp, #5712]
	str	q0, [sp, #5696]
	adrp	x8, f
	add	x8, x8, :lo12:f
	ldr	q0, [x8]
	ldr	q1, [x8, #16]
	ldr	q2, [x8, #32]
	ldr	q3, [x8, #48]
	str	q3, [sp, #5680]
	str	q2, [sp, #5664]
	str	q1, [sp, #5648]
	str	q0, [sp, #5632]
	adrp	x8, g
	add	x8, x8, :lo12:g
	ldr	q0, [x8]
	ldr	q1, [x8, #16]
	ldr	q2, [x8, #32]
	ldr	q3, [x8, #48]
	str	q3, [sp, #5616]
	str	q2, [sp, #5600]
	str	q1, [sp, #5584]
	str	q0, [sp, #5568]
	adrp	x8, h
	add	x8, x8, :lo12:h
	ldr	q0, [x8]
	ldr	q1, [x8, #16]
	ldr	q2, [x8, #32]
	ldr	q3, [x8, #48]
	str	q3, [sp, #5552]
	str	q2, [sp, #5536]
	str	q1, [sp, #5520]
	str	q0, [sp, #5504]
	adrp	x8, i
	add	x8, x8, :lo12:i
	ldr	q0, [x8]
	ldr	q1, [x8, #16]
	ldr	q2, [x8, #32]
	ldr	q3, [x8, #48]
	str	q3, [sp, #5488]
	str	q2, [sp, #5472]
	str	q1, [sp, #5456]
	str	q0, [sp, #5440]
	adrp	x8, j
	add	x8, x8, :lo12:j
	ldr	q0, [x8]
	ldr	q1, [x8, #16]
	ldr	q2, [x8, #32]
	ldr	q3, [x8, #48]
	str	q3, [sp, #5424]
	str	q2, [sp, #5408]
	str	q1, [sp, #5392]
	str	q0, [sp, #5376]
	adrp	x8, k
	add	x8, x8, :lo12:k
	ldr	q0, [x8]
	ldr	q1, [x8, #16]
	ldr	q2, [x8, #32]
	ldr	q3, [x8, #48]
	str	q3, [sp, #5360]
	str	q2, [sp, #5344]
	str	q1, [sp, #5328]
	str	q0, [sp, #5312]
	adrp	x8, l
	add	x8, x8, :lo12:l
	ldr	q0, [x8]
	ldr	q1, [x8, #16]
	ldr	q2, [x8, #32]
	ldr	q3, [x8, #48]
	str	q3, [sp, #5296]
	str	q2, [sp, #5280]
	str	q1, [sp, #5264]
	str	q0, [sp, #5248]
	adrp	x8, m
	add	x8, x8, :lo12:m
	ldr	q0, [x8]
	ldr	q1, [x8, #16]
	ldr	q2, [x8, #32]
	ldr	q3, [x8, #48]
	str	q3, [sp, #5232]
	str	q2, [sp, #5216]
	str	q1, [sp, #5200]
	str	q0, [sp, #5184]
	adrp	x8, n
	add	x8, x8, :lo12:n
	ldr	q0, [x8]
	ldr	q1, [x8, #16]
	ldr	q2, [x8, #32]
	ldr	q3, [x8, #48]
	str	q3, [sp, #5168]
	str	q2, [sp, #5152]
	str	q1, [sp, #5136]
	str	q0, [sp, #5120]
	adrp	x8, o
	add	x8, x8, :lo12:o
	ldr	q0, [x8]
	ldr	q1, [x8, #16]
	ldr	q2, [x8, #32]
	ldr	q3, [x8, #48]
	str	q3, [sp, #5104]
	str	q2, [sp, #5088]
	str	q1, [sp, #5072]
	str	q0, [sp, #5056]
	adrp	x8, p
	add	x8, x8, :lo12:p
	ldr	q0, [x8]
	ldr	q1, [x8, #16]
	ldr	q2, [x8, #32]
	ldr	q3, [x8, #48]
	str	q3, [sp, #5040]
	str	q2, [sp, #5024]
	str	q1, [sp, #5008]
	str	q0, [sp, #4992]
	adrp	x8, q
	add	x8, x8, :lo12:q
	ldr	q0, [x8]
	ldr	q1, [x8, #16]
	ldr	q2, [x8, #32]
	ldr	q3, [x8, #48]
	str	q3, [sp, #4976]
	str	q2, [sp, #4960]
	str	q1, [sp, #4944]
	str	q0, [sp, #4928]
	mov	x9, sp
	str	x9, [sp, #336]                  // 8-byte Folded Spill
	add	x8, sp, #1, lsl #12             // =4096
	add	x8, x8, #832
	str	x8, [x9, #72]
	add	x8, sp, #1, lsl #12             // =4096
	add	x8, x8, #896
	str	x8, [x9, #64]
	add	x8, sp, #1, lsl #12             // =4096
	add	x8, x8, #960
	str	x8, [x9, #56]
	add	x8, sp, #1, lsl #12             // =4096
	add	x8, x8, #1024
	str	x8, [x9, #48]
	add	x8, sp, #1, lsl #12             // =4096
	add	x8, x8, #1088
	str	x8, [x9, #40]
	add	x8, sp, #1, lsl #12             // =4096
	add	x8, x8, #1152
	str	x8, [x9, #32]
	add	x8, sp, #1, lsl #12             // =4096
	add	x8, x8, #1216
	str	x8, [x9, #24]
	add	x8, sp, #1, lsl #12             // =4096
	add	x8, x8, #1280
	str	x8, [x9, #16]
	add	x8, sp, #1, lsl #12             // =4096
	add	x8, x8, #1344
	str	x8, [x9, #8]
	add	x8, sp, #1, lsl #12             // =4096
	add	x8, x8, #1408
	str	x8, [x9]
	adrp	x0, .L.str.20
	add	x0, x0, :lo12:.L.str.20
	str	x0, [sp, #344]                  // 8-byte Folded Spill
	adrp	x8, __imp_use_va_args_many_composites
	ldr	x8, [x8, :lo12:__imp_use_va_args_many_composites]
	add	x1, sp, #1, lsl #12             // =4096
	add	x1, x1, #1856
	add	x2, sp, #1, lsl #12             // =4096
	add	x2, x2, #1792
	add	x3, sp, #1, lsl #12             // =4096
	add	x3, x3, #1728
	add	x4, sp, #1, lsl #12             // =4096
	add	x4, x4, #1664
	add	x5, sp, #1, lsl #12             // =4096
	add	x5, x5, #1600
	add	x6, sp, #1, lsl #12             // =4096
	add	x6, x6, #1536
	add	x7, sp, #1, lsl #12             // =4096
	add	x7, x7, #1472
	blr	x8
	ldr	x1, [sp, #344]                  // 8-byte Folded Reload
	str	w0, [sp, #6028]
	ldr	w2, [sp, #6028]
	adrp	x0, .L.str.63
	add	x0, x0, :lo12:.L.str.63
	bl	__mingw_printf
	ldr	w8, [sp, #6028]
	mov	w9, #6763
	subs	w8, w8, w9
	b.eq	.LBB167_32
	b	.LBB167_31
.LBB167_31:
	ldr	w8, [sp, #6812]
	add	w8, w8, #1
	str	w8, [sp, #6812]
	ldr	w2, [sp, #6028]
	adrp	x0, .L.str.64
	add	x0, x0, :lo12:.L.str.64
	mov	w1, #6763
	bl	__mingw_printf
	b	.LBB167_32
.LBB167_32:
	adrp	x8, sv8_a
	add	x8, x8, :lo12:sv8_a
	ldr	x1, [x8]
	adrp	x8, sv8_b
	add	x8, x8, :lo12:sv8_b
	ldr	x2, [x8]
	adrp	x0, .L.str.21
	add	x0, x0, :lo12:.L.str.21
	str	x0, [sp, #328]                  // 8-byte Folded Spill
	adrp	x8, __imp_use_va_args_few_short_vector_8_bytes
	ldr	x8, [x8, :lo12:__imp_use_va_args_few_short_vector_8_bytes]
	blr	x8
	ldr	x1, [sp, #328]                  // 8-byte Folded Reload
	str	w0, [sp, #4924]
	ldr	w2, [sp, #4924]
	adrp	x0, .L.str.63
	add	x0, x0, :lo12:.L.str.63
	bl	__mingw_printf
	ldr	w8, [sp, #4924]
	subs	w8, w8, #3
	b.eq	.LBB167_34
	b	.LBB167_33
.LBB167_33:
	ldr	w8, [sp, #6812]
	add	w8, w8, #1
	str	w8, [sp, #6812]
	ldr	w2, [sp, #4924]
	adrp	x0, .L.str.64
	add	x0, x0, :lo12:.L.str.64
	mov	w1, #3
	bl	__mingw_printf
	b	.LBB167_34
.LBB167_34:
	adrp	x8, sv8_a
	add	x8, x8, :lo12:sv8_a
	ldr	x1, [x8]
	adrp	x8, sv8_b
	add	x8, x8, :lo12:sv8_b
	ldr	x2, [x8]
	adrp	x8, sv8_c
	add	x8, x8, :lo12:sv8_c
	ldr	x3, [x8]
	adrp	x8, sv8_d
	add	x8, x8, :lo12:sv8_d
	ldr	x4, [x8]
	adrp	x8, sv8_e
	add	x8, x8, :lo12:sv8_e
	ldr	x5, [x8]
	adrp	x8, sv8_f
	add	x8, x8, :lo12:sv8_f
	ldr	x6, [x8]
	adrp	x8, sv8_g
	add	x8, x8, :lo12:sv8_g
	ldr	x7, [x8]
	adrp	x8, sv8_h
	add	x8, x8, :lo12:sv8_h
	ldr	x8, [x8]
	adrp	x9, sv8_i
	add	x9, x9, :lo12:sv8_i
	ldr	x10, [x9]
	mov	x9, sp
	str	x10, [x9, #8]
	str	x8, [x9]
	adrp	x0, .L.str.22
	add	x0, x0, :lo12:.L.str.22
	str	x0, [sp, #320]                  // 8-byte Folded Spill
	adrp	x8, __imp_use_va_args_several_short_vector_8_bytes
	ldr	x8, [x8, :lo12:__imp_use_va_args_several_short_vector_8_bytes]
	blr	x8
	ldr	x1, [sp, #320]                  // 8-byte Folded Reload
	str	w0, [sp, #4920]
	ldr	w2, [sp, #4920]
	adrp	x0, .L.str.63
	add	x0, x0, :lo12:.L.str.63
	bl	__mingw_printf
	ldr	w8, [sp, #4920]
	subs	w8, w8, #142
	b.eq	.LBB167_36
	b	.LBB167_35
.LBB167_35:
	ldr	w8, [sp, #6812]
	add	w8, w8, #1
	str	w8, [sp, #6812]
	ldr	w2, [sp, #4920]
	adrp	x0, .L.str.64
	add	x0, x0, :lo12:.L.str.64
	mov	w1, #142
	bl	__mingw_printf
	b	.LBB167_36
.LBB167_36:
	adrp	x8, sv8_a
	add	x8, x8, :lo12:sv8_a
	ldr	x1, [x8]
	adrp	x8, sv8_b
	add	x8, x8, :lo12:sv8_b
	ldr	x2, [x8]
	adrp	x8, sv8_c
	add	x8, x8, :lo12:sv8_c
	ldr	x3, [x8]
	adrp	x8, sv8_d
	add	x8, x8, :lo12:sv8_d
	ldr	x4, [x8]
	adrp	x8, sv8_e
	add	x8, x8, :lo12:sv8_e
	ldr	x5, [x8]
	adrp	x8, sv8_f
	add	x8, x8, :lo12:sv8_f
	ldr	x6, [x8]
	adrp	x8, sv8_g
	add	x8, x8, :lo12:sv8_g
	ldr	x7, [x8]
	adrp	x8, sv8_h
	add	x8, x8, :lo12:sv8_h
	ldr	x8, [x8]
	adrp	x9, sv8_i
	add	x9, x9, :lo12:sv8_i
	ldr	x10, [x9]
	adrp	x9, sv8_j
	add	x9, x9, :lo12:sv8_j
	ldr	x11, [x9]
	adrp	x9, sv8_k
	add	x9, x9, :lo12:sv8_k
	ldr	x12, [x9]
	adrp	x9, sv8_l
	add	x9, x9, :lo12:sv8_l
	ldr	x13, [x9]
	adrp	x9, sv8_m
	add	x9, x9, :lo12:sv8_m
	ldr	x14, [x9]
	adrp	x9, sv8_n
	add	x9, x9, :lo12:sv8_n
	ldr	x15, [x9]
	adrp	x9, sv8_o
	add	x9, x9, :lo12:sv8_o
	ldr	x16, [x9]
	adrp	x9, sv8_p
	add	x9, x9, :lo12:sv8_p
	ldr	x17, [x9]
	adrp	x9, sv8_q
	add	x9, x9, :lo12:sv8_q
	ldr	x0, [x9]
	mov	x9, sp
	str	x9, [sp, #304]                  // 8-byte Folded Spill
	str	x0, [x9, #72]
	str	x17, [x9, #64]
	str	x16, [x9, #56]
	str	x15, [x9, #48]
	str	x14, [x9, #40]
	str	x13, [x9, #32]
	str	x12, [x9, #24]
	str	x11, [x9, #16]
	str	x10, [x9, #8]
	str	x8, [x9]
	adrp	x0, .L.str.23
	add	x0, x0, :lo12:.L.str.23
	str	x0, [sp, #312]                  // 8-byte Folded Spill
	adrp	x8, __imp_use_va_args_many_short_vector_8_bytes
	ldr	x8, [x8, :lo12:__imp_use_va_args_many_short_vector_8_bytes]
	blr	x8
	ldr	x1, [sp, #312]                  // 8-byte Folded Reload
	str	w0, [sp, #4916]
	ldr	w2, [sp, #4916]
	adrp	x0, .L.str.63
	add	x0, x0, :lo12:.L.str.63
	bl	__mingw_printf
	ldr	w8, [sp, #4916]
	mov	w9, #6763
	subs	w8, w8, w9
	b.eq	.LBB167_38
	b	.LBB167_37
.LBB167_37:
	ldr	w8, [sp, #6812]
	add	w8, w8, #1
	str	w8, [sp, #6812]
	ldr	w2, [sp, #4916]
	adrp	x0, .L.str.64
	add	x0, x0, :lo12:.L.str.64
	mov	w1, #6763
	bl	__mingw_printf
	b	.LBB167_38
.LBB167_38:
	adrp	x9, nsv12_a
	add	x9, x9, :lo12:nsv12_a
	ldr	x8, [x9]
	ldr	w9, [x9, #8]
	str	w9, [sp, #4904]
	str	x8, [sp, #4896]
	ldr	x2, [sp, #4904]
	ldr	x1, [sp, #4896]
	adrp	x9, nsv12_b
	add	x9, x9, :lo12:nsv12_b
	ldr	x8, [x9]
	ldr	w9, [x9, #8]
	str	w9, [sp, #4888]
	str	x8, [sp, #4880]
	ldr	x4, [sp, #4888]
	ldr	x3, [sp, #4880]
	adrp	x0, .L.str.24
	add	x0, x0, :lo12:.L.str.24
	str	x0, [sp, #296]                  // 8-byte Folded Spill
	adrp	x8, __imp_use_va_args_few_not_short_vector_12_bytes
	ldr	x8, [x8, :lo12:__imp_use_va_args_few_not_short_vector_12_bytes]
	blr	x8
	ldr	x1, [sp, #296]                  // 8-byte Folded Reload
	str	w0, [sp, #4912]
	ldr	w2, [sp, #4912]
	adrp	x0, .L.str.63
	add	x0, x0, :lo12:.L.str.63
	bl	__mingw_printf
	ldr	w8, [sp, #4912]
	subs	w8, w8, #3
	b.eq	.LBB167_40
	b	.LBB167_39
.LBB167_39:
	ldr	w8, [sp, #6812]
	add	w8, w8, #1
	str	w8, [sp, #6812]
	ldr	w2, [sp, #4912]
	adrp	x0, .L.str.64
	add	x0, x0, :lo12:.L.str.64
	mov	w1, #3
	bl	__mingw_printf
	b	.LBB167_40
.LBB167_40:
	adrp	x8, sv16_a
	add	x8, x8, :lo12:sv16_a
	ldr	x2, [x8, #8]
	ldr	x1, [x8]
	adrp	x8, sv16_b
	add	x8, x8, :lo12:sv16_b
	ldr	x4, [x8, #8]
	ldr	x3, [x8]
	adrp	x0, .L.str.27
	add	x0, x0, :lo12:.L.str.27
	str	x0, [sp, #288]                  // 8-byte Folded Spill
	adrp	x8, __imp_use_va_args_few_short_vector_16_bytes
	ldr	x8, [x8, :lo12:__imp_use_va_args_few_short_vector_16_bytes]
	blr	x8
	ldr	x1, [sp, #288]                  // 8-byte Folded Reload
	str	w0, [sp, #4876]
	ldr	w2, [sp, #4876]
	adrp	x0, .L.str.63
	add	x0, x0, :lo12:.L.str.63
	bl	__mingw_printf
	ldr	w8, [sp, #4876]
	subs	w8, w8, #3
	b.eq	.LBB167_42
	b	.LBB167_41
.LBB167_41:
	ldr	w8, [sp, #6812]
	add	w8, w8, #1
	str	w8, [sp, #6812]
	ldr	w2, [sp, #4876]
	adrp	x0, .L.str.64
	add	x0, x0, :lo12:.L.str.64
	mov	w1, #3
	bl	__mingw_printf
	b	.LBB167_42
.LBB167_42:
	adrp	x8, hfa2f_a
	add	x8, x8, :lo12:hfa2f_a
	ldr	x1, [x8]
	adrp	x8, hfa2f_b
	add	x8, x8, :lo12:hfa2f_b
	ldr	x2, [x8]
	adrp	x0, .L.str.30
	add	x0, x0, :lo12:.L.str.30
	str	x0, [sp, #280]                  // 8-byte Folded Spill
	adrp	x8, __imp_use_va_args_few_hfa_2_floats
	ldr	x8, [x8, :lo12:__imp_use_va_args_few_hfa_2_floats]
	blr	x8
	ldr	x1, [sp, #280]                  // 8-byte Folded Reload
	str	w0, [sp, #4872]
	ldr	w2, [sp, #4872]
	adrp	x0, .L.str.63
	add	x0, x0, :lo12:.L.str.63
	bl	__mingw_printf
	ldr	w8, [sp, #4872]
	subs	w8, w8, #3
	b.eq	.LBB167_44
	b	.LBB167_43
.LBB167_43:
	ldr	w8, [sp, #6812]
	add	w8, w8, #1
	str	w8, [sp, #6812]
	ldr	w2, [sp, #4872]
	adrp	x0, .L.str.64
	add	x0, x0, :lo12:.L.str.64
	mov	w1, #3
	bl	__mingw_printf
	b	.LBB167_44
.LBB167_44:
	adrp	x8, hfa2f_a
	add	x8, x8, :lo12:hfa2f_a
	ldr	x1, [x8]
	adrp	x8, hfa2f_b
	add	x8, x8, :lo12:hfa2f_b
	ldr	x2, [x8]
	adrp	x8, hfa2f_c
	add	x8, x8, :lo12:hfa2f_c
	ldr	x3, [x8]
	adrp	x8, hfa2f_d
	add	x8, x8, :lo12:hfa2f_d
	ldr	x4, [x8]
	adrp	x8, hfa2f_e
	add	x8, x8, :lo12:hfa2f_e
	ldr	x5, [x8]
	adrp	x8, hfa2f_f
	add	x8, x8, :lo12:hfa2f_f
	ldr	x6, [x8]
	adrp	x8, hfa2f_g
	add	x8, x8, :lo12:hfa2f_g
	ldr	x7, [x8]
	adrp	x8, hfa2f_h
	add	x8, x8, :lo12:hfa2f_h
	ldr	x8, [x8]
	adrp	x9, hfa2f_i
	add	x9, x9, :lo12:hfa2f_i
	ldr	x10, [x9]
	mov	x9, sp
	str	x10, [x9, #8]
	str	x8, [x9]
	adrp	x0, .L.str.31
	add	x0, x0, :lo12:.L.str.31
	str	x0, [sp, #272]                  // 8-byte Folded Spill
	adrp	x8, __imp_use_va_args_several_hfa_2_floats
	ldr	x8, [x8, :lo12:__imp_use_va_args_several_hfa_2_floats]
	blr	x8
	ldr	x1, [sp, #272]                  // 8-byte Folded Reload
	str	w0, [sp, #4868]
	ldr	w2, [sp, #4868]
	adrp	x0, .L.str.63
	add	x0, x0, :lo12:.L.str.63
	bl	__mingw_printf
	ldr	w8, [sp, #4868]
	subs	w8, w8, #142
	b.eq	.LBB167_46
	b	.LBB167_45
.LBB167_45:
	ldr	w8, [sp, #6812]
	add	w8, w8, #1
	str	w8, [sp, #6812]
	ldr	w2, [sp, #4868]
	adrp	x0, .L.str.64
	add	x0, x0, :lo12:.L.str.64
	mov	w1, #142
	bl	__mingw_printf
	b	.LBB167_46
.LBB167_46:
	adrp	x8, hfa2f_a
	add	x8, x8, :lo12:hfa2f_a
	ldr	x1, [x8]
	adrp	x8, hfa2f_b
	add	x8, x8, :lo12:hfa2f_b
	ldr	x2, [x8]
	adrp	x8, hfa2f_c
	add	x8, x8, :lo12:hfa2f_c
	ldr	x3, [x8]
	adrp	x8, hfa2f_d
	add	x8, x8, :lo12:hfa2f_d
	ldr	x4, [x8]
	adrp	x8, hfa2f_e
	add	x8, x8, :lo12:hfa2f_e
	ldr	x5, [x8]
	adrp	x8, hfa2f_f
	add	x8, x8, :lo12:hfa2f_f
	ldr	x6, [x8]
	adrp	x8, hfa2f_g
	add	x8, x8, :lo12:hfa2f_g
	ldr	x7, [x8]
	adrp	x8, hfa2f_h
	add	x8, x8, :lo12:hfa2f_h
	ldr	x8, [x8]
	adrp	x9, hfa2f_i
	add	x9, x9, :lo12:hfa2f_i
	ldr	x10, [x9]
	adrp	x9, hfa2f_j
	add	x9, x9, :lo12:hfa2f_j
	ldr	x11, [x9]
	adrp	x9, hfa2f_k
	add	x9, x9, :lo12:hfa2f_k
	ldr	x12, [x9]
	adrp	x9, hfa2f_l
	add	x9, x9, :lo12:hfa2f_l
	ldr	x13, [x9]
	adrp	x9, hfa2f_m
	add	x9, x9, :lo12:hfa2f_m
	ldr	x14, [x9]
	adrp	x9, hfa2f_n
	add	x9, x9, :lo12:hfa2f_n
	ldr	x15, [x9]
	adrp	x9, hfa2f_o
	add	x9, x9, :lo12:hfa2f_o
	ldr	x16, [x9]
	adrp	x9, hfa2f_p
	add	x9, x9, :lo12:hfa2f_p
	ldr	x17, [x9]
	adrp	x9, hfa2f_q
	add	x9, x9, :lo12:hfa2f_q
	ldr	x0, [x9]
	mov	x9, sp
	str	x9, [sp, #256]                  // 8-byte Folded Spill
	str	x0, [x9, #72]
	str	x17, [x9, #64]
	str	x16, [x9, #56]
	str	x15, [x9, #48]
	str	x14, [x9, #40]
	str	x13, [x9, #32]
	str	x12, [x9, #24]
	str	x11, [x9, #16]
	str	x10, [x9, #8]
	str	x8, [x9]
	adrp	x0, .L.str.32
	add	x0, x0, :lo12:.L.str.32
	str	x0, [sp, #264]                  // 8-byte Folded Spill
	adrp	x8, __imp_use_va_args_many_hfa_2_floats
	ldr	x8, [x8, :lo12:__imp_use_va_args_many_hfa_2_floats]
	blr	x8
	ldr	x1, [sp, #264]                  // 8-byte Folded Reload
	str	w0, [sp, #4864]
	ldr	w2, [sp, #4864]
	adrp	x0, .L.str.63
	add	x0, x0, :lo12:.L.str.63
	bl	__mingw_printf
	ldr	w8, [sp, #4864]
	mov	w9, #6763
	subs	w8, w8, w9
	b.eq	.LBB167_48
	b	.LBB167_47
.LBB167_47:
	ldr	w8, [sp, #6812]
	add	w8, w8, #1
	str	w8, [sp, #6812]
	ldr	w2, [sp, #4864]
	adrp	x0, .L.str.64
	add	x0, x0, :lo12:.L.str.64
	mov	w1, #6763
	bl	__mingw_printf
	b	.LBB167_48
.LBB167_48:
	adrp	x8, hfa4f_a
	add	x8, x8, :lo12:hfa4f_a
	ldr	x2, [x8, #8]
	ldr	x1, [x8]
	adrp	x8, hfa4f_b
	add	x8, x8, :lo12:hfa4f_b
	ldr	x4, [x8, #8]
	ldr	x3, [x8]
	adrp	x0, .L.str.33
	add	x0, x0, :lo12:.L.str.33
	str	x0, [sp, #248]                  // 8-byte Folded Spill
	adrp	x8, __imp_use_va_args_few_hfa_4_floats
	ldr	x8, [x8, :lo12:__imp_use_va_args_few_hfa_4_floats]
	blr	x8
	ldr	x1, [sp, #248]                  // 8-byte Folded Reload
	str	w0, [sp, #4860]
	ldr	w2, [sp, #4860]
	adrp	x0, .L.str.63
	add	x0, x0, :lo12:.L.str.63
	bl	__mingw_printf
	ldr	w8, [sp, #4860]
	subs	w8, w8, #3
	b.eq	.LBB167_50
	b	.LBB167_49
.LBB167_49:
	ldr	w8, [sp, #6812]
	add	w8, w8, #1
	str	w8, [sp, #6812]
	ldr	w2, [sp, #4860]
	adrp	x0, .L.str.64
	add	x0, x0, :lo12:.L.str.64
	mov	w1, #3
	bl	__mingw_printf
	b	.LBB167_50
.LBB167_50:
	adrp	x8, hfa2d_a
	add	x8, x8, :lo12:hfa2d_a
	ldr	x2, [x8, #8]
	ldr	x1, [x8]
	adrp	x8, hfa2d_b
	add	x8, x8, :lo12:hfa2d_b
	ldr	x4, [x8, #8]
	ldr	x3, [x8]
	adrp	x0, .L.str.36
	add	x0, x0, :lo12:.L.str.36
	str	x0, [sp, #240]                  // 8-byte Folded Spill
	adrp	x8, __imp_use_va_args_few_hfa_2_doubles
	ldr	x8, [x8, :lo12:__imp_use_va_args_few_hfa_2_doubles]
	blr	x8
	ldr	x1, [sp, #240]                  // 8-byte Folded Reload
	str	w0, [sp, #4856]
	ldr	w2, [sp, #4856]
	adrp	x0, .L.str.63
	add	x0, x0, :lo12:.L.str.63
	bl	__mingw_printf
	ldr	w8, [sp, #4856]
	subs	w8, w8, #3
	b.eq	.LBB167_52
	b	.LBB167_51
.LBB167_51:
	ldr	w8, [sp, #6812]
	add	w8, w8, #1
	str	w8, [sp, #6812]
	ldr	w2, [sp, #4856]
	adrp	x0, .L.str.64
	add	x0, x0, :lo12:.L.str.64
	mov	w1, #3
	bl	__mingw_printf
	b	.LBB167_52
.LBB167_52:
	adrp	x8, hfa4d_a
	add	x8, x8, :lo12:hfa4d_a
	ldr	q0, [x8]
	ldr	q1, [x8, #16]
	str	q1, [sp, #4832]
	str	q0, [sp, #4816]
	adrp	x8, hfa4d_b
	add	x8, x8, :lo12:hfa4d_b
	ldr	q0, [x8]
	ldr	q1, [x8, #16]
	str	q1, [sp, #4800]
	str	q0, [sp, #4784]
	adrp	x0, .L.str.39
	add	x0, x0, :lo12:.L.str.39
	str	x0, [sp, #232]                  // 8-byte Folded Spill
	adrp	x8, __imp_use_va_args_few_hfa_4_doubles
	ldr	x8, [x8, :lo12:__imp_use_va_args_few_hfa_4_doubles]
	add	x1, sp, #1, lsl #12             // =4096
	add	x1, x1, #720
	add	x2, sp, #1, lsl #12             // =4096
	add	x2, x2, #688
	blr	x8
	ldr	x1, [sp, #232]                  // 8-byte Folded Reload
	str	w0, [sp, #4852]
	ldr	w2, [sp, #4852]
	adrp	x0, .L.str.63
	add	x0, x0, :lo12:.L.str.63
	bl	__mingw_printf
	ldr	w8, [sp, #4852]
	subs	w8, w8, #3
	b.eq	.LBB167_54
	b	.LBB167_53
.LBB167_53:
	ldr	w8, [sp, #6812]
	add	w8, w8, #1
	str	w8, [sp, #6812]
	ldr	w2, [sp, #4852]
	adrp	x0, .L.str.64
	add	x0, x0, :lo12:.L.str.64
	mov	w1, #3
	bl	__mingw_printf
	b	.LBB167_54
.LBB167_54:
	adrp	x8, hva2sv8_a
	add	x8, x8, :lo12:hva2sv8_a
	ldr	x2, [x8, #8]
	ldr	x1, [x8]
	adrp	x8, hva2sv8_b
	add	x8, x8, :lo12:hva2sv8_b
	ldr	x4, [x8, #8]
	ldr	x3, [x8]
	adrp	x0, .L.str.42
	add	x0, x0, :lo12:.L.str.42
	str	x0, [sp, #224]                  // 8-byte Folded Spill
	adrp	x8, __imp_use_va_args_few_hva_2_short_vector_8_bytes
	ldr	x8, [x8, :lo12:__imp_use_va_args_few_hva_2_short_vector_8_bytes]
	blr	x8
	ldr	x1, [sp, #224]                  // 8-byte Folded Reload
	str	w0, [sp, #4780]
	ldr	w2, [sp, #4780]
	adrp	x0, .L.str.63
	add	x0, x0, :lo12:.L.str.63
	bl	__mingw_printf
	ldr	w8, [sp, #4780]
	subs	w8, w8, #3
	b.eq	.LBB167_56
	b	.LBB167_55
.LBB167_55:
	ldr	w8, [sp, #6812]
	add	w8, w8, #1
	str	w8, [sp, #6812]
	ldr	w2, [sp, #4780]
	adrp	x0, .L.str.64
	add	x0, x0, :lo12:.L.str.64
	mov	w1, #3
	bl	__mingw_printf
	b	.LBB167_56
.LBB167_56:
	adrp	x8, hva4sv8_a
	add	x8, x8, :lo12:hva4sv8_a
	ldr	q0, [x8]
	ldr	q1, [x8, #16]
	str	q1, [sp, #4752]
	str	q0, [sp, #4736]
	adrp	x8, hva4sv8_b
	add	x8, x8, :lo12:hva4sv8_b
	ldr	q0, [x8]
	ldr	q1, [x8, #16]
	str	q1, [sp, #4720]
	str	q0, [sp, #4704]
	adrp	x0, .L.str.45
	add	x0, x0, :lo12:.L.str.45
	str	x0, [sp, #216]                  // 8-byte Folded Spill
	adrp	x8, __imp_use_va_args_few_hva_4_short_vector_8_bytes
	ldr	x8, [x8, :lo12:__imp_use_va_args_few_hva_4_short_vector_8_bytes]
	add	x1, sp, #1, lsl #12             // =4096
	add	x1, x1, #640
	add	x2, sp, #1, lsl #12             // =4096
	add	x2, x2, #608
	blr	x8
	ldr	x1, [sp, #216]                  // 8-byte Folded Reload
	str	w0, [sp, #4776]
	ldr	w2, [sp, #4776]
	adrp	x0, .L.str.63
	add	x0, x0, :lo12:.L.str.63
	bl	__mingw_printf
	ldr	w8, [sp, #4776]
	subs	w8, w8, #3
	b.eq	.LBB167_58
	b	.LBB167_57
.LBB167_57:
	ldr	w8, [sp, #6812]
	add	w8, w8, #1
	str	w8, [sp, #6812]
	ldr	w2, [sp, #4776]
	adrp	x0, .L.str.64
	add	x0, x0, :lo12:.L.str.64
	mov	w1, #3
	bl	__mingw_printf
	b	.LBB167_58
.LBB167_58:
	adrp	x8, hva4sv8_a
	add	x8, x8, :lo12:hva4sv8_a
	ldr	q0, [x8]
	ldr	q1, [x8, #16]
	str	q1, [sp, #4672]
	str	q0, [sp, #4656]
	adrp	x8, hva4sv8_b
	add	x8, x8, :lo12:hva4sv8_b
	ldr	q0, [x8]
	ldr	q1, [x8, #16]
	str	q1, [sp, #4640]
	str	q0, [sp, #4624]
	adrp	x8, hva4sv8_c
	add	x8, x8, :lo12:hva4sv8_c
	ldr	q0, [x8]
	ldr	q1, [x8, #16]
	str	q1, [sp, #4608]
	str	q0, [sp, #4592]
	adrp	x8, hva4sv8_d
	add	x8, x8, :lo12:hva4sv8_d
	ldr	q0, [x8]
	ldr	q1, [x8, #16]
	str	q1, [sp, #4576]
	str	q0, [sp, #4560]
	adrp	x8, hva4sv8_e
	add	x8, x8, :lo12:hva4sv8_e
	ldr	q0, [x8]
	ldr	q1, [x8, #16]
	str	q1, [sp, #4544]
	str	q0, [sp, #4528]
	adrp	x8, hva4sv8_f
	add	x8, x8, :lo12:hva4sv8_f
	ldr	q0, [x8]
	ldr	q1, [x8, #16]
	str	q1, [sp, #4512]
	str	q0, [sp, #4496]
	adrp	x8, hva4sv8_g
	add	x8, x8, :lo12:hva4sv8_g
	ldr	q0, [x8]
	ldr	q1, [x8, #16]
	str	q1, [sp, #4480]
	str	q0, [sp, #4464]
	adrp	x8, hva4sv8_h
	add	x8, x8, :lo12:hva4sv8_h
	ldr	q0, [x8]
	ldr	q1, [x8, #16]
	str	q1, [sp, #4448]
	str	q0, [sp, #4432]
	adrp	x8, hva4sv8_i
	add	x8, x8, :lo12:hva4sv8_i
	ldr	q0, [x8]
	ldr	q1, [x8, #16]
	str	q1, [sp, #4416]
	str	q0, [sp, #4400]
	mov	x9, sp
	add	x8, sp, #1, lsl #12             // =4096
	add	x8, x8, #304
	str	x8, [x9, #8]
	add	x8, sp, #1, lsl #12             // =4096
	add	x8, x8, #336
	str	x8, [x9]
	adrp	x0, .L.str.46
	add	x0, x0, :lo12:.L.str.46
	str	x0, [sp, #208]                  // 8-byte Folded Spill
	adrp	x8, __imp_use_va_args_several_hva_4_short_vector_8_bytes
	ldr	x8, [x8, :lo12:__imp_use_va_args_several_hva_4_short_vector_8_bytes]
	add	x1, sp, #1, lsl #12             // =4096
	add	x1, x1, #560
	add	x2, sp, #1, lsl #12             // =4096
	add	x2, x2, #528
	add	x3, sp, #1, lsl #12             // =4096
	add	x3, x3, #496
	add	x4, sp, #1, lsl #12             // =4096
	add	x4, x4, #464
	add	x5, sp, #1, lsl #12             // =4096
	add	x5, x5, #432
	add	x6, sp, #1, lsl #12             // =4096
	add	x6, x6, #400
	add	x7, sp, #1, lsl #12             // =4096
	add	x7, x7, #368
	blr	x8
	ldr	x1, [sp, #208]                  // 8-byte Folded Reload
	str	w0, [sp, #4700]
	ldr	w2, [sp, #4700]
	adrp	x0, .L.str.63
	add	x0, x0, :lo12:.L.str.63
	bl	__mingw_printf
	ldr	w8, [sp, #4700]
	subs	w8, w8, #142
	b.eq	.LBB167_60
	b	.LBB167_59
.LBB167_59:
	ldr	w8, [sp, #6812]
	add	w8, w8, #1
	str	w8, [sp, #6812]
	ldr	w2, [sp, #4700]
	adrp	x0, .L.str.64
	add	x0, x0, :lo12:.L.str.64
	mov	w1, #142
	bl	__mingw_printf
	b	.LBB167_60
.LBB167_60:
	adrp	x8, hva4sv8_a
	add	x8, x8, :lo12:hva4sv8_a
	ldr	q0, [x8]
	ldr	q1, [x8, #16]
	str	q1, [sp, #4368]
	str	q0, [sp, #4352]
	adrp	x8, hva4sv8_b
	add	x8, x8, :lo12:hva4sv8_b
	ldr	q0, [x8]
	ldr	q1, [x8, #16]
	str	q1, [sp, #4336]
	str	q0, [sp, #4320]
	adrp	x8, hva4sv8_c
	add	x8, x8, :lo12:hva4sv8_c
	ldr	q0, [x8]
	ldr	q1, [x8, #16]
	str	q1, [sp, #4304]
	str	q0, [sp, #4288]
	adrp	x8, hva4sv8_d
	add	x8, x8, :lo12:hva4sv8_d
	ldr	q0, [x8]
	ldr	q1, [x8, #16]
	str	q1, [sp, #4272]
	str	q0, [sp, #4256]
	adrp	x8, hva4sv8_e
	add	x8, x8, :lo12:hva4sv8_e
	ldr	q0, [x8]
	ldr	q1, [x8, #16]
	str	q1, [sp, #4240]
	str	q0, [sp, #4224]
	adrp	x8, hva4sv8_f
	add	x8, x8, :lo12:hva4sv8_f
	ldr	q0, [x8]
	ldr	q1, [x8, #16]
	str	q1, [sp, #4208]
	str	q0, [sp, #4192]
	adrp	x8, hva4sv8_g
	add	x8, x8, :lo12:hva4sv8_g
	ldr	q0, [x8]
	ldr	q1, [x8, #16]
	str	q1, [sp, #4176]
	str	q0, [sp, #4160]
	adrp	x8, hva4sv8_h
	add	x8, x8, :lo12:hva4sv8_h
	ldr	q0, [x8]
	ldr	q1, [x8, #16]
	str	q1, [sp, #4144]
	str	q0, [sp, #4128]
	adrp	x8, hva4sv8_i
	add	x8, x8, :lo12:hva4sv8_i
	ldr	q0, [x8]
	ldr	q1, [x8, #16]
	str	q1, [sp, #4112]
	str	q0, [sp, #4096]
	adrp	x8, hva4sv8_j
	add	x8, x8, :lo12:hva4sv8_j
	ldr	q0, [x8]
	ldr	q1, [x8, #16]
	str	q1, [sp, #4080]
	str	q0, [sp, #4064]
	adrp	x8, hva4sv8_k
	add	x8, x8, :lo12:hva4sv8_k
	ldr	q0, [x8]
	ldr	q1, [x8, #16]
	str	q1, [sp, #4048]
	str	q0, [sp, #4032]
	adrp	x8, hva4sv8_l
	add	x8, x8, :lo12:hva4sv8_l
	ldr	q0, [x8]
	ldr	q1, [x8, #16]
	str	q1, [sp, #4016]
	str	q0, [sp, #4000]
	adrp	x8, hva4sv8_m
	add	x8, x8, :lo12:hva4sv8_m
	ldr	q0, [x8]
	ldr	q1, [x8, #16]
	str	q1, [sp, #3984]
	str	q0, [sp, #3968]
	adrp	x8, hva4sv8_n
	add	x8, x8, :lo12:hva4sv8_n
	ldr	q0, [x8]
	ldr	q1, [x8, #16]
	str	q1, [sp, #3952]
	str	q0, [sp, #3936]
	adrp	x8, hva4sv8_o
	add	x8, x8, :lo12:hva4sv8_o
	ldr	q0, [x8]
	ldr	q1, [x8, #16]
	str	q1, [sp, #3920]
	str	q0, [sp, #3904]
	adrp	x8, hva4sv8_p
	add	x8, x8, :lo12:hva4sv8_p
	ldr	q0, [x8]
	ldr	q1, [x8, #16]
	str	q1, [sp, #3888]
	str	q0, [sp, #3872]
	adrp	x8, hva4sv8_q
	add	x8, x8, :lo12:hva4sv8_q
	ldr	q0, [x8]
	ldr	q1, [x8, #16]
	str	q1, [sp, #3856]
	str	q0, [sp, #3840]
	mov	x9, sp
	str	x9, [sp, #192]                  // 8-byte Folded Spill
	add	x8, sp, #3840
	str	x8, [x9, #72]
	add	x8, sp, #3872
	str	x8, [x9, #64]
	add	x8, sp, #3904
	str	x8, [x9, #56]
	add	x8, sp, #3936
	str	x8, [x9, #48]
	add	x8, sp, #3968
	str	x8, [x9, #40]
	add	x8, sp, #4000
	str	x8, [x9, #32]
	add	x8, sp, #4032
	str	x8, [x9, #24]
	add	x8, sp, #4064
	str	x8, [x9, #16]
	add	x8, sp, #1, lsl #12             // =4096
	str	x8, [x9, #8]
	add	x8, sp, #1, lsl #12             // =4096
	add	x8, x8, #32
	str	x8, [x9]
	adrp	x0, .L.str.47
	add	x0, x0, :lo12:.L.str.47
	str	x0, [sp, #200]                  // 8-byte Folded Spill
	adrp	x8, __imp_use_va_args_many_hva_4_short_vector_8_bytes
	ldr	x8, [x8, :lo12:__imp_use_va_args_many_hva_4_short_vector_8_bytes]
	add	x1, sp, #1, lsl #12             // =4096
	add	x1, x1, #256
	add	x2, sp, #1, lsl #12             // =4096
	add	x2, x2, #224
	add	x3, sp, #1, lsl #12             // =4096
	add	x3, x3, #192
	add	x4, sp, #1, lsl #12             // =4096
	add	x4, x4, #160
	add	x5, sp, #1, lsl #12             // =4096
	add	x5, x5, #128
	add	x6, sp, #1, lsl #12             // =4096
	add	x6, x6, #96
	add	x7, sp, #1, lsl #12             // =4096
	add	x7, x7, #64
	blr	x8
	ldr	x1, [sp, #200]                  // 8-byte Folded Reload
	str	w0, [sp, #4396]
	ldr	w2, [sp, #4396]
	adrp	x0, .L.str.63
	add	x0, x0, :lo12:.L.str.63
	bl	__mingw_printf
	ldr	w8, [sp, #4396]
	mov	w9, #6763
	subs	w8, w8, w9
	b.eq	.LBB167_62
	b	.LBB167_61
.LBB167_61:
	ldr	w8, [sp, #6812]
	add	w8, w8, #1
	str	w8, [sp, #6812]
	ldr	w2, [sp, #4396]
	adrp	x0, .L.str.64
	add	x0, x0, :lo12:.L.str.64
	mov	w1, #6763
	bl	__mingw_printf
	b	.LBB167_62
.LBB167_62:
	adrp	x8, hva2sv16_a
	add	x8, x8, :lo12:hva2sv16_a
	ldr	q0, [x8]
	ldr	q1, [x8, #16]
	str	q1, [sp, #3808]
	str	q0, [sp, #3792]
	adrp	x8, hva2sv16_b
	add	x8, x8, :lo12:hva2sv16_b
	ldr	q0, [x8]
	ldr	q1, [x8, #16]
	str	q1, [sp, #3776]
	str	q0, [sp, #3760]
	adrp	x0, .L.str.48
	add	x0, x0, :lo12:.L.str.48
	str	x0, [sp, #184]                  // 8-byte Folded Spill
	adrp	x8, __imp_use_va_args_few_hva_2_short_vector_16_bytes
	ldr	x8, [x8, :lo12:__imp_use_va_args_few_hva_2_short_vector_16_bytes]
	add	x1, sp, #3792
	add	x2, sp, #3760
	blr	x8
	ldr	x1, [sp, #184]                  // 8-byte Folded Reload
	str	w0, [sp, #3836]
	ldr	w2, [sp, #3836]
	adrp	x0, .L.str.63
	add	x0, x0, :lo12:.L.str.63
	bl	__mingw_printf
	ldr	w8, [sp, #3836]
	subs	w8, w8, #3
	b.eq	.LBB167_64
	b	.LBB167_63
.LBB167_63:
	ldr	w8, [sp, #6812]
	add	w8, w8, #1
	str	w8, [sp, #6812]
	ldr	w2, [sp, #3836]
	adrp	x0, .L.str.64
	add	x0, x0, :lo12:.L.str.64
	mov	w1, #3
	bl	__mingw_printf
	b	.LBB167_64
.LBB167_64:
	adrp	x8, hva2sv16_a
	add	x8, x8, :lo12:hva2sv16_a
	ldr	q0, [x8]
	ldr	q1, [x8, #16]
	str	q1, [sp, #3728]
	str	q0, [sp, #3712]
	adrp	x8, hva2sv16_b
	add	x8, x8, :lo12:hva2sv16_b
	ldr	q0, [x8]
	ldr	q1, [x8, #16]
	str	q1, [sp, #3696]
	str	q0, [sp, #3680]
	adrp	x8, hva2sv16_c
	add	x8, x8, :lo12:hva2sv16_c
	ldr	q0, [x8]
	ldr	q1, [x8, #16]
	str	q1, [sp, #3664]
	str	q0, [sp, #3648]
	adrp	x8, hva2sv16_d
	add	x8, x8, :lo12:hva2sv16_d
	ldr	q0, [x8]
	ldr	q1, [x8, #16]
	str	q1, [sp, #3632]
	str	q0, [sp, #3616]
	adrp	x8, hva2sv16_e
	add	x8, x8, :lo12:hva2sv16_e
	ldr	q0, [x8]
	ldr	q1, [x8, #16]
	str	q1, [sp, #3600]
	str	q0, [sp, #3584]
	adrp	x8, hva2sv16_f
	add	x8, x8, :lo12:hva2sv16_f
	ldr	q0, [x8]
	ldr	q1, [x8, #16]
	str	q1, [sp, #3568]
	str	q0, [sp, #3552]
	adrp	x8, hva2sv16_g
	add	x8, x8, :lo12:hva2sv16_g
	ldr	q0, [x8]
	ldr	q1, [x8, #16]
	str	q1, [sp, #3536]
	str	q0, [sp, #3520]
	adrp	x8, hva2sv16_h
	add	x8, x8, :lo12:hva2sv16_h
	ldr	q0, [x8]
	ldr	q1, [x8, #16]
	str	q1, [sp, #3504]
	str	q0, [sp, #3488]
	adrp	x8, hva2sv16_i
	add	x8, x8, :lo12:hva2sv16_i
	ldr	q0, [x8]
	ldr	q1, [x8, #16]
	str	q1, [sp, #3472]
	str	q0, [sp, #3456]
	mov	x9, sp
	add	x8, sp, #3456
	str	x8, [x9, #8]
	add	x8, sp, #3488
	str	x8, [x9]
	adrp	x0, .L.str.49
	add	x0, x0, :lo12:.L.str.49
	str	x0, [sp, #176]                  // 8-byte Folded Spill
	adrp	x8, __imp_use_va_args_several_hva_2_short_vector_16_bytes
	ldr	x8, [x8, :lo12:__imp_use_va_args_several_hva_2_short_vector_16_bytes]
	add	x1, sp, #3712
	add	x2, sp, #3680
	add	x3, sp, #3648
	add	x4, sp, #3616
	add	x5, sp, #3584
	add	x6, sp, #3552
	add	x7, sp, #3520
	blr	x8
	ldr	x1, [sp, #176]                  // 8-byte Folded Reload
	str	w0, [sp, #3756]
	ldr	w2, [sp, #3756]
	adrp	x0, .L.str.63
	add	x0, x0, :lo12:.L.str.63
	bl	__mingw_printf
	ldr	w8, [sp, #3756]
	subs	w8, w8, #142
	b.eq	.LBB167_66
	b	.LBB167_65
.LBB167_65:
	ldr	w8, [sp, #6812]
	add	w8, w8, #1
	str	w8, [sp, #6812]
	ldr	w2, [sp, #3756]
	adrp	x0, .L.str.64
	add	x0, x0, :lo12:.L.str.64
	mov	w1, #142
	bl	__mingw_printf
	b	.LBB167_66
.LBB167_66:
	adrp	x8, hva2sv16_a
	add	x8, x8, :lo12:hva2sv16_a
	ldr	q0, [x8]
	ldr	q1, [x8, #16]
	str	q1, [sp, #3424]
	str	q0, [sp, #3408]
	adrp	x8, hva2sv16_b
	add	x8, x8, :lo12:hva2sv16_b
	ldr	q0, [x8]
	ldr	q1, [x8, #16]
	str	q1, [sp, #3392]
	str	q0, [sp, #3376]
	adrp	x8, hva2sv16_c
	add	x8, x8, :lo12:hva2sv16_c
	ldr	q0, [x8]
	ldr	q1, [x8, #16]
	str	q1, [sp, #3360]
	str	q0, [sp, #3344]
	adrp	x8, hva2sv16_d
	add	x8, x8, :lo12:hva2sv16_d
	ldr	q0, [x8]
	ldr	q1, [x8, #16]
	str	q1, [sp, #3328]
	str	q0, [sp, #3312]
	adrp	x8, hva2sv16_e
	add	x8, x8, :lo12:hva2sv16_e
	ldr	q0, [x8]
	ldr	q1, [x8, #16]
	str	q1, [sp, #3296]
	str	q0, [sp, #3280]
	adrp	x8, hva2sv16_f
	add	x8, x8, :lo12:hva2sv16_f
	ldr	q0, [x8]
	ldr	q1, [x8, #16]
	str	q1, [sp, #3264]
	str	q0, [sp, #3248]
	adrp	x8, hva2sv16_g
	add	x8, x8, :lo12:hva2sv16_g
	ldr	q0, [x8]
	ldr	q1, [x8, #16]
	str	q1, [sp, #3232]
	str	q0, [sp, #3216]
	adrp	x8, hva2sv16_h
	add	x8, x8, :lo12:hva2sv16_h
	ldr	q0, [x8]
	ldr	q1, [x8, #16]
	str	q1, [sp, #3200]
	str	q0, [sp, #3184]
	adrp	x8, hva2sv16_i
	add	x8, x8, :lo12:hva2sv16_i
	ldr	q0, [x8]
	ldr	q1, [x8, #16]
	str	q1, [sp, #3168]
	str	q0, [sp, #3152]
	adrp	x8, hva2sv16_j
	add	x8, x8, :lo12:hva2sv16_j
	ldr	q0, [x8]
	ldr	q1, [x8, #16]
	str	q1, [sp, #3136]
	str	q0, [sp, #3120]
	adrp	x8, hva2sv16_k
	add	x8, x8, :lo12:hva2sv16_k
	ldr	q0, [x8]
	ldr	q1, [x8, #16]
	str	q1, [sp, #3104]
	str	q0, [sp, #3088]
	adrp	x8, hva2sv16_l
	add	x8, x8, :lo12:hva2sv16_l
	ldr	q0, [x8]
	ldr	q1, [x8, #16]
	str	q1, [sp, #3072]
	str	q0, [sp, #3056]
	adrp	x8, hva2sv16_m
	add	x8, x8, :lo12:hva2sv16_m
	ldr	q0, [x8]
	ldr	q1, [x8, #16]
	str	q1, [sp, #3040]
	str	q0, [sp, #3024]
	adrp	x8, hva2sv16_n
	add	x8, x8, :lo12:hva2sv16_n
	ldr	q0, [x8]
	ldr	q1, [x8, #16]
	str	q1, [sp, #3008]
	str	q0, [sp, #2992]
	adrp	x8, hva2sv16_o
	add	x8, x8, :lo12:hva2sv16_o
	ldr	q0, [x8]
	ldr	q1, [x8, #16]
	str	q1, [sp, #2976]
	str	q0, [sp, #2960]
	adrp	x8, hva2sv16_p
	add	x8, x8, :lo12:hva2sv16_p
	ldr	q0, [x8]
	ldr	q1, [x8, #16]
	str	q1, [sp, #2944]
	str	q0, [sp, #2928]
	adrp	x8, hva2sv16_q
	add	x8, x8, :lo12:hva2sv16_q
	ldr	q0, [x8]
	ldr	q1, [x8, #16]
	str	q1, [sp, #2912]
	str	q0, [sp, #2896]
	mov	x9, sp
	str	x9, [sp, #160]                  // 8-byte Folded Spill
	add	x8, sp, #2896
	str	x8, [x9, #72]
	add	x8, sp, #2928
	str	x8, [x9, #64]
	add	x8, sp, #2960
	str	x8, [x9, #56]
	add	x8, sp, #2992
	str	x8, [x9, #48]
	add	x8, sp, #3024
	str	x8, [x9, #40]
	add	x8, sp, #3056
	str	x8, [x9, #32]
	add	x8, sp, #3088
	str	x8, [x9, #24]
	add	x8, sp, #3120
	str	x8, [x9, #16]
	add	x8, sp, #3152
	str	x8, [x9, #8]
	add	x8, sp, #3184
	str	x8, [x9]
	adrp	x0, .L.str.50
	add	x0, x0, :lo12:.L.str.50
	str	x0, [sp, #168]                  // 8-byte Folded Spill
	adrp	x8, __imp_use_va_args_many_hva_2_short_vector_16_bytes
	ldr	x8, [x8, :lo12:__imp_use_va_args_many_hva_2_short_vector_16_bytes]
	add	x1, sp, #3408
	add	x2, sp, #3376
	add	x3, sp, #3344
	add	x4, sp, #3312
	add	x5, sp, #3280
	add	x6, sp, #3248
	add	x7, sp, #3216
	blr	x8
	ldr	x1, [sp, #168]                  // 8-byte Folded Reload
	str	w0, [sp, #3452]
	ldr	w2, [sp, #3452]
	adrp	x0, .L.str.63
	add	x0, x0, :lo12:.L.str.63
	bl	__mingw_printf
	ldr	w8, [sp, #3452]
	mov	w9, #6763
	subs	w8, w8, w9
	b.eq	.LBB167_68
	b	.LBB167_67
.LBB167_67:
	ldr	w8, [sp, #6812]
	add	w8, w8, #1
	str	w8, [sp, #6812]
	ldr	w2, [sp, #3452]
	adrp	x0, .L.str.64
	add	x0, x0, :lo12:.L.str.64
	mov	w1, #6763
	bl	__mingw_printf
	b	.LBB167_68
.LBB167_68:
	adrp	x8, hva4sv16_a
	add	x8, x8, :lo12:hva4sv16_a
	ldr	q0, [x8]
	ldr	q1, [x8, #16]
	ldr	q2, [x8, #32]
	ldr	q3, [x8, #48]
	str	q3, [sp, #2864]
	str	q2, [sp, #2848]
	str	q1, [sp, #2832]
	str	q0, [sp, #2816]
	adrp	x8, hva4sv16_b
	add	x8, x8, :lo12:hva4sv16_b
	ldr	q0, [x8]
	ldr	q1, [x8, #16]
	ldr	q2, [x8, #32]
	ldr	q3, [x8, #48]
	str	q3, [sp, #2800]
	str	q2, [sp, #2784]
	str	q1, [sp, #2768]
	str	q0, [sp, #2752]
	adrp	x0, .L.str.51
	add	x0, x0, :lo12:.L.str.51
	str	x0, [sp, #152]                  // 8-byte Folded Spill
	adrp	x8, __imp_use_va_args_few_hva_4_short_vector_16_bytes
	ldr	x8, [x8, :lo12:__imp_use_va_args_few_hva_4_short_vector_16_bytes]
	add	x1, sp, #2816
	add	x2, sp, #2752
	blr	x8
	ldr	x1, [sp, #152]                  // 8-byte Folded Reload
	str	w0, [sp, #2892]
	ldr	w2, [sp, #2892]
	adrp	x0, .L.str.63
	add	x0, x0, :lo12:.L.str.63
	bl	__mingw_printf
	ldr	w8, [sp, #2892]
	subs	w8, w8, #3
	b.eq	.LBB167_70
	b	.LBB167_69
.LBB167_69:
	ldr	w8, [sp, #6812]
	add	w8, w8, #1
	str	w8, [sp, #6812]
	ldr	w2, [sp, #2892]
	adrp	x0, .L.str.64
	add	x0, x0, :lo12:.L.str.64
	mov	w1, #3
	bl	__mingw_printf
	b	.LBB167_70
.LBB167_70:
	adrp	x8, hva4sv16_a
	add	x8, x8, :lo12:hva4sv16_a
	ldr	q0, [x8]
	ldr	q1, [x8, #16]
	ldr	q2, [x8, #32]
	ldr	q3, [x8, #48]
	str	q3, [sp, #2720]
	str	q2, [sp, #2704]
	str	q1, [sp, #2688]
	str	q0, [sp, #2672]
	adrp	x8, hva4sv16_b
	add	x8, x8, :lo12:hva4sv16_b
	ldr	q0, [x8]
	ldr	q1, [x8, #16]
	ldr	q2, [x8, #32]
	ldr	q3, [x8, #48]
	str	q3, [sp, #2656]
	str	q2, [sp, #2640]
	str	q1, [sp, #2624]
	str	q0, [sp, #2608]
	adrp	x8, hva4sv16_c
	add	x8, x8, :lo12:hva4sv16_c
	ldr	q0, [x8]
	ldr	q1, [x8, #16]
	ldr	q2, [x8, #32]
	ldr	q3, [x8, #48]
	str	q3, [sp, #2592]
	str	q2, [sp, #2576]
	str	q1, [sp, #2560]
	str	q0, [sp, #2544]
	adrp	x8, hva4sv16_d
	add	x8, x8, :lo12:hva4sv16_d
	ldr	q0, [x8]
	ldr	q1, [x8, #16]
	ldr	q2, [x8, #32]
	ldr	q3, [x8, #48]
	str	q3, [sp, #2528]
	str	q2, [sp, #2512]
	str	q1, [sp, #2496]
	str	q0, [sp, #2480]
	adrp	x8, hva4sv16_e
	add	x8, x8, :lo12:hva4sv16_e
	ldr	q0, [x8]
	ldr	q1, [x8, #16]
	ldr	q2, [x8, #32]
	ldr	q3, [x8, #48]
	str	q3, [sp, #2464]
	str	q2, [sp, #2448]
	str	q1, [sp, #2432]
	str	q0, [sp, #2416]
	adrp	x8, hva4sv16_f
	add	x8, x8, :lo12:hva4sv16_f
	ldr	q0, [x8]
	ldr	q1, [x8, #16]
	ldr	q2, [x8, #32]
	ldr	q3, [x8, #48]
	str	q3, [sp, #2400]
	str	q2, [sp, #2384]
	str	q1, [sp, #2368]
	str	q0, [sp, #2352]
	adrp	x8, hva4sv16_g
	add	x8, x8, :lo12:hva4sv16_g
	ldr	q0, [x8]
	ldr	q1, [x8, #16]
	ldr	q2, [x8, #32]
	ldr	q3, [x8, #48]
	str	q3, [sp, #2336]
	str	q2, [sp, #2320]
	str	q1, [sp, #2304]
	str	q0, [sp, #2288]
	adrp	x8, hva4sv16_h
	add	x8, x8, :lo12:hva4sv16_h
	ldr	q0, [x8]
	ldr	q1, [x8, #16]
	ldr	q2, [x8, #32]
	ldr	q3, [x8, #48]
	str	q3, [sp, #2272]
	str	q2, [sp, #2256]
	str	q1, [sp, #2240]
	str	q0, [sp, #2224]
	adrp	x8, hva4sv16_i
	add	x8, x8, :lo12:hva4sv16_i
	ldr	q0, [x8]
	ldr	q1, [x8, #16]
	ldr	q2, [x8, #32]
	ldr	q3, [x8, #48]
	str	q3, [sp, #2208]
	str	q2, [sp, #2192]
	str	q1, [sp, #2176]
	str	q0, [sp, #2160]
	mov	x9, sp
	add	x8, sp, #2160
	str	x8, [x9, #8]
	add	x8, sp, #2224
	str	x8, [x9]
	adrp	x0, .L.str.52
	add	x0, x0, :lo12:.L.str.52
	str	x0, [sp, #144]                  // 8-byte Folded Spill
	adrp	x8, __imp_use_va_args_several_hva_4_short_vector_16_bytes
	ldr	x8, [x8, :lo12:__imp_use_va_args_several_hva_4_short_vector_16_bytes]
	add	x1, sp, #2672
	add	x2, sp, #2608
	add	x3, sp, #2544
	add	x4, sp, #2480
	add	x5, sp, #2416
	add	x6, sp, #2352
	add	x7, sp, #2288
	blr	x8
	ldr	x1, [sp, #144]                  // 8-byte Folded Reload
	str	w0, [sp, #2748]
	ldr	w2, [sp, #2748]
	adrp	x0, .L.str.63
	add	x0, x0, :lo12:.L.str.63
	bl	__mingw_printf
	ldr	w8, [sp, #2748]
	subs	w8, w8, #142
	b.eq	.LBB167_72
	b	.LBB167_71
.LBB167_71:
	ldr	w8, [sp, #6812]
	add	w8, w8, #1
	str	w8, [sp, #6812]
	ldr	w2, [sp, #2748]
	adrp	x0, .L.str.64
	add	x0, x0, :lo12:.L.str.64
	mov	w1, #142
	bl	__mingw_printf
	b	.LBB167_72
.LBB167_72:
	adrp	x8, hva4sv16_a
	add	x8, x8, :lo12:hva4sv16_a
	ldr	q0, [x8]
	ldr	q1, [x8, #16]
	ldr	q2, [x8, #32]
	ldr	q3, [x8, #48]
	str	q3, [sp, #2128]
	str	q2, [sp, #2112]
	str	q1, [sp, #2096]
	str	q0, [sp, #2080]
	adrp	x8, hva4sv16_b
	add	x8, x8, :lo12:hva4sv16_b
	ldr	q0, [x8]
	ldr	q1, [x8, #16]
	ldr	q2, [x8, #32]
	ldr	q3, [x8, #48]
	str	q3, [sp, #2064]
	str	q2, [sp, #2048]
	str	q1, [sp, #2032]
	str	q0, [sp, #2016]
	adrp	x8, hva4sv16_c
	add	x8, x8, :lo12:hva4sv16_c
	ldr	q0, [x8]
	ldr	q1, [x8, #16]
	ldr	q2, [x8, #32]
	ldr	q3, [x8, #48]
	str	q3, [sp, #2000]
	str	q2, [sp, #1984]
	str	q1, [sp, #1968]
	str	q0, [sp, #1952]
	adrp	x8, hva4sv16_d
	add	x8, x8, :lo12:hva4sv16_d
	ldr	q0, [x8]
	ldr	q1, [x8, #16]
	ldr	q2, [x8, #32]
	ldr	q3, [x8, #48]
	str	q3, [sp, #1936]
	str	q2, [sp, #1920]
	str	q1, [sp, #1904]
	str	q0, [sp, #1888]
	adrp	x8, hva4sv16_e
	add	x8, x8, :lo12:hva4sv16_e
	ldr	q0, [x8]
	ldr	q1, [x8, #16]
	ldr	q2, [x8, #32]
	ldr	q3, [x8, #48]
	str	q3, [sp, #1872]
	str	q2, [sp, #1856]
	str	q1, [sp, #1840]
	str	q0, [sp, #1824]
	adrp	x8, hva4sv16_f
	add	x8, x8, :lo12:hva4sv16_f
	ldr	q0, [x8]
	ldr	q1, [x8, #16]
	ldr	q2, [x8, #32]
	ldr	q3, [x8, #48]
	str	q3, [sp, #1808]
	str	q2, [sp, #1792]
	str	q1, [sp, #1776]
	str	q0, [sp, #1760]
	adrp	x8, hva4sv16_g
	add	x8, x8, :lo12:hva4sv16_g
	ldr	q0, [x8]
	ldr	q1, [x8, #16]
	ldr	q2, [x8, #32]
	ldr	q3, [x8, #48]
	str	q3, [sp, #1744]
	str	q2, [sp, #1728]
	str	q1, [sp, #1712]
	str	q0, [sp, #1696]
	adrp	x8, hva4sv16_h
	add	x8, x8, :lo12:hva4sv16_h
	ldr	q0, [x8]
	ldr	q1, [x8, #16]
	ldr	q2, [x8, #32]
	ldr	q3, [x8, #48]
	str	q3, [sp, #1680]
	str	q2, [sp, #1664]
	str	q1, [sp, #1648]
	str	q0, [sp, #1632]
	adrp	x8, hva4sv16_i
	add	x8, x8, :lo12:hva4sv16_i
	ldr	q0, [x8]
	ldr	q1, [x8, #16]
	ldr	q2, [x8, #32]
	ldr	q3, [x8, #48]
	str	q3, [sp, #1616]
	str	q2, [sp, #1600]
	str	q1, [sp, #1584]
	str	q0, [sp, #1568]
	adrp	x8, hva4sv16_j
	add	x8, x8, :lo12:hva4sv16_j
	ldr	q0, [x8]
	ldr	q1, [x8, #16]
	ldr	q2, [x8, #32]
	ldr	q3, [x8, #48]
	str	q3, [sp, #1552]
	str	q2, [sp, #1536]
	str	q1, [sp, #1520]
	str	q0, [sp, #1504]
	adrp	x8, hva4sv16_k
	add	x8, x8, :lo12:hva4sv16_k
	ldr	q0, [x8]
	ldr	q1, [x8, #16]
	ldr	q2, [x8, #32]
	ldr	q3, [x8, #48]
	str	q3, [sp, #1488]
	str	q2, [sp, #1472]
	str	q1, [sp, #1456]
	str	q0, [sp, #1440]
	adrp	x8, hva4sv16_l
	add	x8, x8, :lo12:hva4sv16_l
	ldr	q0, [x8]
	ldr	q1, [x8, #16]
	ldr	q2, [x8, #32]
	ldr	q3, [x8, #48]
	str	q3, [sp, #1424]
	str	q2, [sp, #1408]
	str	q1, [sp, #1392]
	str	q0, [sp, #1376]
	adrp	x8, hva4sv16_m
	add	x8, x8, :lo12:hva4sv16_m
	ldr	q0, [x8]
	ldr	q1, [x8, #16]
	ldr	q2, [x8, #32]
	ldr	q3, [x8, #48]
	str	q3, [sp, #1360]
	str	q2, [sp, #1344]
	str	q1, [sp, #1328]
	str	q0, [sp, #1312]
	adrp	x8, hva4sv16_n
	add	x8, x8, :lo12:hva4sv16_n
	ldr	q0, [x8]
	ldr	q1, [x8, #16]
	ldr	q2, [x8, #32]
	ldr	q3, [x8, #48]
	str	q3, [sp, #1296]
	str	q2, [sp, #1280]
	str	q1, [sp, #1264]
	str	q0, [sp, #1248]
	adrp	x8, hva4sv16_o
	add	x8, x8, :lo12:hva4sv16_o
	ldr	q0, [x8]
	ldr	q1, [x8, #16]
	ldr	q2, [x8, #32]
	ldr	q3, [x8, #48]
	str	q3, [sp, #1232]
	str	q2, [sp, #1216]
	str	q1, [sp, #1200]
	str	q0, [sp, #1184]
	adrp	x8, hva4sv16_p
	add	x8, x8, :lo12:hva4sv16_p
	ldr	q0, [x8]
	ldr	q1, [x8, #16]
	ldr	q2, [x8, #32]
	ldr	q3, [x8, #48]
	str	q3, [sp, #1168]
	str	q2, [sp, #1152]
	str	q1, [sp, #1136]
	str	q0, [sp, #1120]
	adrp	x8, hva4sv16_q
	add	x8, x8, :lo12:hva4sv16_q
	ldr	q0, [x8]
	ldr	q1, [x8, #16]
	ldr	q2, [x8, #32]
	ldr	q3, [x8, #48]
	str	q3, [sp, #1104]
	str	q2, [sp, #1088]
	str	q1, [sp, #1072]
	str	q0, [sp, #1056]
	mov	x9, sp
	str	x9, [sp, #128]                  // 8-byte Folded Spill
	add	x8, sp, #1056
	str	x8, [x9, #72]
	add	x8, sp, #1120
	str	x8, [x9, #64]
	add	x8, sp, #1184
	str	x8, [x9, #56]
	add	x8, sp, #1248
	str	x8, [x9, #48]
	add	x8, sp, #1312
	str	x8, [x9, #40]
	add	x8, sp, #1376
	str	x8, [x9, #32]
	add	x8, sp, #1440
	str	x8, [x9, #24]
	add	x8, sp, #1504
	str	x8, [x9, #16]
	add	x8, sp, #1568
	str	x8, [x9, #8]
	add	x8, sp, #1632
	str	x8, [x9]
	adrp	x0, .L.str.53
	add	x0, x0, :lo12:.L.str.53
	str	x0, [sp, #136]                  // 8-byte Folded Spill
	adrp	x8, __imp_use_va_args_many_hva_4_short_vector_16_bytes
	ldr	x8, [x8, :lo12:__imp_use_va_args_many_hva_4_short_vector_16_bytes]
	add	x1, sp, #2080
	add	x2, sp, #2016
	add	x3, sp, #1952
	add	x4, sp, #1888
	add	x5, sp, #1824
	add	x6, sp, #1760
	add	x7, sp, #1696
	blr	x8
	ldr	x1, [sp, #136]                  // 8-byte Folded Reload
	str	w0, [sp, #2156]
	ldr	w2, [sp, #2156]
	adrp	x0, .L.str.63
	add	x0, x0, :lo12:.L.str.63
	bl	__mingw_printf
	ldr	w8, [sp, #2156]
	mov	w9, #6763
	subs	w8, w8, w9
	b.eq	.LBB167_74
	b	.LBB167_73
.LBB167_73:
	ldr	w8, [sp, #6812]
	add	w8, w8, #1
	str	w8, [sp, #6812]
	ldr	w2, [sp, #2156]
	adrp	x0, .L.str.64
	add	x0, x0, :lo12:.L.str.64
	mov	w1, #6763
	bl	__mingw_printf
	b	.LBB167_74
.LBB167_74:
	adrp	x8, c
	add	x8, x8, :lo12:c
	ldr	q0, [x8]
	ldr	q1, [x8, #16]
	ldr	q2, [x8, #32]
	ldr	q3, [x8, #48]
	str	q3, [sp, #1024]
	str	q2, [sp, #1008]
	str	q1, [sp, #992]
	str	q0, [sp, #976]
	adrp	x8, f
	add	x8, x8, :lo12:f
	ldr	q0, [x8]
	ldr	q1, [x8, #16]
	ldr	q2, [x8, #32]
	ldr	q3, [x8, #48]
	str	q3, [sp, #960]
	str	q2, [sp, #944]
	str	q1, [sp, #928]
	str	q0, [sp, #912]
	adrp	x8, i
	add	x8, x8, :lo12:i
	ldr	q0, [x8]
	ldr	q1, [x8, #16]
	ldr	q2, [x8, #32]
	ldr	q3, [x8, #48]
	str	q3, [sp, #896]
	str	q2, [sp, #880]
	str	q1, [sp, #864]
	str	q0, [sp, #848]
	adrp	x8, l
	add	x8, x8, :lo12:l
	ldr	q0, [x8]
	ldr	q1, [x8, #16]
	ldr	q2, [x8, #32]
	ldr	q3, [x8, #48]
	str	q3, [sp, #832]
	str	q2, [sp, #816]
	str	q1, [sp, #800]
	str	q0, [sp, #784]
	adrp	x8, o
	add	x8, x8, :lo12:o
	ldr	q0, [x8]
	ldr	q1, [x8, #16]
	ldr	q2, [x8, #32]
	ldr	q3, [x8, #48]
	str	q3, [sp, #768]
	str	q2, [sp, #752]
	str	q1, [sp, #736]
	str	q0, [sp, #720]
	mov	x9, sp
	str	x9, [sp, #112]                  // 8-byte Folded Spill
	mov	w8, #2584
	str	w8, [x9, #72]
	mov	w8, #1597
	str	w8, [x9, #64]
	add	x8, sp, #720
	str	x8, [x9, #56]
	mov	w8, #610
	str	w8, [x9, #48]
